
sortvec:     file format elf64-x86-64


Disassembly of section .init:

0000000000007a78 <_init>:
    7a78:	48 83 ec 08          	sub    $0x8,%rsp
    7a7c:	48 8b 05 b5 0f 23 00 	mov    0x230fb5(%rip),%rax        # 238a38 <_GLOBAL_OFFSET_TABLE_+0xe0>
    7a83:	48 85 c0             	test   %rax,%rax
    7a86:	74 05                	je     7a8d <_init+0x15>
    7a88:	e8 3b 00 00 00       	callq  7ac8 <_init+0x50>
    7a8d:	48 83 c4 08          	add    $0x8,%rsp
    7a91:	c3                   	retq   

Disassembly of section .plt:

0000000000007aa0 <.plt>:
    7aa0:	ff 35 ba 0e 23 00    	pushq  0x230eba(%rip)        # 238960 <_GLOBAL_OFFSET_TABLE_+0x8>
    7aa6:	ff 25 bc 0e 23 00    	jmpq   *0x230ebc(%rip)        # 238968 <_GLOBAL_OFFSET_TABLE_+0x10>
    7aac:	0f 1f 40 00          	nopl   0x0(%rax)

Disassembly of section .plt.got:

0000000000007ab0 <.plt.got>:
    7ab0:	ff 25 02 0f 23 00    	jmpq   *0x230f02(%rip)        # 2389b8 <_GLOBAL_OFFSET_TABLE_+0x60>
    7ab6:	66 90                	xchg   %ax,%ax
    7ab8:	ff 25 32 0f 23 00    	jmpq   *0x230f32(%rip)        # 2389f0 <_GLOBAL_OFFSET_TABLE_+0x98>
    7abe:	66 90                	xchg   %ax,%ax
    7ac0:	ff 25 4a 0f 23 00    	jmpq   *0x230f4a(%rip)        # 238a10 <_GLOBAL_OFFSET_TABLE_+0xb8>
    7ac6:	66 90                	xchg   %ax,%ax
    7ac8:	ff 25 6a 0f 23 00    	jmpq   *0x230f6a(%rip)        # 238a38 <_GLOBAL_OFFSET_TABLE_+0xe0>
    7ace:	66 90                	xchg   %ax,%ax
    7ad0:	ff 25 9a 0f 23 00    	jmpq   *0x230f9a(%rip)        # 238a70 <_GLOBAL_OFFSET_TABLE_+0x118>
    7ad6:	66 90                	xchg   %ax,%ax
    7ad8:	ff 25 ca 0f 23 00    	jmpq   *0x230fca(%rip)        # 238aa8 <_GLOBAL_OFFSET_TABLE_+0x150>
    7ade:	66 90                	xchg   %ax,%ax
    7ae0:	ff 25 ca 0f 23 00    	jmpq   *0x230fca(%rip)        # 238ab0 <_GLOBAL_OFFSET_TABLE_+0x158>
    7ae6:	66 90                	xchg   %ax,%ax
    7ae8:	ff 25 ca 0f 23 00    	jmpq   *0x230fca(%rip)        # 238ab8 <_GLOBAL_OFFSET_TABLE_+0x160>
    7aee:	66 90                	xchg   %ax,%ax
    7af0:	ff 25 2a 10 23 00    	jmpq   *0x23102a(%rip)        # 238b20 <_GLOBAL_OFFSET_TABLE_+0x1c8>
    7af6:	66 90                	xchg   %ax,%ax
    7af8:	ff 25 72 10 23 00    	jmpq   *0x231072(%rip)        # 238b70 <_GLOBAL_OFFSET_TABLE_+0x218>
    7afe:	66 90                	xchg   %ax,%ax
    7b00:	ff 25 7a 10 23 00    	jmpq   *0x23107a(%rip)        # 238b80 <_GLOBAL_OFFSET_TABLE_+0x228>
    7b06:	66 90                	xchg   %ax,%ax
    7b08:	ff 25 e2 10 23 00    	jmpq   *0x2310e2(%rip)        # 238bf0 <_GLOBAL_OFFSET_TABLE_+0x298>
    7b0e:	66 90                	xchg   %ax,%ax
    7b10:	ff 25 02 11 23 00    	jmpq   *0x231102(%rip)        # 238c18 <_GLOBAL_OFFSET_TABLE_+0x2c0>
    7b16:	66 90                	xchg   %ax,%ax
    7b18:	ff 25 32 11 23 00    	jmpq   *0x231132(%rip)        # 238c50 <_GLOBAL_OFFSET_TABLE_+0x2f8>
    7b1e:	66 90                	xchg   %ax,%ax
    7b20:	ff 25 da 11 23 00    	jmpq   *0x2311da(%rip)        # 238d00 <_GLOBAL_OFFSET_TABLE_+0x3a8>
    7b26:	66 90                	xchg   %ax,%ax
    7b28:	ff 25 22 12 23 00    	jmpq   *0x231222(%rip)        # 238d50 <_GLOBAL_OFFSET_TABLE_+0x3f8>
    7b2e:	66 90                	xchg   %ax,%ax
    7b30:	ff 25 52 12 23 00    	jmpq   *0x231252(%rip)        # 238d88 <_GLOBAL_OFFSET_TABLE_+0x430>
    7b36:	66 90                	xchg   %ax,%ax
    7b38:	ff 25 5a 12 23 00    	jmpq   *0x23125a(%rip)        # 238d98 <_GLOBAL_OFFSET_TABLE_+0x440>
    7b3e:	66 90                	xchg   %ax,%ax
    7b40:	ff 25 72 12 23 00    	jmpq   *0x231272(%rip)        # 238db8 <_GLOBAL_OFFSET_TABLE_+0x460>
    7b46:	66 90                	xchg   %ax,%ax
    7b48:	ff 25 82 12 23 00    	jmpq   *0x231282(%rip)        # 238dd0 <_GLOBAL_OFFSET_TABLE_+0x478>
    7b4e:	66 90                	xchg   %ax,%ax
    7b50:	ff 25 12 13 23 00    	jmpq   *0x231312(%rip)        # 238e68 <_GLOBAL_OFFSET_TABLE_+0x510>
    7b56:	66 90                	xchg   %ax,%ax
    7b58:	ff 25 7a 13 23 00    	jmpq   *0x23137a(%rip)        # 238ed8 <_GLOBAL_OFFSET_TABLE_+0x580>
    7b5e:	66 90                	xchg   %ax,%ax
    7b60:	ff 25 a2 13 23 00    	jmpq   *0x2313a2(%rip)        # 238f08 <_GLOBAL_OFFSET_TABLE_+0x5b0>
    7b66:	66 90                	xchg   %ax,%ax
    7b68:	ff 25 e2 13 23 00    	jmpq   *0x2313e2(%rip)        # 238f50 <_GLOBAL_OFFSET_TABLE_+0x5f8>
    7b6e:	66 90                	xchg   %ax,%ax
    7b70:	ff 25 02 14 23 00    	jmpq   *0x231402(%rip)        # 238f78 <_GLOBAL_OFFSET_TABLE_+0x620>
    7b76:	66 90                	xchg   %ax,%ax
    7b78:	ff 25 0a 14 23 00    	jmpq   *0x23140a(%rip)        # 238f88 <_GLOBAL_OFFSET_TABLE_+0x630>
    7b7e:	66 90                	xchg   %ax,%ax

Disassembly of section .text:

0000000000007b80 <elf_try_debugfile>:
    7b80:	55                   	push   %rbp
    7b81:	48 89 e5             	mov    %rsp,%rbp
    7b84:	41 57                	push   %r15
    7b86:	41 56                	push   %r14
    7b88:	41 55                	push   %r13
    7b8a:	41 54                	push   %r12
    7b8c:	4e 8d 24 02          	lea    (%rdx,%r8,1),%r12
    7b90:	53                   	push   %rbx
    7b91:	48 83 ec 58          	sub    $0x58,%rsp
    7b95:	48 89 7d b0          	mov    %rdi,-0x50(%rbp)
    7b99:	48 89 75 a8          	mov    %rsi,-0x58(%rbp)
    7b9d:	64 48 8b 04 25 28 00 	mov    %fs:0x28,%rax
    7ba4:	00 00 
    7ba6:	48 89 45 c8          	mov    %rax,-0x38(%rbp)
    7baa:	31 c0                	xor    %eax,%eax
    7bac:	48 89 4d a0          	mov    %rcx,-0x60(%rbp)
    7bb0:	4c 89 cf             	mov    %r9,%rdi
    7bb3:	48 83 c9 ff          	or     $0xffffffffffffffff,%rcx
    7bb7:	4c 89 4d 80          	mov    %r9,-0x80(%rbp)
    7bbb:	4c 8b 6d 10          	mov    0x10(%rbp),%r13
    7bbf:	f2 ae                	repnz scas %es:(%rdi),%al
    7bc1:	4c 8b 75 18          	mov    0x18(%rbp),%r14
    7bc5:	48 8b 7d b0          	mov    -0x50(%rbp),%rdi
    7bc9:	48 89 c8             	mov    %rcx,%rax
    7bcc:	48 89 55 90          	mov    %rdx,-0x70(%rbp)
    7bd0:	4c 89 ea             	mov    %r13,%rdx
    7bd3:	48 f7 d0             	not    %rax
    7bd6:	4c 89 45 88          	mov    %r8,-0x78(%rbp)
    7bda:	48 ff c8             	dec    %rax
    7bdd:	4c 89 f1             	mov    %r14,%rcx
    7be0:	4e 8d 1c 20          	lea    (%rax,%r12,1),%r11
    7be4:	48 89 45 b8          	mov    %rax,-0x48(%rbp)
    7be8:	4d 8d 7b 01          	lea    0x1(%r11),%r15
    7bec:	4c 89 5d 98          	mov    %r11,-0x68(%rbp)
    7bf0:	4c 89 fe             	mov    %r15,%rsi
    7bf3:	e8 48 63 01 00       	callq  1df40 <__rdos_backtrace_alloc>
    7bf8:	48 89 c3             	mov    %rax,%rbx
    7bfb:	83 c8 ff             	or     $0xffffffff,%eax
    7bfe:	48 85 db             	test   %rbx,%rbx
    7c01:	74 66                	je     7c69 <elf_try_debugfile+0xe9>
    7c03:	4c 8b 55 90          	mov    -0x70(%rbp),%r10
    7c07:	4c 8b 45 88          	mov    -0x78(%rbp),%r8
    7c0b:	48 89 df             	mov    %rbx,%rdi
    7c0e:	4c 8b 4d 80          	mov    -0x80(%rbp),%r9
    7c12:	48 8b 75 a8          	mov    -0x58(%rbp),%rsi
    7c16:	49 01 dc             	add    %rbx,%r12
    7c19:	4c 8b 5d 98          	mov    -0x68(%rbp),%r11
    7c1d:	4c 89 f2             	mov    %r14,%rdx
    7c20:	4c 89 d1             	mov    %r10,%rcx
    7c23:	f3 a4                	rep movsb %ds:(%rsi),%es:(%rdi)
    7c25:	4c 89 c1             	mov    %r8,%rcx
    7c28:	48 8b 75 a0          	mov    -0x60(%rbp),%rsi
    7c2c:	f3 a4                	rep movsb %ds:(%rsi),%es:(%rdi)
    7c2e:	4c 89 ce             	mov    %r9,%rsi
    7c31:	4c 89 e7             	mov    %r12,%rdi
    7c34:	48 8b 4d b8          	mov    -0x48(%rbp),%rcx
    7c38:	f3 a4                	rep movsb %ds:(%rsi),%es:(%rdi)
    7c3a:	48 8d 4d c4          	lea    -0x3c(%rbp),%rcx
    7c3e:	4c 89 ee             	mov    %r13,%rsi
    7c41:	48 89 df             	mov    %rbx,%rdi
    7c44:	42 c6 04 1b 00       	movb   $0x0,(%rbx,%r11,1)
    7c49:	e8 a2 2e 01 00       	callq  1aaf0 <__rdos_backtrace_open>
    7c4e:	48 8b 7d b0          	mov    -0x50(%rbp),%rdi
    7c52:	41 89 c4             	mov    %eax,%r12d
    7c55:	4d 89 f0             	mov    %r14,%r8
    7c58:	4c 89 e9             	mov    %r13,%rcx
    7c5b:	4c 89 fa             	mov    %r15,%rdx
    7c5e:	48 89 de             	mov    %rbx,%rsi
    7c61:	e8 2a 63 01 00       	callq  1df90 <__rdos_backtrace_free>
    7c66:	44 89 e0             	mov    %r12d,%eax
    7c69:	48 8b 55 c8          	mov    -0x38(%rbp),%rdx
    7c6d:	64 48 33 14 25 28 00 	xor    %fs:0x28,%rdx
    7c74:	00 00 
    7c76:	74 05                	je     7c7d <elf_try_debugfile+0xfd>
    7c78:	e8 c3 fe ff ff       	callq  7b40 <_init+0xc8>
    7c7d:	48 83 c4 58          	add    $0x58,%rsp
    7c81:	5b                   	pop    %rbx
    7c82:	41 5c                	pop    %r12
    7c84:	41 5d                	pop    %r13
    7c86:	41 5e                	pop    %r14
    7c88:	41 5f                	pop    %r15
    7c8a:	5d                   	pop    %rbp
    7c8b:	c3                   	retq   
    7c8c:	0f 1f 40 00          	nopl   0x0(%rax)

0000000000007c90 <_start>:
    7c90:	31 ed                	xor    %ebp,%ebp
    7c92:	49 89 d1             	mov    %rdx,%r9
    7c95:	5e                   	pop    %rsi
    7c96:	48 89 e2             	mov    %rsp,%rdx
    7c99:	48 83 e4 f0          	and    $0xfffffffffffffff0,%rsp
    7c9d:	50                   	push   %rax
    7c9e:	54                   	push   %rsp
    7c9f:	4c 8d 05 ba 2b 02 00 	lea    0x22bba(%rip),%r8        # 2a860 <__libc_csu_fini>
    7ca6:	48 8d 0d 43 2b 02 00 	lea    0x22b43(%rip),%rcx        # 2a7f0 <__libc_csu_init>
    7cad:	48 8d 3d 8c 0d 00 00 	lea    0xd8c(%rip),%rdi        # 8a40 <main>
    7cb4:	e8 2f fe ff ff       	callq  7ae8 <_init+0x70>
    7cb9:	f4                   	hlt    
    7cba:	66 0f 1f 44 00 00    	nopw   0x0(%rax,%rax,1)

0000000000007cc0 <deregister_tm_clones>:
    7cc0:	48 8d 3d 91 13 23 00 	lea    0x231391(%rip),%rdi        # 239058 <__TMC_END__>
    7cc7:	48 8d 05 91 13 23 00 	lea    0x231391(%rip),%rax        # 23905f <__TMC_END__+0x7>
    7cce:	55                   	push   %rbp
    7ccf:	48 29 f8             	sub    %rdi,%rax
    7cd2:	48 89 e5             	mov    %rsp,%rbp
    7cd5:	48 83 f8 0e          	cmp    $0xe,%rax
    7cd9:	76 15                	jbe    7cf0 <deregister_tm_clones+0x30>
    7cdb:	48 8b 05 6e 0e 23 00 	mov    0x230e6e(%rip),%rax        # 238b50 <_GLOBAL_OFFSET_TABLE_+0x1f8>
    7ce2:	48 85 c0             	test   %rax,%rax
    7ce5:	74 09                	je     7cf0 <deregister_tm_clones+0x30>
    7ce7:	5d                   	pop    %rbp
    7ce8:	ff e0                	jmpq   *%rax
    7cea:	66 0f 1f 44 00 00    	nopw   0x0(%rax,%rax,1)
    7cf0:	5d                   	pop    %rbp
    7cf1:	c3                   	retq   
    7cf2:	0f 1f 40 00          	nopl   0x0(%rax)
    7cf6:	66 2e 0f 1f 84 00 00 	nopw   %cs:0x0(%rax,%rax,1)
    7cfd:	00 00 00 

0000000000007d00 <register_tm_clones>:
    7d00:	48 8d 3d 51 13 23 00 	lea    0x231351(%rip),%rdi        # 239058 <__TMC_END__>
    7d07:	48 8d 35 4a 13 23 00 	lea    0x23134a(%rip),%rsi        # 239058 <__TMC_END__>
    7d0e:	55                   	push   %rbp
    7d0f:	48 29 fe             	sub    %rdi,%rsi
    7d12:	48 89 e5             	mov    %rsp,%rbp
    7d15:	48 c1 fe 03          	sar    $0x3,%rsi
    7d19:	48 89 f0             	mov    %rsi,%rax
    7d1c:	48 c1 e8 3f          	shr    $0x3f,%rax
    7d20:	48 01 c6             	add    %rax,%rsi
    7d23:	48 d1 fe             	sar    %rsi
    7d26:	74 18                	je     7d40 <register_tm_clones+0x40>
    7d28:	48 8b 05 69 0e 23 00 	mov    0x230e69(%rip),%rax        # 238b98 <_GLOBAL_OFFSET_TABLE_+0x240>
    7d2f:	48 85 c0             	test   %rax,%rax
    7d32:	74 0c                	je     7d40 <register_tm_clones+0x40>
    7d34:	5d                   	pop    %rbp
    7d35:	ff e0                	jmpq   *%rax
    7d37:	66 0f 1f 84 00 00 00 	nopw   0x0(%rax,%rax,1)
    7d3e:	00 00 
    7d40:	5d                   	pop    %rbp
    7d41:	c3                   	retq   
    7d42:	0f 1f 40 00          	nopl   0x0(%rax)
    7d46:	66 2e 0f 1f 84 00 00 	nopw   %cs:0x0(%rax,%rax,1)
    7d4d:	00 00 00 

0000000000007d50 <__do_global_dtors_aux>:
    7d50:	80 3d 01 13 23 00 00 	cmpb   $0x0,0x231301(%rip)        # 239058 <__TMC_END__>
    7d57:	75 27                	jne    7d80 <__do_global_dtors_aux+0x30>
    7d59:	48 83 3d 8f 0e 23 00 	cmpq   $0x0,0x230e8f(%rip)        # 238bf0 <_GLOBAL_OFFSET_TABLE_+0x298>
    7d60:	00 
    7d61:	55                   	push   %rbp
    7d62:	48 89 e5             	mov    %rsp,%rbp
    7d65:	74 0c                	je     7d73 <__do_global_dtors_aux+0x23>
    7d67:	48 8b 3d 92 12 23 00 	mov    0x231292(%rip),%rdi        # 239000 <__dso_handle>
    7d6e:	e8 95 fd ff ff       	callq  7b08 <_init+0x90>
    7d73:	e8 48 ff ff ff       	callq  7cc0 <deregister_tm_clones>
    7d78:	5d                   	pop    %rbp
    7d79:	c6 05 d8 12 23 00 01 	movb   $0x1,0x2312d8(%rip)        # 239058 <__TMC_END__>
    7d80:	f3 c3                	repz retq 
    7d82:	0f 1f 40 00          	nopl   0x0(%rax)
    7d86:	66 2e 0f 1f 84 00 00 	nopw   %cs:0x0(%rax,%rax,1)
    7d8d:	00 00 00 

0000000000007d90 <frame_dummy>:
    7d90:	48 8d 3d f9 eb 22 00 	lea    0x22ebf9(%rip),%rdi        # 236990 <__JCR_END__>
    7d97:	48 83 3f 00          	cmpq   $0x0,(%rdi)
    7d9b:	75 0b                	jne    7da8 <frame_dummy+0x18>
    7d9d:	e9 5e ff ff ff       	jmpq   7d00 <register_tm_clones>
    7da2:	66 0f 1f 44 00 00    	nopw   0x0(%rax,%rax,1)
    7da8:	48 8b 05 91 0c 23 00 	mov    0x230c91(%rip),%rax        # 238a40 <_GLOBAL_OFFSET_TABLE_+0xe8>
    7daf:	48 85 c0             	test   %rax,%rax
    7db2:	74 e9                	je     7d9d <frame_dummy+0xd>
    7db4:	55                   	push   %rbp
    7db5:	48 89 e5             	mov    %rsp,%rbp
    7db8:	ff d0                	callq  *%rax
    7dba:	5d                   	pop    %rbp
    7dbb:	e9 40 ff ff ff       	jmpq   7d00 <register_tm_clones>

0000000000007dc0 <_ZN4core3ptr18real_drop_in_place17h18c1e8bf55f7eb7eE>:
    7dc0:	48 8b 77 08          	mov    0x8(%rdi),%rsi
    7dc4:	48 85 f6             	test   %rsi,%rsi
    7dc7:	74 12                	je     7ddb <_ZN4core3ptr18real_drop_in_place17h18c1e8bf55f7eb7eE+0x1b>
    7dc9:	48 8b 3f             	mov    (%rdi),%rdi
    7dcc:	48 c1 e6 04          	shl    $0x4,%rsi
    7dd0:	ba 08 00 00 00       	mov    $0x8,%edx
    7dd5:	ff 25 6d 0d 23 00    	jmpq   *0x230d6d(%rip)        # 238b48 <_GLOBAL_OFFSET_TABLE_+0x1f0>
    7ddb:	c3                   	retq   
    7ddc:	0f 1f 40 00          	nopl   0x0(%rax)

0000000000007de0 <_ZN4core3ptr18real_drop_in_place17h726b38b54d559f60E>:
    7de0:	48 8b 77 08          	mov    0x8(%rdi),%rsi
    7de4:	48 85 f6             	test   %rsi,%rsi
    7de7:	74 12                	je     7dfb <_ZN4core3ptr18real_drop_in_place17h726b38b54d559f60E+0x1b>
    7de9:	48 8b 3f             	mov    (%rdi),%rdi
    7dec:	48 c1 e6 02          	shl    $0x2,%rsi
    7df0:	ba 04 00 00 00       	mov    $0x4,%edx
    7df5:	ff 25 4d 0d 23 00    	jmpq   *0x230d4d(%rip)        # 238b48 <_GLOBAL_OFFSET_TABLE_+0x1f0>
    7dfb:	c3                   	retq   
    7dfc:	0f 1f 40 00          	nopl   0x0(%rax)

0000000000007e00 <_ZN5alloc5slice10merge_sort17hace5e096142591f3E>:
    7e00:	55                   	push   %rbp
    7e01:	41 57                	push   %r15
    7e03:	41 56                	push   %r14
    7e05:	41 55                	push   %r13
    7e07:	41 54                	push   %r12
    7e09:	53                   	push   %rbx
    7e0a:	48 81 ec 98 00 00 00 	sub    $0x98,%rsp
    7e11:	49 89 f7             	mov    %rsi,%r15
    7e14:	48 83 fe 15          	cmp    $0x15,%rsi
    7e18:	48 89 7c 24 08       	mov    %rdi,0x8(%rsp)
    7e1d:	0f 83 b2 00 00 00    	jae    7ed5 <_ZN5alloc5slice10merge_sort17hace5e096142591f3E+0xd5>
    7e23:	49 83 ff 01          	cmp    $0x1,%r15
    7e27:	0f 86 61 07 00 00    	jbe    858e <_ZN5alloc5slice10merge_sort17hace5e096142591f3E+0x78e>
    7e2d:	49 8d 7f ff          	lea    -0x1(%r15),%rdi
    7e31:	48 8b 44 24 08       	mov    0x8(%rsp),%rax
    7e36:	4a 8d 0c b8          	lea    (%rax,%r15,4),%rcx
    7e3a:	66 0f 1f 44 00 00    	nopw   0x0(%rax,%rax,1)
    7e40:	48 89 fd             	mov    %rdi,%rbp
    7e43:	48 8d 7f ff          	lea    -0x1(%rdi),%rdi
    7e47:	4c 39 ff             	cmp    %r15,%rdi
    7e4a:	0f 87 c6 07 00 00    	ja     8616 <_ZN5alloc5slice10merge_sort17hace5e096142591f3E+0x816>
    7e50:	4c 89 fa             	mov    %r15,%rdx
    7e53:	48 29 fa             	sub    %rdi,%rdx
    7e56:	48 83 fa 02          	cmp    $0x2,%rdx
    7e5a:	72 67                	jb     7ec3 <_ZN5alloc5slice10merge_sort17hace5e096142591f3E+0xc3>
    7e5c:	48 8b 44 24 08       	mov    0x8(%rsp),%rax
    7e61:	44 8b 44 a8 fc       	mov    -0x4(%rax,%rbp,4),%r8d
    7e66:	8b 04 a8             	mov    (%rax,%rbp,4),%eax
    7e69:	44 39 c0             	cmp    %r8d,%eax
    7e6c:	7d 55                	jge    7ec3 <_ZN5alloc5slice10merge_sort17hace5e096142591f3E+0xc3>
    7e6e:	48 8b 5c 24 08       	mov    0x8(%rsp),%rbx
    7e73:	48 8d 34 ab          	lea    (%rbx,%rbp,4),%rsi
    7e77:	89 44 ab fc          	mov    %eax,-0x4(%rbx,%rbp,4)
    7e7b:	48 83 fa 03          	cmp    $0x3,%rdx
    7e7f:	72 3f                	jb     7ec0 <_ZN5alloc5slice10merge_sort17hace5e096142591f3E+0xc0>
    7e81:	8b 5c ab 04          	mov    0x4(%rbx,%rbp,4),%ebx
    7e85:	44 39 c3             	cmp    %r8d,%ebx
    7e88:	7d 36                	jge    7ec0 <_ZN5alloc5slice10merge_sort17hace5e096142591f3E+0xc0>
    7e8a:	bd 03 00 00 00       	mov    $0x3,%ebp
    7e8f:	48 89 c8             	mov    %rcx,%rax
    7e92:	66 2e 0f 1f 84 00 00 	nopw   %cs:0x0(%rax,%rax,1)
    7e99:	00 00 00 
    7e9c:	0f 1f 40 00          	nopl   0x0(%rax)
    7ea0:	48 89 c6             	mov    %rax,%rsi
    7ea3:	89 58 fc             	mov    %ebx,-0x4(%rax)
    7ea6:	48 39 d5             	cmp    %rdx,%rbp
    7ea9:	73 15                	jae    7ec0 <_ZN5alloc5slice10merge_sort17hace5e096142591f3E+0xc0>
    7eab:	48 83 c5 01          	add    $0x1,%rbp
    7eaf:	48 8d 46 04          	lea    0x4(%rsi),%rax
    7eb3:	8b 5e 04             	mov    0x4(%rsi),%ebx
    7eb6:	44 39 c3             	cmp    %r8d,%ebx
    7eb9:	7c e5                	jl     7ea0 <_ZN5alloc5slice10merge_sort17hace5e096142591f3E+0xa0>
    7ebb:	0f 1f 44 00 00       	nopl   0x0(%rax,%rax,1)
    7ec0:	44 89 06             	mov    %r8d,(%rsi)
    7ec3:	48 83 c1 fc          	add    $0xfffffffffffffffc,%rcx
    7ec7:	48 85 ff             	test   %rdi,%rdi
    7eca:	0f 85 70 ff ff ff    	jne    7e40 <_ZN5alloc5slice10merge_sort17hace5e096142591f3E+0x40>
    7ed0:	e9 b9 06 00 00       	jmpq   858e <_ZN5alloc5slice10merge_sort17hace5e096142591f3E+0x78e>
    7ed5:	4c 89 fb             	mov    %r15,%rbx
    7ed8:	48 d1 eb             	shr    %rbx
    7edb:	b9 04 00 00 00       	mov    $0x4,%ecx
    7ee0:	48 89 d8             	mov    %rbx,%rax
    7ee3:	48 f7 e1             	mul    %rcx
    7ee6:	0f 80 7a 07 00 00    	jo     8666 <_ZN5alloc5slice10merge_sort17hace5e096142591f3E+0x866>
    7eec:	48 89 c5             	mov    %rax,%rbp
    7eef:	48 85 c0             	test   %rax,%rax
    7ef2:	74 1f                	je     7f13 <_ZN5alloc5slice10merge_sort17hace5e096142591f3E+0x113>
    7ef4:	be 04 00 00 00       	mov    $0x4,%esi
    7ef9:	48 89 ef             	mov    %rbp,%rdi
    7efc:	ff 15 36 0e 23 00    	callq  *0x230e36(%rip)        # 238d38 <_GLOBAL_OFFSET_TABLE_+0x3e0>
    7f02:	48 85 c0             	test   %rax,%rax
    7f05:	0f 84 62 07 00 00    	je     866d <_ZN5alloc5slice10merge_sort17hace5e096142591f3E+0x86d>
    7f0b:	48 89 c1             	mov    %rax,%rcx
    7f0e:	48 8b 7c 24 08       	mov    0x8(%rsp),%rdi
    7f13:	48 89 4c 24 40       	mov    %rcx,0x40(%rsp)
    7f18:	48 89 5c 24 48       	mov    %rbx,0x48(%rsp)
    7f1d:	48 c7 44 24 50 00 00 	movq   $0x0,0x50(%rsp)
    7f24:	00 00 
    7f26:	48 c7 44 24 20 08 00 	movq   $0x8,0x20(%rsp)
    7f2d:	00 00 
    7f2f:	0f 57 c0             	xorps  %xmm0,%xmm0
    7f32:	0f 11 44 24 28       	movups %xmm0,0x28(%rsp)
    7f37:	48 8d 47 fc          	lea    -0x4(%rdi),%rax
    7f3b:	48 89 44 24 38       	mov    %rax,0x38(%rsp)
    7f40:	48 8d 47 04          	lea    0x4(%rdi),%rax
    7f44:	48 89 44 24 58       	mov    %rax,0x58(%rsp)
    7f49:	41 bc 08 00 00 00    	mov    $0x8,%r12d
    7f4f:	45 31 ed             	xor    %r13d,%r13d
    7f52:	4c 89 fe             	mov    %r15,%rsi
    7f55:	4c 89 7c 24 10       	mov    %r15,0x10(%rsp)
    7f5a:	66 0f 1f 44 00 00    	nopw   0x0(%rax,%rax,1)
    7f60:	48 89 f0             	mov    %rsi,%rax
    7f63:	48 83 c0 ff          	add    $0xffffffffffffffff,%rax
    7f67:	0f 84 a3 00 00 00    	je     8010 <_ZN5alloc5slice10merge_sort17hace5e096142591f3E+0x210>
    7f6d:	8b 54 b7 f8          	mov    -0x8(%rdi,%rsi,4),%edx
    7f71:	39 54 b7 fc          	cmp    %edx,-0x4(%rdi,%rsi,4)
    7f75:	7d 79                	jge    7ff0 <_ZN5alloc5slice10merge_sort17hace5e096142591f3E+0x1f0>
    7f77:	48 8d 7e fe          	lea    -0x2(%rsi),%rdi
    7f7b:	48 8b 44 24 38       	mov    0x38(%rsp),%rax
    7f80:	4c 8d 14 b0          	lea    (%rax,%rsi,4),%r10
    7f84:	bd 02 00 00 00       	mov    $0x2,%ebp
    7f89:	4c 89 d1             	mov    %r10,%rcx
    7f8c:	31 db                	xor    %ebx,%ebx
    7f8e:	66 90                	xchg   %ax,%ax
    7f90:	49 89 d8             	mov    %rbx,%r8
    7f93:	49 89 cb             	mov    %rcx,%r11
    7f96:	49 89 e9             	mov    %rbp,%r9
    7f99:	48 89 f8             	mov    %rdi,%rax
    7f9c:	48 29 d8             	sub    %rbx,%rax
    7f9f:	74 18                	je     7fb9 <_ZN5alloc5slice10merge_sort17hace5e096142591f3E+0x1b9>
    7fa1:	45 8b 73 f8          	mov    -0x8(%r11),%r14d
    7fa5:	49 8d 58 01          	lea    0x1(%r8),%rbx
    7fa9:	49 8d 4b fc          	lea    -0x4(%r11),%rcx
    7fad:	49 8d 69 01          	lea    0x1(%r9),%rbp
    7fb1:	44 39 f2             	cmp    %r14d,%edx
    7fb4:	44 89 f2             	mov    %r14d,%edx
    7fb7:	7c d7                	jl     7f90 <_ZN5alloc5slice10merge_sort17hace5e096142591f3E+0x190>
    7fb9:	48 39 c6             	cmp    %rax,%rsi
    7fbc:	0f 82 8b 06 00 00    	jb     864d <_ZN5alloc5slice10merge_sort17hace5e096142591f3E+0x84d>
    7fc2:	4c 39 fe             	cmp    %r15,%rsi
    7fc5:	0f 87 8d 06 00 00    	ja     8658 <_ZN5alloc5slice10merge_sort17hace5e096142591f3E+0x858>
    7fcb:	49 8d 78 02          	lea    0x2(%r8),%rdi
    7fcf:	48 d1 ef             	shr    %rdi
    7fd2:	0f 84 a8 00 00 00    	je     8080 <_ZN5alloc5slice10merge_sort17hace5e096142591f3E+0x280>
    7fd8:	48 83 ff 01          	cmp    $0x1,%rdi
    7fdc:	75 36                	jne    8014 <_ZN5alloc5slice10merge_sort17hace5e096142591f3E+0x214>
    7fde:	31 d2                	xor    %edx,%edx
    7fe0:	40 f6 c7 01          	test   $0x1,%dil
    7fe4:	75 7d                	jne    8063 <_ZN5alloc5slice10merge_sort17hace5e096142591f3E+0x263>
    7fe6:	e9 95 00 00 00       	jmpq   8080 <_ZN5alloc5slice10merge_sort17hace5e096142591f3E+0x280>
    7feb:	0f 1f 44 00 00       	nopl   0x0(%rax,%rax,1)
    7ff0:	48 83 f8 01          	cmp    $0x1,%rax
    7ff4:	74 1a                	je     8010 <_ZN5alloc5slice10merge_sort17hace5e096142591f3E+0x210>
    7ff6:	8b 4c 87 f8          	mov    -0x8(%rdi,%rax,4),%ecx
    7ffa:	48 83 c0 ff          	add    $0xffffffffffffffff,%rax
    7ffe:	39 ca                	cmp    %ecx,%edx
    8000:	89 ca                	mov    %ecx,%edx
    8002:	7d ec                	jge    7ff0 <_ZN5alloc5slice10merge_sort17hace5e096142591f3E+0x1f0>
    8004:	eb 7f                	jmp    8085 <_ZN5alloc5slice10merge_sort17hace5e096142591f3E+0x285>
    8006:	66 2e 0f 1f 84 00 00 	nopw   %cs:0x0(%rax,%rax,1)
    800d:	00 00 00 
    8010:	31 c0                	xor    %eax,%eax
    8012:	eb 71                	jmp    8085 <_ZN5alloc5slice10merge_sort17hace5e096142591f3E+0x285>
    8014:	49 d1 e9             	shr    %r9
    8017:	44 89 c9             	mov    %r9d,%ecx
    801a:	83 e1 01             	and    $0x1,%ecx
    801d:	49 29 c9             	sub    %rcx,%r9
    8020:	31 d2                	xor    %edx,%edx
    8022:	66 2e 0f 1f 84 00 00 	nopw   %cs:0x0(%rax,%rax,1)
    8029:	00 00 00 
    802c:	0f 1f 40 00          	nopl   0x0(%rax)
    8030:	41 8b 4c 93 fc       	mov    -0x4(%r11,%rdx,4),%ecx
    8035:	41 8b 1a             	mov    (%r10),%ebx
    8038:	41 89 5c 93 fc       	mov    %ebx,-0x4(%r11,%rdx,4)
    803d:	41 89 0a             	mov    %ecx,(%r10)
    8040:	41 8b 0c 93          	mov    (%r11,%rdx,4),%ecx
    8044:	41 8b 5a fc          	mov    -0x4(%r10),%ebx
    8048:	41 89 1c 93          	mov    %ebx,(%r11,%rdx,4)
    804c:	41 89 4a fc          	mov    %ecx,-0x4(%r10)
    8050:	48 83 c2 02          	add    $0x2,%rdx
    8054:	49 83 c2 f8          	add    $0xfffffffffffffff8,%r10
    8058:	49 39 d1             	cmp    %rdx,%r9
    805b:	75 d3                	jne    8030 <_ZN5alloc5slice10merge_sort17hace5e096142591f3E+0x230>
    805d:	40 f6 c7 01          	test   $0x1,%dil
    8061:	74 1d                	je     8080 <_ZN5alloc5slice10merge_sort17hace5e096142591f3E+0x280>
    8063:	48 89 d1             	mov    %rdx,%rcx
    8066:	48 f7 d1             	not    %rcx
    8069:	4c 01 c1             	add    %r8,%rcx
    806c:	41 8b 7c 93 fc       	mov    -0x4(%r11,%rdx,4),%edi
    8071:	41 8b 6c 8b 04       	mov    0x4(%r11,%rcx,4),%ebp
    8076:	41 89 6c 93 fc       	mov    %ebp,-0x4(%r11,%rdx,4)
    807b:	41 89 7c 8b 04       	mov    %edi,0x4(%r11,%rcx,4)
    8080:	48 8b 7c 24 08       	mov    0x8(%rsp),%rdi
    8085:	48 85 c0             	test   %rax,%rax
    8088:	0f 95 c2             	setne  %dl
    808b:	48 89 f5             	mov    %rsi,%rbp
    808e:	48 29 c5             	sub    %rax,%rbp
    8091:	48 83 fd 0a          	cmp    $0xa,%rbp
    8095:	0f 92 c1             	setb   %cl
    8098:	20 d1                	and    %dl,%cl
    809a:	4c 39 fe             	cmp    %r15,%rsi
    809d:	76 11                	jbe    80b0 <_ZN5alloc5slice10merge_sort17hace5e096142591f3E+0x2b0>
    809f:	84 c9                	test   %cl,%cl
    80a1:	0f 84 39 01 00 00    	je     81e0 <_ZN5alloc5slice10merge_sort17hace5e096142591f3E+0x3e0>
    80a7:	e9 75 05 00 00       	jmpq   8621 <_ZN5alloc5slice10merge_sort17hace5e096142591f3E+0x821>
    80ac:	0f 1f 40 00          	nopl   0x0(%rax)
    80b0:	84 c9                	test   %cl,%cl
    80b2:	0f 84 28 01 00 00    	je     81e0 <_ZN5alloc5slice10merge_sort17hace5e096142591f3E+0x3e0>
    80b8:	48 8b 4c 24 58       	mov    0x58(%rsp),%rcx
    80bd:	48 8d 1c 81          	lea    (%rcx,%rax,4),%rbx
    80c1:	66 2e 0f 1f 84 00 00 	nopw   %cs:0x0(%rax,%rax,1)
    80c8:	00 00 00 
    80cb:	0f 1f 44 00 00       	nopl   0x0(%rax,%rax,1)
    80d0:	48 8d 50 ff          	lea    -0x1(%rax),%rdx
    80d4:	48 89 f5             	mov    %rsi,%rbp
    80d7:	48 29 d5             	sub    %rdx,%rbp
    80da:	0f 82 23 05 00 00    	jb     8603 <_ZN5alloc5slice10merge_sort17hace5e096142591f3E+0x803>
    80e0:	48 83 fd 02          	cmp    $0x2,%rbp
    80e4:	72 65                	jb     814b <_ZN5alloc5slice10merge_sort17hace5e096142591f3E+0x34b>
    80e6:	44 8b 44 87 fc       	mov    -0x4(%rdi,%rax,4),%r8d
    80eb:	8b 0c 87             	mov    (%rdi,%rax,4),%ecx
    80ee:	44 39 c1             	cmp    %r8d,%ecx
    80f1:	7d 58                	jge    814b <_ZN5alloc5slice10merge_sort17hace5e096142591f3E+0x34b>
    80f3:	49 89 d1             	mov    %rdx,%r9
    80f6:	48 89 fa             	mov    %rdi,%rdx
    80f9:	48 8d 3c 87          	lea    (%rdi,%rax,4),%rdi
    80fd:	89 4c 82 fc          	mov    %ecx,-0x4(%rdx,%rax,4)
    8101:	48 83 fd 03          	cmp    $0x3,%rbp
    8105:	72 39                	jb     8140 <_ZN5alloc5slice10merge_sort17hace5e096142591f3E+0x340>
    8107:	8b 54 82 04          	mov    0x4(%rdx,%rax,4),%edx
    810b:	44 39 c2             	cmp    %r8d,%edx
    810e:	7d 30                	jge    8140 <_ZN5alloc5slice10merge_sort17hace5e096142591f3E+0x340>
    8110:	b8 03 00 00 00       	mov    $0x3,%eax
    8115:	48 89 d9             	mov    %rbx,%rcx
    8118:	0f 1f 84 00 00 00 00 	nopl   0x0(%rax,%rax,1)
    811f:	00 
    8120:	48 89 cf             	mov    %rcx,%rdi
    8123:	89 51 fc             	mov    %edx,-0x4(%rcx)
    8126:	48 39 e8             	cmp    %rbp,%rax
    8129:	73 15                	jae    8140 <_ZN5alloc5slice10merge_sort17hace5e096142591f3E+0x340>
    812b:	48 83 c0 01          	add    $0x1,%rax
    812f:	48 8d 4f 04          	lea    0x4(%rdi),%rcx
    8133:	8b 57 04             	mov    0x4(%rdi),%edx
    8136:	44 39 c2             	cmp    %r8d,%edx
    8139:	7c e5                	jl     8120 <_ZN5alloc5slice10merge_sort17hace5e096142591f3E+0x320>
    813b:	0f 1f 44 00 00       	nopl   0x0(%rax,%rax,1)
    8140:	44 89 07             	mov    %r8d,(%rdi)
    8143:	48 8b 7c 24 08       	mov    0x8(%rsp),%rdi
    8148:	4c 89 ca             	mov    %r9,%rdx
    814b:	48 85 d2             	test   %rdx,%rdx
    814e:	74 20                	je     8170 <_ZN5alloc5slice10merge_sort17hace5e096142591f3E+0x370>
    8150:	48 83 c3 fc          	add    $0xfffffffffffffffc,%rbx
    8154:	48 89 d0             	mov    %rdx,%rax
    8157:	48 83 fd 0a          	cmp    $0xa,%rbp
    815b:	0f 82 6f ff ff ff    	jb     80d0 <_ZN5alloc5slice10merge_sort17hace5e096142591f3E+0x2d0>
    8161:	66 2e 0f 1f 84 00 00 	nopw   %cs:0x0(%rax,%rax,1)
    8168:	00 00 00 
    816b:	0f 1f 44 00 00       	nopl   0x0(%rax,%rax,1)
    8170:	4c 39 6c 24 28       	cmp    %r13,0x28(%rsp)
    8175:	0f 85 9d 00 00 00    	jne    8218 <_ZN5alloc5slice10merge_sort17hace5e096142591f3E+0x418>
    817b:	4d 89 ef             	mov    %r13,%r15
    817e:	49 83 c7 01          	add    $0x1,%r15
    8182:	0f 82 86 04 00 00    	jb     860e <_ZN5alloc5slice10merge_sort17hace5e096142591f3E+0x80e>
    8188:	48 89 d3             	mov    %rdx,%rbx
    818b:	4c 89 e8             	mov    %r13,%rax
    818e:	4c 01 e8             	add    %r13,%rax
    8191:	49 39 c7             	cmp    %rax,%r15
    8194:	4c 0f 42 f8          	cmovb  %rax,%r15
    8198:	4c 89 f8             	mov    %r15,%rax
    819b:	b9 10 00 00 00       	mov    $0x10,%ecx
    81a0:	48 f7 e1             	mul    %rcx
    81a3:	0f 80 65 04 00 00    	jo     860e <_ZN5alloc5slice10merge_sort17hace5e096142591f3E+0x80e>
    81a9:	49 89 c6             	mov    %rax,%r14
    81ac:	4d 85 ed             	test   %r13,%r13
    81af:	74 3b                	je     81ec <_ZN5alloc5slice10merge_sort17hace5e096142591f3E+0x3ec>
    81b1:	4c 89 ee             	mov    %r13,%rsi
    81b4:	48 c1 e6 04          	shl    $0x4,%rsi
    81b8:	ba 08 00 00 00       	mov    $0x8,%edx
    81bd:	4c 89 e7             	mov    %r12,%rdi
    81c0:	4c 89 f1             	mov    %r14,%rcx
    81c3:	ff 15 d7 07 23 00    	callq  *0x2307d7(%rip)        # 2389a0 <_GLOBAL_OFFSET_TABLE_+0x48>
    81c9:	49 89 c4             	mov    %rax,%r12
    81cc:	48 85 c0             	test   %rax,%rax
    81cf:	75 35                	jne    8206 <_ZN5alloc5slice10merge_sort17hace5e096142591f3E+0x406>
    81d1:	e9 67 04 00 00       	jmpq   863d <_ZN5alloc5slice10merge_sort17hace5e096142591f3E+0x83d>
    81d6:	66 2e 0f 1f 84 00 00 	nopw   %cs:0x0(%rax,%rax,1)
    81dd:	00 00 00 
    81e0:	48 89 c2             	mov    %rax,%rdx
    81e3:	4c 39 6c 24 28       	cmp    %r13,0x28(%rsp)
    81e8:	74 91                	je     817b <_ZN5alloc5slice10merge_sort17hace5e096142591f3E+0x37b>
    81ea:	eb 2c                	jmp    8218 <_ZN5alloc5slice10merge_sort17hace5e096142591f3E+0x418>
    81ec:	be 08 00 00 00       	mov    $0x8,%esi
    81f1:	4c 89 f7             	mov    %r14,%rdi
    81f4:	ff 15 3e 0b 23 00    	callq  *0x230b3e(%rip)        # 238d38 <_GLOBAL_OFFSET_TABLE_+0x3e0>
    81fa:	49 89 c4             	mov    %rax,%r12
    81fd:	48 85 c0             	test   %rax,%rax
    8200:	0f 84 37 04 00 00    	je     863d <_ZN5alloc5slice10merge_sort17hace5e096142591f3E+0x83d>
    8206:	48 89 da             	mov    %rbx,%rdx
    8209:	4c 89 64 24 20       	mov    %r12,0x20(%rsp)
    820e:	4c 89 7c 24 28       	mov    %r15,0x28(%rsp)
    8213:	4c 8b 7c 24 10       	mov    0x10(%rsp),%r15
    8218:	4c 89 e8             	mov    %r13,%rax
    821b:	48 c1 e0 04          	shl    $0x4,%rax
    821f:	48 89 54 24 60       	mov    %rdx,0x60(%rsp)
    8224:	49 89 14 04          	mov    %rdx,(%r12,%rax,1)
    8228:	49 89 6c 04 08       	mov    %rbp,0x8(%r12,%rax,1)
    822d:	49 83 c5 01          	add    $0x1,%r13
    8231:	4c 89 6c 24 30       	mov    %r13,0x30(%rsp)
    8236:	49 83 fd 02          	cmp    $0x2,%r13
    823a:	0f 82 cb 02 00 00    	jb     850b <_ZN5alloc5slice10merge_sort17hace5e096142591f3E+0x70b>
    8240:	49 8d 6d ff          	lea    -0x1(%r13),%rbp
    8244:	48 c1 e5 04          	shl    $0x4,%rbp
    8248:	49 83 3c 2c 00       	cmpq   $0x0,(%r12,%rbp,1)
    824d:	74 61                	je     82b0 <_ZN5alloc5slice10merge_sort17hace5e096142591f3E+0x4b0>
    824f:	4c 89 ea             	mov    %r13,%rdx
    8252:	48 c1 e2 04          	shl    $0x4,%rdx
    8256:	49 8b 7c 14 e8       	mov    -0x18(%r12,%rdx,1),%rdi
    825b:	49 8b 44 2c 08       	mov    0x8(%r12,%rbp,1),%rax
    8260:	48 39 c7             	cmp    %rax,%rdi
    8263:	76 4b                	jbe    82b0 <_ZN5alloc5slice10merge_sort17hace5e096142591f3E+0x4b0>
    8265:	49 83 fd 02          	cmp    $0x2,%r13
    8269:	0f 86 b1 02 00 00    	jbe    8520 <_ZN5alloc5slice10merge_sort17hace5e096142591f3E+0x720>
    826f:	49 8d 75 fd          	lea    -0x3(%r13),%rsi
    8273:	48 89 f1             	mov    %rsi,%rcx
    8276:	48 c1 e1 04          	shl    $0x4,%rcx
    827a:	49 8b 4c 0c 08       	mov    0x8(%r12,%rcx,1),%rcx
    827f:	48 8d 2c 38          	lea    (%rax,%rdi,1),%rbp
    8283:	48 39 e9             	cmp    %rbp,%rcx
    8286:	76 43                	jbe    82cb <_ZN5alloc5slice10merge_sort17hace5e096142591f3E+0x4cb>
    8288:	49 83 fd 03          	cmp    $0x3,%r13
    828c:	0f 86 a9 02 00 00    	jbe    853b <_ZN5alloc5slice10merge_sort17hace5e096142591f3E+0x73b>
    8292:	48 01 cf             	add    %rcx,%rdi
    8295:	49 39 7c 14 c8       	cmp    %rdi,-0x38(%r12,%rdx,1)
    829a:	76 2f                	jbe    82cb <_ZN5alloc5slice10merge_sort17hace5e096142591f3E+0x4cb>
    829c:	e9 6a 02 00 00       	jmpq   850b <_ZN5alloc5slice10merge_sort17hace5e096142591f3E+0x70b>
    82a1:	66 2e 0f 1f 84 00 00 	nopw   %cs:0x0(%rax,%rax,1)
    82a8:	00 00 00 
    82ab:	0f 1f 44 00 00       	nopl   0x0(%rax,%rax,1)
    82b0:	49 83 fd 03          	cmp    $0x3,%r13
    82b4:	72 1a                	jb     82d0 <_ZN5alloc5slice10merge_sort17hace5e096142591f3E+0x4d0>
    82b6:	49 8d 75 fd          	lea    -0x3(%r13),%rsi
    82ba:	48 89 f0             	mov    %rsi,%rax
    82bd:	48 c1 e0 04          	shl    $0x4,%rax
    82c1:	49 8b 4c 04 08       	mov    0x8(%r12,%rax,1),%rcx
    82c6:	49 8b 44 2c 08       	mov    0x8(%r12,%rbp,1),%rax
    82cb:	48 39 c1             	cmp    %rax,%rcx
    82ce:	72 04                	jb     82d4 <_ZN5alloc5slice10merge_sort17hace5e096142591f3E+0x4d4>
    82d0:	49 8d 75 fe          	lea    -0x2(%r13),%rsi
    82d4:	48 8d 4e 01          	lea    0x1(%rsi),%rcx
    82d8:	49 39 cd             	cmp    %rcx,%r13
    82db:	0f 86 da 02 00 00    	jbe    85bb <_ZN5alloc5slice10merge_sort17hace5e096142591f3E+0x7bb>
    82e1:	49 39 f5             	cmp    %rsi,%r13
    82e4:	48 8b 44 24 08       	mov    0x8(%rsp),%rax
    82e9:	0f 86 e1 02 00 00    	jbe    85d0 <_ZN5alloc5slice10merge_sort17hace5e096142591f3E+0x7d0>
    82ef:	48 89 ca             	mov    %rcx,%rdx
    82f2:	48 c1 e2 04          	shl    $0x4,%rdx
    82f6:	49 8b 3c 14          	mov    (%r12,%rdx,1),%rdi
    82fa:	48 89 f5             	mov    %rsi,%rbp
    82fd:	48 c1 e5 04          	shl    $0x4,%rbp
    8301:	49 8b 5c 2c 08       	mov    0x8(%r12,%rbp,1),%rbx
    8306:	4d 8b 34 2c          	mov    (%r12,%rbp,1),%r14
    830a:	49 01 de             	add    %rbx,%r14
    830d:	4d 89 f5             	mov    %r14,%r13
    8310:	49 29 fd             	sub    %rdi,%r13
    8313:	0f 82 87 02 00 00    	jb     85a0 <_ZN5alloc5slice10merge_sort17hace5e096142591f3E+0x7a0>
    8319:	4d 39 fe             	cmp    %r15,%r14
    831c:	0f 87 89 02 00 00    	ja     85ab <_ZN5alloc5slice10merge_sort17hace5e096142591f3E+0x7ab>
    8322:	48 89 5c 24 68       	mov    %rbx,0x68(%rsp)
    8327:	48 89 6c 24 70       	mov    %rbp,0x70(%rsp)
    832c:	48 89 8c 24 88 00 00 	mov    %rcx,0x88(%rsp)
    8333:	00 
    8334:	48 89 b4 24 90 00 00 	mov    %rsi,0x90(%rsp)
    833b:	00 
    833c:	48 89 94 24 80 00 00 	mov    %rdx,0x80(%rsp)
    8343:	00 
    8344:	49 8b 4c 14 08       	mov    0x8(%r12,%rdx,1),%rcx
    8349:	48 89 7c 24 78       	mov    %rdi,0x78(%rsp)
    834e:	4c 8d 24 b8          	lea    (%rax,%rdi,4),%r12
    8352:	48 8b 5c 24 40       	mov    0x40(%rsp),%rbx
    8357:	49 8d 2c 8c          	lea    (%r12,%rcx,4),%rbp
    835b:	4d 89 ef             	mov    %r13,%r15
    835e:	49 29 cf             	sub    %rcx,%r15
    8361:	49 39 cf             	cmp    %rcx,%r15
    8364:	48 89 4c 24 18       	mov    %rcx,0x18(%rsp)
    8369:	0f 83 81 00 00 00    	jae    83f0 <_ZN5alloc5slice10merge_sort17hace5e096142591f3E+0x5f0>
    836f:	4a 8d 14 bd 00 00 00 	lea    0x0(,%r15,4),%rdx
    8376:	00 
    8377:	48 89 df             	mov    %rbx,%rdi
    837a:	48 89 ee             	mov    %rbp,%rsi
    837d:	ff 15 f5 0b 23 00    	callq  *0x230bf5(%rip)        # 238f78 <_GLOBAL_OFFSET_TABLE_+0x620>
    8383:	4a 8d 14 bb          	lea    (%rbx,%r15,4),%rdx
    8387:	48 83 7c 24 18 00    	cmpq   $0x0,0x18(%rsp)
    838d:	0f 8e dd 00 00 00    	jle    8470 <_ZN5alloc5slice10merge_sort17hace5e096142591f3E+0x670>
    8393:	4d 85 ff             	test   %r15,%r15
    8396:	0f 8e d4 00 00 00    	jle    8470 <_ZN5alloc5slice10merge_sort17hace5e096142591f3E+0x670>
    839c:	48 8b 44 24 38       	mov    0x38(%rsp),%rax
    83a1:	4a 8d 04 b0          	lea    (%rax,%r14,4),%rax
    83a5:	4c 8b 7c 24 10       	mov    0x10(%rsp),%r15
    83aa:	66 0f 1f 44 00 00    	nopw   0x0(%rax,%rax,1)
    83b0:	48 89 e9             	mov    %rbp,%rcx
    83b3:	49 89 d0             	mov    %rdx,%r8
    83b6:	48 8d 6d fc          	lea    -0x4(%rbp),%rbp
    83ba:	8b 7a fc             	mov    -0x4(%rdx),%edi
    83bd:	48 83 c2 fc          	add    $0xfffffffffffffffc,%rdx
    83c1:	8b 71 fc             	mov    -0x4(%rcx),%esi
    83c4:	39 f7                	cmp    %esi,%edi
    83c6:	49 0f 4c d0          	cmovl  %r8,%rdx
    83ca:	48 0f 4d e9          	cmovge %rcx,%rbp
    83ce:	0f 4c fe             	cmovl  %esi,%edi
    83d1:	89 38                	mov    %edi,(%rax)
    83d3:	49 39 ec             	cmp    %rbp,%r12
    83d6:	73 09                	jae    83e1 <_ZN5alloc5slice10merge_sort17hace5e096142591f3E+0x5e1>
    83d8:	48 83 c0 fc          	add    $0xfffffffffffffffc,%rax
    83dc:	48 39 d3             	cmp    %rdx,%rbx
    83df:	72 cf                	jb     83b0 <_ZN5alloc5slice10merge_sort17hace5e096142591f3E+0x5b0>
    83e1:	49 89 ec             	mov    %rbp,%r12
    83e4:	e9 8f 00 00 00       	jmpq   8478 <_ZN5alloc5slice10merge_sort17hace5e096142591f3E+0x678>
    83e9:	0f 1f 80 00 00 00 00 	nopl   0x0(%rax)
    83f0:	48 8d 14 8d 00 00 00 	lea    0x0(,%rcx,4),%rdx
    83f7:	00 
    83f8:	48 89 df             	mov    %rbx,%rdi
    83fb:	4c 89 e6             	mov    %r12,%rsi
    83fe:	ff 15 74 0b 23 00    	callq  *0x230b74(%rip)        # 238f78 <_GLOBAL_OFFSET_TABLE_+0x620>
    8404:	48 8b 44 24 18       	mov    0x18(%rsp),%rax
    8409:	48 8d 14 83          	lea    (%rbx,%rax,4),%rdx
    840d:	48 85 c0             	test   %rax,%rax
    8410:	7e 61                	jle    8473 <_ZN5alloc5slice10merge_sort17hace5e096142591f3E+0x673>
    8412:	49 39 c5             	cmp    %rax,%r13
    8415:	4c 8b 7c 24 10       	mov    0x10(%rsp),%r15
    841a:	7e 5c                	jle    8478 <_ZN5alloc5slice10merge_sort17hace5e096142591f3E+0x678>
    841c:	48 8b 44 24 08       	mov    0x8(%rsp),%rax
    8421:	4e 8d 04 b0          	lea    (%rax,%r14,4),%r8
    8425:	66 2e 0f 1f 84 00 00 	nopw   %cs:0x0(%rax,%rax,1)
    842c:	00 00 00 
    842f:	90                   	nop
    8430:	48 89 e9             	mov    %rbp,%rcx
    8433:	48 89 de             	mov    %rbx,%rsi
    8436:	8b 7d 00             	mov    0x0(%rbp),%edi
    8439:	8b 03                	mov    (%rbx),%eax
    843b:	48 8d 6d 04          	lea    0x4(%rbp),%rbp
    843f:	48 83 c3 04          	add    $0x4,%rbx
    8443:	39 c7                	cmp    %eax,%edi
    8445:	48 0f 4c de          	cmovl  %rsi,%rbx
    8449:	48 0f 4d e9          	cmovge %rcx,%rbp
    844d:	0f 4e c7             	cmovle %edi,%eax
    8450:	41 89 04 24          	mov    %eax,(%r12)
    8454:	4d 8d 64 24 04       	lea    0x4(%r12),%r12
    8459:	4c 39 c5             	cmp    %r8,%rbp
    845c:	73 1a                	jae    8478 <_ZN5alloc5slice10merge_sort17hace5e096142591f3E+0x678>
    845e:	48 39 da             	cmp    %rbx,%rdx
    8461:	77 cd                	ja     8430 <_ZN5alloc5slice10merge_sort17hace5e096142591f3E+0x630>
    8463:	eb 13                	jmp    8478 <_ZN5alloc5slice10merge_sort17hace5e096142591f3E+0x678>
    8465:	66 2e 0f 1f 84 00 00 	nopw   %cs:0x0(%rax,%rax,1)
    846c:	00 00 00 
    846f:	90                   	nop
    8470:	49 89 ec             	mov    %rbp,%r12
    8473:	4c 8b 7c 24 10       	mov    0x10(%rsp),%r15
    8478:	48 29 da             	sub    %rbx,%rdx
    847b:	48 83 e2 fc          	and    $0xfffffffffffffffc,%rdx
    847f:	4c 89 e7             	mov    %r12,%rdi
    8482:	48 89 de             	mov    %rbx,%rsi
    8485:	ff 15 ed 0a 23 00    	callq  *0x230aed(%rip)        # 238f78 <_GLOBAL_OFFSET_TABLE_+0x620>
    848b:	4c 8b 6c 24 30       	mov    0x30(%rsp),%r13
    8490:	48 8b b4 24 90 00 00 	mov    0x90(%rsp),%rsi
    8497:	00 
    8498:	49 39 f5             	cmp    %rsi,%r13
    849b:	0f 86 41 01 00 00    	jbe    85e2 <_ZN5alloc5slice10merge_sort17hace5e096142591f3E+0x7e2>
    84a1:	4c 8b 64 24 20       	mov    0x20(%rsp),%r12
    84a6:	48 8b 54 24 68       	mov    0x68(%rsp),%rdx
    84ab:	48 03 54 24 18       	add    0x18(%rsp),%rdx
    84b0:	48 8b 44 24 78       	mov    0x78(%rsp),%rax
    84b5:	48 8b 4c 24 70       	mov    0x70(%rsp),%rcx
    84ba:	49 89 04 0c          	mov    %rax,(%r12,%rcx,1)
    84be:	49 89 54 0c 08       	mov    %rdx,0x8(%r12,%rcx,1)
    84c3:	48 8b 94 24 88 00 00 	mov    0x88(%rsp),%rdx
    84ca:	00 
    84cb:	49 39 d5             	cmp    %rdx,%r13
    84ce:	0f 86 20 01 00 00    	jbe    85f4 <_ZN5alloc5slice10merge_sort17hace5e096142591f3E+0x7f4>
    84d4:	48 8b 84 24 80 00 00 	mov    0x80(%rsp),%rax
    84db:	00 
    84dc:	49 8d 3c 04          	lea    (%r12,%rax,1),%rdi
    84e0:	49 8d 34 04          	lea    (%r12,%rax,1),%rsi
    84e4:	48 83 c6 10          	add    $0x10,%rsi
    84e8:	48 f7 d2             	not    %rdx
    84eb:	4c 01 ea             	add    %r13,%rdx
    84ee:	48 c1 e2 04          	shl    $0x4,%rdx
    84f2:	ff 15 50 08 23 00    	callq  *0x230850(%rip)        # 238d48 <_GLOBAL_OFFSET_TABLE_+0x3f0>
    84f8:	49 83 c5 ff          	add    $0xffffffffffffffff,%r13
    84fc:	4c 89 6c 24 30       	mov    %r13,0x30(%rsp)
    8501:	49 83 fd 01          	cmp    $0x1,%r13
    8505:	0f 87 35 fd ff ff    	ja     8240 <_ZN5alloc5slice10merge_sort17hace5e096142591f3E+0x440>
    850b:	48 8b 74 24 60       	mov    0x60(%rsp),%rsi
    8510:	48 85 f6             	test   %rsi,%rsi
    8513:	48 8b 7c 24 08       	mov    0x8(%rsp),%rdi
    8518:	0f 85 42 fa ff ff    	jne    7f60 <_ZN5alloc5slice10merge_sort17hace5e096142591f3E+0x160>
    851e:	eb 34                	jmp    8554 <_ZN5alloc5slice10merge_sort17hace5e096142591f3E+0x754>
    8520:	41 bd 02 00 00 00    	mov    $0x2,%r13d
    8526:	48 8b 74 24 60       	mov    0x60(%rsp),%rsi
    852b:	48 85 f6             	test   %rsi,%rsi
    852e:	48 8b 7c 24 08       	mov    0x8(%rsp),%rdi
    8533:	0f 85 27 fa ff ff    	jne    7f60 <_ZN5alloc5slice10merge_sort17hace5e096142591f3E+0x160>
    8539:	eb 19                	jmp    8554 <_ZN5alloc5slice10merge_sort17hace5e096142591f3E+0x754>
    853b:	41 bd 03 00 00 00    	mov    $0x3,%r13d
    8541:	48 8b 74 24 60       	mov    0x60(%rsp),%rsi
    8546:	48 85 f6             	test   %rsi,%rsi
    8549:	48 8b 7c 24 08       	mov    0x8(%rsp),%rdi
    854e:	0f 85 0c fa ff ff    	jne    7f60 <_ZN5alloc5slice10merge_sort17hace5e096142591f3E+0x160>
    8554:	48 8b 74 24 28       	mov    0x28(%rsp),%rsi
    8559:	48 85 f6             	test   %rsi,%rsi
    855c:	74 12                	je     8570 <_ZN5alloc5slice10merge_sort17hace5e096142591f3E+0x770>
    855e:	48 c1 e6 04          	shl    $0x4,%rsi
    8562:	ba 08 00 00 00       	mov    $0x8,%edx
    8567:	4c 89 e7             	mov    %r12,%rdi
    856a:	ff 15 d8 05 23 00    	callq  *0x2305d8(%rip)        # 238b48 <_GLOBAL_OFFSET_TABLE_+0x1f0>
    8570:	48 8b 74 24 48       	mov    0x48(%rsp),%rsi
    8575:	48 85 f6             	test   %rsi,%rsi
    8578:	74 14                	je     858e <_ZN5alloc5slice10merge_sort17hace5e096142591f3E+0x78e>
    857a:	48 8b 7c 24 40       	mov    0x40(%rsp),%rdi
    857f:	48 c1 e6 02          	shl    $0x2,%rsi
    8583:	ba 04 00 00 00       	mov    $0x4,%edx
    8588:	ff 15 ba 05 23 00    	callq  *0x2305ba(%rip)        # 238b48 <_GLOBAL_OFFSET_TABLE_+0x1f0>
    858e:	48 81 c4 98 00 00 00 	add    $0x98,%rsp
    8595:	5b                   	pop    %rbx
    8596:	41 5c                	pop    %r12
    8598:	41 5d                	pop    %r13
    859a:	41 5e                	pop    %r14
    859c:	41 5f                	pop    %r15
    859e:	5d                   	pop    %rbp
    859f:	c3                   	retq   
    85a0:	4c 89 f6             	mov    %r14,%rsi
    85a3:	ff 15 07 08 23 00    	callq  *0x230807(%rip)        # 238db0 <_GLOBAL_OFFSET_TABLE_+0x458>
    85a9:	eb 61                	jmp    860c <_ZN5alloc5slice10merge_sort17hace5e096142591f3E+0x80c>
    85ab:	4c 89 f7             	mov    %r14,%rdi
    85ae:	48 8b 74 24 10       	mov    0x10(%rsp),%rsi
    85b3:	ff 15 f7 09 23 00    	callq  *0x2309f7(%rip)        # 238fb0 <_GLOBAL_OFFSET_TABLE_+0x658>
    85b9:	eb 51                	jmp    860c <_ZN5alloc5slice10merge_sort17hace5e096142591f3E+0x80c>
    85bb:	48 8d 3d 2e e4 22 00 	lea    0x22e42e(%rip),%rdi        # 2369f0 <debug_section_names+0x50>
    85c2:	48 89 ce             	mov    %rcx,%rsi
    85c5:	4c 89 ea             	mov    %r13,%rdx
    85c8:	ff 15 32 05 23 00    	callq  *0x230532(%rip)        # 238b00 <_GLOBAL_OFFSET_TABLE_+0x1a8>
    85ce:	eb 3c                	jmp    860c <_ZN5alloc5slice10merge_sort17hace5e096142591f3E+0x80c>
    85d0:	48 8d 3d 19 e4 22 00 	lea    0x22e419(%rip),%rdi        # 2369f0 <debug_section_names+0x50>
    85d7:	4c 89 ea             	mov    %r13,%rdx
    85da:	ff 15 20 05 23 00    	callq  *0x230520(%rip)        # 238b00 <_GLOBAL_OFFSET_TABLE_+0x1a8>
    85e0:	eb 2a                	jmp    860c <_ZN5alloc5slice10merge_sort17hace5e096142591f3E+0x80c>
    85e2:	48 8d 3d 1f e4 22 00 	lea    0x22e41f(%rip),%rdi        # 236a08 <debug_section_names+0x68>
    85e9:	4c 89 ea             	mov    %r13,%rdx
    85ec:	ff 15 0e 05 23 00    	callq  *0x23050e(%rip)        # 238b00 <_GLOBAL_OFFSET_TABLE_+0x1a8>
    85f2:	eb 18                	jmp    860c <_ZN5alloc5slice10merge_sort17hace5e096142591f3E+0x80c>
    85f4:	48 8d 3d 55 e4 22 00 	lea    0x22e455(%rip),%rdi        # 236a50 <anon.62699569b315e42dcf2e25390e604531.2.llvm.5708525058631933581>
    85fb:	ff 15 c7 09 23 00    	callq  *0x2309c7(%rip)        # 238fc8 <_GLOBAL_OFFSET_TABLE_+0x670>
    8601:	eb 09                	jmp    860c <_ZN5alloc5slice10merge_sort17hace5e096142591f3E+0x80c>
    8603:	48 89 d7             	mov    %rdx,%rdi
    8606:	ff 15 a4 07 23 00    	callq  *0x2307a4(%rip)        # 238db0 <_GLOBAL_OFFSET_TABLE_+0x458>
    860c:	0f 0b                	ud2    
    860e:	ff 15 cc 09 23 00    	callq  *0x2309cc(%rip)        # 238fe0 <_GLOBAL_OFFSET_TABLE_+0x688>
    8614:	eb f6                	jmp    860c <_ZN5alloc5slice10merge_sort17hace5e096142591f3E+0x80c>
    8616:	4c 89 fe             	mov    %r15,%rsi
    8619:	ff 15 91 07 23 00    	callq  *0x230791(%rip)        # 238db0 <_GLOBAL_OFFSET_TABLE_+0x458>
    861f:	eb eb                	jmp    860c <_ZN5alloc5slice10merge_sort17hace5e096142591f3E+0x80c>
    8621:	48 83 c0 ff          	add    $0xffffffffffffffff,%rax
    8625:	48 89 c7             	mov    %rax,%rdi
    8628:	48 39 c6             	cmp    %rax,%rsi
    862b:	72 d9                	jb     8606 <_ZN5alloc5slice10merge_sort17hace5e096142591f3E+0x806>
    862d:	48 89 f7             	mov    %rsi,%rdi
    8630:	48 8b 74 24 10       	mov    0x10(%rsp),%rsi
    8635:	ff 15 75 09 23 00    	callq  *0x230975(%rip)        # 238fb0 <_GLOBAL_OFFSET_TABLE_+0x658>
    863b:	eb cf                	jmp    860c <_ZN5alloc5slice10merge_sort17hace5e096142591f3E+0x80c>
    863d:	be 08 00 00 00       	mov    $0x8,%esi
    8642:	4c 89 f7             	mov    %r14,%rdi
    8645:	ff 15 7d 05 23 00    	callq  *0x23057d(%rip)        # 238bc8 <_GLOBAL_OFFSET_TABLE_+0x270>
    864b:	0f 0b                	ud2    
    864d:	4c 29 c7             	sub    %r8,%rdi
    8650:	ff 15 5a 07 23 00    	callq  *0x23075a(%rip)        # 238db0 <_GLOBAL_OFFSET_TABLE_+0x458>
    8656:	eb b4                	jmp    860c <_ZN5alloc5slice10merge_sort17hace5e096142591f3E+0x80c>
    8658:	48 89 f7             	mov    %rsi,%rdi
    865b:	4c 89 fe             	mov    %r15,%rsi
    865e:	ff 15 4c 09 23 00    	callq  *0x23094c(%rip)        # 238fb0 <_GLOBAL_OFFSET_TABLE_+0x658>
    8664:	eb a6                	jmp    860c <_ZN5alloc5slice10merge_sort17hace5e096142591f3E+0x80c>
    8666:	e8 45 00 00 00       	callq  86b0 <_ZN49_$LT$alloc..raw_vec..RawVec$LT$T$C$$u20$A$GT$$GT$11allocate_in28_$u7b$$u7b$closure$u7d$$u7d$17h38f10f7db0d93e17E.llvm.17064107920236186822>
    866b:	eb 9f                	jmp    860c <_ZN5alloc5slice10merge_sort17hace5e096142591f3E+0x80c>
    866d:	be 04 00 00 00       	mov    $0x4,%esi
    8672:	48 89 ef             	mov    %rbp,%rdi
    8675:	ff 15 4d 05 23 00    	callq  *0x23054d(%rip)        # 238bc8 <_GLOBAL_OFFSET_TABLE_+0x270>
    867b:	0f 0b                	ud2    
    867d:	48 89 c3             	mov    %rax,%rbx
    8680:	48 89 df             	mov    %rbx,%rdi
    8683:	e8 e0 f4 ff ff       	callq  7b68 <_init+0xf0>
    8688:	0f 0b                	ud2    
    868a:	eb 02                	jmp    868e <_ZN5alloc5slice10merge_sort17hace5e096142591f3E+0x88e>
    868c:	eb 00                	jmp    868e <_ZN5alloc5slice10merge_sort17hace5e096142591f3E+0x88e>
    868e:	48 89 c3             	mov    %rax,%rbx
    8691:	48 8d 7c 24 20       	lea    0x20(%rsp),%rdi
    8696:	e8 25 f7 ff ff       	callq  7dc0 <_ZN4core3ptr18real_drop_in_place17h18c1e8bf55f7eb7eE>
    869b:	48 8d 7c 24 40       	lea    0x40(%rsp),%rdi
    86a0:	e8 3b f7 ff ff       	callq  7de0 <_ZN4core3ptr18real_drop_in_place17h726b38b54d559f60E>
    86a5:	48 89 df             	mov    %rbx,%rdi
    86a8:	e8 bb f4 ff ff       	callq  7b68 <_init+0xf0>
    86ad:	0f 0b                	ud2    
    86af:	90                   	nop

00000000000086b0 <_ZN49_$LT$alloc..raw_vec..RawVec$LT$T$C$$u20$A$GT$$GT$11allocate_in28_$u7b$$u7b$closure$u7d$$u7d$17h38f10f7db0d93e17E.llvm.17064107920236186822>:
    86b0:	50                   	push   %rax
    86b1:	ff 15 29 09 23 00    	callq  *0x230929(%rip)        # 238fe0 <_GLOBAL_OFFSET_TABLE_+0x688>
    86b7:	0f 0b                	ud2    
    86b9:	0f 1f 80 00 00 00 00 	nopl   0x0(%rax)

00000000000086c0 <_ZN42_$LT$$RF$T$u20$as$u20$core..fmt..Debug$GT$3fmt17h948f81a755554d60E>:
    86c0:	48 8b 3f             	mov    (%rdi),%rdi
    86c3:	ff 25 67 07 23 00    	jmpq   *0x230767(%rip)        # 238e30 <_GLOBAL_OFFSET_TABLE_+0x4d8>
    86c9:	0f 1f 80 00 00 00 00 	nopl   0x0(%rax)

00000000000086d0 <_ZN3std2rt10lang_start28_$u7b$$u7b$closure$u7d$$u7d$17h5c8e90aead8fb500E>:
    86d0:	50                   	push   %rax
    86d1:	ff 17                	callq  *(%rdi)
    86d3:	31 c0                	xor    %eax,%eax
    86d5:	59                   	pop    %rcx
    86d6:	c3                   	retq   
    86d7:	66 0f 1f 84 00 00 00 	nopw   0x0(%rax,%rax,1)
    86de:	00 00 

00000000000086e0 <_ZN4core3ops8function6FnOnce9call_once32_$u7b$$u7b$vtable.shim$u7d$$u7d$17hf5aa359727302009E>:
    86e0:	50                   	push   %rax
    86e1:	ff 17                	callq  *(%rdi)
    86e3:	31 c0                	xor    %eax,%eax
    86e5:	59                   	pop    %rcx
    86e6:	c3                   	retq   
    86e7:	66 0f 1f 84 00 00 00 	nopw   0x0(%rax,%rax,1)
    86ee:	00 00 

00000000000086f0 <_ZN4core3ptr18real_drop_in_place17h98241d1cf9bee886E>:
    86f0:	c3                   	retq   
    86f1:	66 2e 0f 1f 84 00 00 	nopw   %cs:0x0(%rax,%rax,1)
    86f8:	00 00 00 
    86fb:	0f 1f 44 00 00       	nopl   0x0(%rax,%rax,1)

0000000000008700 <_ZN42_$LT$$RF$T$u20$as$u20$core..fmt..Debug$GT$3fmt17h1b4d3ea1a623d6dfE>:
    8700:	48 8b 3f             	mov    (%rdi),%rdi
    8703:	ff 25 2f 05 23 00    	jmpq   *0x23052f(%rip)        # 238c38 <_GLOBAL_OFFSET_TABLE_+0x2e0>
    8709:	0f 1f 80 00 00 00 00 	nopl   0x0(%rax)

0000000000008710 <_ZN4core3ptr18real_drop_in_place17h726b38b54d559f60E>:
    8710:	48 8b 77 08          	mov    0x8(%rdi),%rsi
    8714:	48 85 f6             	test   %rsi,%rsi
    8717:	74 12                	je     872b <_ZN4core3ptr18real_drop_in_place17h726b38b54d559f60E+0x1b>
    8719:	48 8b 3f             	mov    (%rdi),%rdi
    871c:	48 c1 e6 02          	shl    $0x2,%rsi
    8720:	ba 04 00 00 00       	mov    $0x4,%edx
    8725:	ff 25 1d 04 23 00    	jmpq   *0x23041d(%rip)        # 238b48 <_GLOBAL_OFFSET_TABLE_+0x1f0>
    872b:	c3                   	retq   
    872c:	0f 1f 40 00          	nopl   0x0(%rax)

0000000000008730 <_ZN7sortvec4main17h0a900dcfd534bec0E>:
    8730:	55                   	push   %rbp
    8731:	41 57                	push   %r15
    8733:	41 56                	push   %r14
    8735:	41 55                	push   %r13
    8737:	41 54                	push   %r12
    8739:	53                   	push   %rbx
    873a:	48 81 ec a8 00 00 00 	sub    $0xa8,%rsp
    8741:	bf 08 00 00 00       	mov    $0x8,%edi
    8746:	be 04 00 00 00       	mov    $0x4,%esi
    874b:	ff 15 e7 05 23 00    	callq  *0x2305e7(%rip)        # 238d38 <_GLOBAL_OFFSET_TABLE_+0x3e0>
    8751:	48 85 c0             	test   %rax,%rax
    8754:	0f 84 ad 02 00 00    	je     8a07 <_ZN7sortvec4main17h0a900dcfd534bec0E+0x2d7>
    875a:	49 89 c6             	mov    %rax,%r14
    875d:	48 c7 00 00 00 00 00 	movq   $0x0,(%rax)
    8764:	48 89 04 24          	mov    %rax,(%rsp)
    8768:	0f 28 05 71 21 02 00 	movaps 0x22171(%rip),%xmm0        # 2a8e0 <str.1+0x60>
    876f:	0f 11 44 24 08       	movups %xmm0,0x8(%rsp)
    8774:	ff 15 c6 06 23 00    	callq  *0x2306c6(%rip)        # 238e40 <_GLOBAL_OFFSET_TABLE_+0x4e8>
    877a:	48 89 44 24 50       	mov    %rax,0x50(%rsp)
    877f:	48 89 54 24 58       	mov    %rdx,0x58(%rsp)
    8784:	41 bf 02 00 00 00    	mov    $0x2,%r15d
    878a:	41 bd 02 00 00 00    	mov    $0x2,%r13d
    8790:	ff 15 62 02 23 00    	callq  *0x230262(%rip)        # 2389f8 <_GLOBAL_OFFSET_TABLE_+0xa0>
    8796:	48 89 c3             	mov    %rax,%rbx
    8799:	48 8b 00             	mov    (%rax),%rax
    879c:	48 83 f8 40          	cmp    $0x40,%rax
    87a0:	72 75                	jb     8817 <_ZN7sortvec4main17h0a900dcfd534bec0E+0xe7>
    87a2:	ff 15 98 04 23 00    	callq  *0x230498(%rip)        # 238c40 <_GLOBAL_OFFSET_TABLE_+0x2e8>
    87a8:	48 8d 6b 08          	lea    0x8(%rbx),%rbp
    87ac:	49 89 dc             	mov    %rbx,%r12
    87af:	49 81 c4 10 01 00 00 	add    $0x110,%r12
    87b6:	48 8b 8b 48 01 00 00 	mov    0x148(%rbx),%rcx
    87bd:	48 85 c9             	test   %rcx,%rcx
    87c0:	7e 3e                	jle    8800 <_ZN7sortvec4main17h0a900dcfd534bec0E+0xd0>
    87c2:	48 39 83 50 01 00 00 	cmp    %rax,0x150(%rbx)
    87c9:	78 35                	js     8800 <_ZN7sortvec4main17h0a900dcfd534bec0E+0xd0>
    87cb:	48 81 c1 00 ff ff ff 	add    $0xffffffffffffff00,%rcx
    87d2:	48 89 8b 48 01 00 00 	mov    %rcx,0x148(%rbx)
    87d9:	48 8d 3d e0 22 02 00 	lea    0x222e0(%rip),%rdi        # 2aac0 <_ZN9c2_chacha4guts11init_chacha4IMPL17h738abe021d6dc430E>
    87e0:	ff 15 da 04 23 00    	callq  *0x2304da(%rip)        # 238cc0 <_GLOBAL_OFFSET_TABLE_+0x368>
    87e6:	4c 89 e7             	mov    %r12,%rdi
    87e9:	be 0a 00 00 00       	mov    $0xa,%esi
    87ee:	48 89 ea             	mov    %rbp,%rdx
    87f1:	ff 10                	callq  *(%rax)
    87f3:	eb 19                	jmp    880e <_ZN7sortvec4main17h0a900dcfd534bec0E+0xde>
    87f5:	66 2e 0f 1f 84 00 00 	nopw   %cs:0x0(%rax,%rax,1)
    87fc:	00 00 00 
    87ff:	90                   	nop
    8800:	4c 89 e7             	mov    %r12,%rdi
    8803:	48 89 ee             	mov    %rbp,%rsi
    8806:	48 89 c2             	mov    %rax,%rdx
    8809:	e8 e2 02 00 00       	callq  8af0 <_ZN75_$LT$rand..rngs..adapter..reseeding..ReseedingCore$LT$R$C$$u20$Rsdr$GT$$GT$19reseed_and_generate17hef98aab269719c36E.llvm.2184163966216870454>
    880e:	48 c7 03 00 00 00 00 	movq   $0x0,(%rbx)
    8815:	31 c0                	xor    %eax,%eax
    8817:	44 8b 64 83 08       	mov    0x8(%rbx,%rax,4),%r12d
    881c:	48 83 c0 01          	add    $0x1,%rax
    8820:	48 89 03             	mov    %rax,(%rbx)
    8823:	4d 39 fd             	cmp    %r15,%r13
    8826:	75 77                	jne    889f <_ZN7sortvec4main17h0a900dcfd534bec0E+0x16f>
    8828:	4c 89 fb             	mov    %r15,%rbx
    882b:	48 83 c3 01          	add    $0x1,%rbx
    882f:	0f 82 b0 01 00 00    	jb     89e5 <_ZN7sortvec4main17h0a900dcfd534bec0E+0x2b5>
    8835:	4b 8d 04 3f          	lea    (%r15,%r15,1),%rax
    8839:	48 39 c3             	cmp    %rax,%rbx
    883c:	48 0f 42 d8          	cmovb  %rax,%rbx
    8840:	48 89 d8             	mov    %rbx,%rax
    8843:	b9 04 00 00 00       	mov    $0x4,%ecx
    8848:	48 f7 e1             	mul    %rcx
    884b:	0f 80 94 01 00 00    	jo     89e5 <_ZN7sortvec4main17h0a900dcfd534bec0E+0x2b5>
    8851:	48 89 c5             	mov    %rax,%rbp
    8854:	4d 85 ff             	test   %r15,%r15
    8857:	74 25                	je     887e <_ZN7sortvec4main17h0a900dcfd534bec0E+0x14e>
    8859:	49 c1 e7 02          	shl    $0x2,%r15
    885d:	ba 04 00 00 00       	mov    $0x4,%edx
    8862:	4c 89 f7             	mov    %r14,%rdi
    8865:	4c 89 fe             	mov    %r15,%rsi
    8868:	48 89 e9             	mov    %rbp,%rcx
    886b:	ff 15 2f 01 23 00    	callq  *0x23012f(%rip)        # 2389a0 <_GLOBAL_OFFSET_TABLE_+0x48>
    8871:	49 89 c6             	mov    %rax,%r14
    8874:	48 85 c0             	test   %rax,%rax
    8877:	75 1f                	jne    8898 <_ZN7sortvec4main17h0a900dcfd534bec0E+0x168>
    8879:	e9 79 01 00 00       	jmpq   89f7 <_ZN7sortvec4main17h0a900dcfd534bec0E+0x2c7>
    887e:	be 04 00 00 00       	mov    $0x4,%esi
    8883:	48 89 ef             	mov    %rbp,%rdi
    8886:	ff 15 ac 04 23 00    	callq  *0x2304ac(%rip)        # 238d38 <_GLOBAL_OFFSET_TABLE_+0x3e0>
    888c:	49 89 c6             	mov    %rax,%r14
    888f:	48 85 c0             	test   %rax,%rax
    8892:	0f 84 5f 01 00 00    	je     89f7 <_ZN7sortvec4main17h0a900dcfd534bec0E+0x2c7>
    8898:	4c 89 34 24          	mov    %r14,(%rsp)
    889c:	49 89 df             	mov    %rbx,%r15
    889f:	47 89 24 ae          	mov    %r12d,(%r14,%r13,4)
    88a3:	49 83 c5 01          	add    $0x1,%r13
    88a7:	41 8d 45 fe          	lea    -0x2(%r13),%eax
    88ab:	3d 00 e1 f5 05       	cmp    $0x5f5e100,%eax
    88b0:	0f 82 da fe ff ff    	jb     8790 <_ZN7sortvec4main17h0a900dcfd534bec0E+0x60>
    88b6:	4c 89 6c 24 10       	mov    %r13,0x10(%rsp)
    88bb:	4c 89 7c 24 08       	mov    %r15,0x8(%rsp)
    88c0:	48 8d 9c 24 88 00 00 	lea    0x88(%rsp),%rbx
    88c7:	00 
    88c8:	48 8d 74 24 50       	lea    0x50(%rsp),%rsi
    88cd:	48 89 df             	mov    %rbx,%rdi
    88d0:	ff 15 12 04 23 00    	callq  *0x230412(%rip)        # 238ce8 <_GLOBAL_OFFSET_TABLE_+0x390>
    88d6:	48 89 5c 24 70       	mov    %rbx,0x70(%rsp)
    88db:	4c 8d 25 ee 03 00 00 	lea    0x3ee(%rip),%r12        # 8cd0 <_ZN75_$LT$core..result..Result$LT$T$C$$u20$E$GT$$u20$as$u20$core..fmt..Debug$GT$3fmt17h0a7702a9a919068dE>
    88e2:	4c 89 64 24 78       	mov    %r12,0x78(%rsp)
    88e7:	48 8d 05 8a e1 22 00 	lea    0x22e18a(%rip),%rax        # 236a78 <anon.62699569b315e42dcf2e25390e604531.2.llvm.5708525058631933581+0x28>
    88ee:	48 89 44 24 18       	mov    %rax,0x18(%rsp)
    88f3:	48 c7 44 24 20 02 00 	movq   $0x2,0x20(%rsp)
    88fa:	00 00 
    88fc:	48 c7 44 24 28 00 00 	movq   $0x0,0x28(%rsp)
    8903:	00 00 
    8905:	48 8d 44 24 70       	lea    0x70(%rsp),%rax
    890a:	48 89 44 24 38       	mov    %rax,0x38(%rsp)
    890f:	48 c7 44 24 40 01 00 	movq   $0x1,0x40(%rsp)
    8916:	00 00 
    8918:	48 8d 7c 24 18       	lea    0x18(%rsp),%rdi
    891d:	ff 15 e5 01 23 00    	callq  *0x2301e5(%rip)        # 238b08 <_GLOBAL_OFFSET_TABLE_+0x1b0>
    8923:	ff 15 17 05 23 00    	callq  *0x230517(%rip)        # 238e40 <_GLOBAL_OFFSET_TABLE_+0x4e8>
    8929:	48 89 44 24 60       	mov    %rax,0x60(%rsp)
    892e:	48 89 54 24 68       	mov    %rdx,0x68(%rsp)
    8933:	4c 89 f7             	mov    %r14,%rdi
    8936:	4c 89 ee             	mov    %r13,%rsi
    8939:	e8 c2 f4 ff ff       	callq  7e00 <_ZN5alloc5slice10merge_sort17hace5e096142591f3E>
    893e:	48 8d 6c 24 70       	lea    0x70(%rsp),%rbp
    8943:	48 8d 74 24 60       	lea    0x60(%rsp),%rsi
    8948:	48 89 ef             	mov    %rbp,%rdi
    894b:	ff 15 97 03 23 00    	callq  *0x230397(%rip)        # 238ce8 <_GLOBAL_OFFSET_TABLE_+0x390>
    8951:	4c 89 6c 24 48       	mov    %r13,0x48(%rsp)
    8956:	48 89 ac 24 88 00 00 	mov    %rbp,0x88(%rsp)
    895d:	00 
    895e:	4c 89 a4 24 90 00 00 	mov    %r12,0x90(%rsp)
    8965:	00 
    8966:	48 8d 44 24 48       	lea    0x48(%rsp),%rax
    896b:	48 89 84 24 98 00 00 	mov    %rax,0x98(%rsp)
    8972:	00 
    8973:	48 8d 05 c6 d2 01 00 	lea    0x1d2c6(%rip),%rax        # 25c40 <_ZN4core3fmt3num3imp52_$LT$impl$u20$core..fmt..Display$u20$for$u20$u64$GT$3fmt17hafef36db8e8115a3E>
    897a:	48 89 84 24 a0 00 00 	mov    %rax,0xa0(%rsp)
    8981:	00 
    8982:	48 8d 05 0f e1 22 00 	lea    0x22e10f(%rip),%rax        # 236a98 <anon.62699569b315e42dcf2e25390e604531.2.llvm.5708525058631933581+0x48>
    8989:	48 89 44 24 18       	mov    %rax,0x18(%rsp)
    898e:	48 c7 44 24 20 03 00 	movq   $0x3,0x20(%rsp)
    8995:	00 00 
    8997:	48 c7 44 24 28 00 00 	movq   $0x0,0x28(%rsp)
    899e:	00 00 
    89a0:	48 89 5c 24 38       	mov    %rbx,0x38(%rsp)
    89a5:	48 c7 44 24 40 02 00 	movq   $0x2,0x40(%rsp)
    89ac:	00 00 
    89ae:	48 8d 7c 24 18       	lea    0x18(%rsp),%rdi
    89b3:	ff 15 4f 01 23 00    	callq  *0x23014f(%rip)        # 238b08 <_GLOBAL_OFFSET_TABLE_+0x1b0>
    89b9:	4d 85 ff             	test   %r15,%r15
    89bc:	74 15                	je     89d3 <_ZN7sortvec4main17h0a900dcfd534bec0E+0x2a3>
    89be:	49 c1 e7 02          	shl    $0x2,%r15
    89c2:	ba 04 00 00 00       	mov    $0x4,%edx
    89c7:	4c 89 f7             	mov    %r14,%rdi
    89ca:	4c 89 fe             	mov    %r15,%rsi
    89cd:	ff 15 75 01 23 00    	callq  *0x230175(%rip)        # 238b48 <_GLOBAL_OFFSET_TABLE_+0x1f0>
    89d3:	48 81 c4 a8 00 00 00 	add    $0xa8,%rsp
    89da:	5b                   	pop    %rbx
    89db:	41 5c                	pop    %r12
    89dd:	41 5d                	pop    %r13
    89df:	41 5e                	pop    %r14
    89e1:	41 5f                	pop    %r15
    89e3:	5d                   	pop    %rbp
    89e4:	c3                   	retq   
    89e5:	4c 89 7c 24 10       	mov    %r15,0x10(%rsp)
    89ea:	4c 89 7c 24 08       	mov    %r15,0x8(%rsp)
    89ef:	ff 15 eb 05 23 00    	callq  *0x2305eb(%rip)        # 238fe0 <_GLOBAL_OFFSET_TABLE_+0x688>
    89f5:	0f 0b                	ud2    
    89f7:	be 04 00 00 00       	mov    $0x4,%esi
    89fc:	48 89 ef             	mov    %rbp,%rdi
    89ff:	ff 15 c3 01 23 00    	callq  *0x2301c3(%rip)        # 238bc8 <_GLOBAL_OFFSET_TABLE_+0x270>
    8a05:	0f 0b                	ud2    
    8a07:	bf 08 00 00 00       	mov    $0x8,%edi
    8a0c:	be 04 00 00 00       	mov    $0x4,%esi
    8a11:	ff 15 b1 01 23 00    	callq  *0x2301b1(%rip)        # 238bc8 <_GLOBAL_OFFSET_TABLE_+0x270>
    8a17:	0f 0b                	ud2    
    8a19:	eb 00                	jmp    8a1b <_ZN7sortvec4main17h0a900dcfd534bec0E+0x2eb>
    8a1b:	48 89 c3             	mov    %rax,%rbx
    8a1e:	eb 0d                	jmp    8a2d <_ZN7sortvec4main17h0a900dcfd534bec0E+0x2fd>
    8a20:	48 89 c3             	mov    %rax,%rbx
    8a23:	4c 89 6c 24 10       	mov    %r13,0x10(%rsp)
    8a28:	4c 89 7c 24 08       	mov    %r15,0x8(%rsp)
    8a2d:	48 89 e7             	mov    %rsp,%rdi
    8a30:	e8 db fc ff ff       	callq  8710 <_ZN4core3ptr18real_drop_in_place17h726b38b54d559f60E>
    8a35:	48 89 df             	mov    %rbx,%rdi
    8a38:	e8 2b f1 ff ff       	callq  7b68 <_init+0xf0>
    8a3d:	0f 0b                	ud2    
    8a3f:	90                   	nop

0000000000008a40 <main>:
    8a40:	50                   	push   %rax
    8a41:	48 89 f1             	mov    %rsi,%rcx
    8a44:	48 63 d7             	movslq %edi,%rdx
    8a47:	48 8d 05 e2 fc ff ff 	lea    -0x31e(%rip),%rax        # 8730 <_ZN7sortvec4main17h0a900dcfd534bec0E>
    8a4e:	48 89 04 24          	mov    %rax,(%rsp)
    8a52:	48 8d 35 c7 df 22 00 	lea    0x22dfc7(%rip),%rsi        # 236a20 <anon.9d864ab29fe279a0b9c05ab7f1cc2a71.0.llvm.17453876987528229341>
    8a59:	48 89 e7             	mov    %rsp,%rdi
    8a5c:	ff 15 66 00 23 00    	callq  *0x230066(%rip)        # 238ac8 <_GLOBAL_OFFSET_TABLE_+0x170>
    8a62:	59                   	pop    %rcx
    8a63:	c3                   	retq   
    8a64:	66 2e 0f 1f 84 00 00 	nopw   %cs:0x0(%rax,%rax,1)
    8a6b:	00 00 00 
    8a6e:	66 90                	xchg   %ax,%ax

0000000000008a70 <_ZN4core3ptr18real_drop_in_place17hc2615aba032d73ffE>:
    8a70:	41 56                	push   %r14
    8a72:	53                   	push   %rbx
    8a73:	50                   	push   %rax
    8a74:	48 89 fb             	mov    %rdi,%rbx
    8a77:	48 8b 3f             	mov    (%rdi),%rdi
    8a7a:	48 85 ff             	test   %rdi,%rdi
    8a7d:	74 27                	je     8aa6 <_ZN4core3ptr18real_drop_in_place17hc2615aba032d73ffE+0x36>
    8a7f:	48 8b 43 08          	mov    0x8(%rbx),%rax
    8a83:	ff 10                	callq  *(%rax)
    8a85:	48 8b 43 08          	mov    0x8(%rbx),%rax
    8a89:	48 8b 70 08          	mov    0x8(%rax),%rsi
    8a8d:	48 85 f6             	test   %rsi,%rsi
    8a90:	74 14                	je     8aa6 <_ZN4core3ptr18real_drop_in_place17hc2615aba032d73ffE+0x36>
    8a92:	48 8b 3b             	mov    (%rbx),%rdi
    8a95:	48 8b 50 10          	mov    0x10(%rax),%rdx
    8a99:	48 83 c4 08          	add    $0x8,%rsp
    8a9d:	5b                   	pop    %rbx
    8a9e:	41 5e                	pop    %r14
    8aa0:	ff 25 a2 00 23 00    	jmpq   *0x2300a2(%rip)        # 238b48 <_GLOBAL_OFFSET_TABLE_+0x1f0>
    8aa6:	48 83 c4 08          	add    $0x8,%rsp
    8aaa:	5b                   	pop    %rbx
    8aab:	41 5e                	pop    %r14
    8aad:	c3                   	retq   
    8aae:	49 89 c6             	mov    %rax,%r14
    8ab1:	48 8b 3b             	mov    (%rbx),%rdi
    8ab4:	48 8b 73 08          	mov    0x8(%rbx),%rsi
    8ab8:	e8 13 00 00 00       	callq  8ad0 <_ZN5alloc5alloc8box_free17ha6f6027d18ecb538E>
    8abd:	4c 89 f7             	mov    %r14,%rdi
    8ac0:	e8 a3 f0 ff ff       	callq  7b68 <_init+0xf0>
    8ac5:	0f 0b                	ud2    
    8ac7:	66 0f 1f 84 00 00 00 	nopw   0x0(%rax,%rax,1)
    8ace:	00 00 

0000000000008ad0 <_ZN5alloc5alloc8box_free17ha6f6027d18ecb538E>:
    8ad0:	48 89 f0             	mov    %rsi,%rax
    8ad3:	48 8b 76 08          	mov    0x8(%rsi),%rsi
    8ad7:	48 85 f6             	test   %rsi,%rsi
    8ada:	74 0a                	je     8ae6 <_ZN5alloc5alloc8box_free17ha6f6027d18ecb538E+0x16>
    8adc:	48 8b 50 10          	mov    0x10(%rax),%rdx
    8ae0:	ff 25 62 00 23 00    	jmpq   *0x230062(%rip)        # 238b48 <_GLOBAL_OFFSET_TABLE_+0x1f0>
    8ae6:	c3                   	retq   
    8ae7:	66 0f 1f 84 00 00 00 	nopw   0x0(%rax,%rax,1)
    8aee:	00 00 

0000000000008af0 <_ZN75_$LT$rand..rngs..adapter..reseeding..ReseedingCore$LT$R$C$$u20$Rsdr$GT$$GT$19reseed_and_generate17hef98aab269719c36E.llvm.2184163966216870454>:
    8af0:	55                   	push   %rbp
    8af1:	41 57                	push   %r15
    8af3:	41 56                	push   %r14
    8af5:	41 55                	push   %r13
    8af7:	41 54                	push   %r12
    8af9:	53                   	push   %rbx
    8afa:	48 81 ec a8 00 00 00 	sub    $0xa8,%rsp
    8b01:	49 89 d7             	mov    %rdx,%r15
    8b04:	49 89 f6             	mov    %rsi,%r14
    8b07:	48 89 fb             	mov    %rdi,%rbx
    8b0a:	0f 57 c0             	xorps  %xmm0,%xmm0
    8b0d:	0f 29 44 24 70       	movaps %xmm0,0x70(%rsp)
    8b12:	0f 29 44 24 60       	movaps %xmm0,0x60(%rsp)
    8b17:	48 8d 74 24 60       	lea    0x60(%rsp),%rsi
    8b1c:	ba 20 00 00 00       	mov    $0x20,%edx
    8b21:	ff 15 b1 fe 22 00    	callq  *0x22feb1(%rip)        # 2389d8 <_GLOBAL_OFFSET_TABLE_+0x80>
    8b27:	49 89 c4             	mov    %rax,%r12
    8b2a:	48 85 c0             	test   %rax,%rax
    8b2d:	74 2e                	je     8b5d <_ZN75_$LT$rand..rngs..adapter..reseeding..ReseedingCore$LT$R$C$$u20$Rsdr$GT$$GT$19reseed_and_generate17hef98aab269719c36E.llvm.2184163966216870454+0x6d>
    8b2f:	49 89 d5             	mov    %rdx,%r13
    8b32:	31 c0                	xor    %eax,%eax
    8b34:	4c 89 e5             	mov    %r12,%rbp
    8b37:	4c 89 24 24          	mov    %r12,(%rsp)
    8b3b:	4c 89 6c 24 08       	mov    %r13,0x8(%rsp)
    8b40:	84 c0                	test   %al,%al
    8b42:	0f 84 d4 00 00 00    	je     8c1c <_ZN75_$LT$rand..rngs..adapter..reseeding..ReseedingCore$LT$R$C$$u20$Rsdr$GT$$GT$19reseed_and_generate17hef98aab269719c36E.llvm.2184163966216870454+0x12c>
    8b48:	48 85 ed             	test   %rbp,%rbp
    8b4b:	0f 84 e8 00 00 00    	je     8c39 <_ZN75_$LT$rand..rngs..adapter..reseeding..ReseedingCore$LT$R$C$$u20$Rsdr$GT$$GT$19reseed_and_generate17hef98aab269719c36E.llvm.2184163966216870454+0x149>
    8b51:	48 89 ef             	mov    %rbp,%rdi
    8b54:	41 ff 55 00          	callq  *0x0(%r13)
    8b58:	e9 c6 00 00 00       	jmpq   8c23 <_ZN75_$LT$rand..rngs..adapter..reseeding..ReseedingCore$LT$R$C$$u20$Rsdr$GT$$GT$19reseed_and_generate17hef98aab269719c36E.llvm.2184163966216870454+0x133>
    8b5d:	0f 28 44 24 60       	movaps 0x60(%rsp),%xmm0
    8b62:	0f 28 4c 24 70       	movaps 0x70(%rsp),%xmm1
    8b67:	0f 29 8c 24 90 00 00 	movaps %xmm1,0x90(%rsp)
    8b6e:	00 
    8b6f:	0f 29 84 24 80 00 00 	movaps %xmm0,0x80(%rsp)
    8b76:	00 
    8b77:	48 8d 3d 42 1f 02 00 	lea    0x21f42(%rip),%rdi        # 2aac0 <_ZN9c2_chacha4guts11init_chacha4IMPL17h738abe021d6dc430E>
    8b7e:	ff 15 84 02 23 00    	callq  *0x230284(%rip)        # 238e08 <_GLOBAL_OFFSET_TABLE_+0x4b0>
    8b84:	48 8d 15 9a 1d 02 00 	lea    0x21d9a(%rip),%rdx        # 2a925 <anon.0b2c823383dec51af8e2b43c78491c46.0.llvm.17017948224046636406>
    8b8b:	48 89 e7             	mov    %rsp,%rdi
    8b8e:	48 8d b4 24 80 00 00 	lea    0x80(%rsp),%rsi
    8b95:	00 
    8b96:	b9 08 00 00 00       	mov    $0x8,%ecx
    8b9b:	ff 10                	callq  *(%rax)
    8b9d:	4c 8b 2c 24          	mov    (%rsp),%r13
    8ba1:	0f 10 44 24 08       	movups 0x8(%rsp),%xmm0
    8ba6:	0f 29 44 24 30       	movaps %xmm0,0x30(%rsp)
    8bab:	0f 10 44 24 18       	movups 0x18(%rsp),%xmm0
    8bb0:	0f 29 44 24 40       	movaps %xmm0,0x40(%rsp)
    8bb5:	48 8b 44 24 28       	mov    0x28(%rsp),%rax
    8bba:	48 89 44 24 50       	mov    %rax,0x50(%rsp)
    8bbf:	4c 89 2c 24          	mov    %r13,(%rsp)
    8bc3:	48 8b 44 24 50       	mov    0x50(%rsp),%rax
    8bc8:	48 89 44 24 28       	mov    %rax,0x28(%rsp)
    8bcd:	0f 28 44 24 30       	movaps 0x30(%rsp),%xmm0
    8bd2:	0f 28 4c 24 40       	movaps 0x40(%rsp),%xmm1
    8bd7:	0f 11 4c 24 18       	movups %xmm1,0x18(%rsp)
    8bdc:	0f 11 44 24 08       	movups %xmm0,0x8(%rsp)
    8be1:	48 8b 43 30          	mov    0x30(%rbx),%rax
    8be5:	48 89 43 38          	mov    %rax,0x38(%rbx)
    8be9:	4c 89 2b             	mov    %r13,(%rbx)
    8bec:	48 8b 44 24 50       	mov    0x50(%rsp),%rax
    8bf1:	48 89 43 28          	mov    %rax,0x28(%rbx)
    8bf5:	0f 28 44 24 40       	movaps 0x40(%rsp),%xmm0
    8bfa:	0f 11 43 18          	movups %xmm0,0x18(%rbx)
    8bfe:	0f 28 44 24 30       	movaps 0x30(%rsp),%xmm0
    8c03:	0f 11 43 08          	movups %xmm0,0x8(%rbx)
    8c07:	b0 01                	mov    $0x1,%al
    8c09:	31 ed                	xor    %ebp,%ebp
    8c0b:	4c 89 24 24          	mov    %r12,(%rsp)
    8c0f:	4c 89 6c 24 08       	mov    %r13,0x8(%rsp)
    8c14:	84 c0                	test   %al,%al
    8c16:	0f 85 2c ff ff ff    	jne    8b48 <_ZN75_$LT$rand..rngs..adapter..reseeding..ReseedingCore$LT$R$C$$u20$Rsdr$GT$$GT$19reseed_and_generate17hef98aab269719c36E.llvm.2184163966216870454+0x58>
    8c1c:	48 89 ef             	mov    %rbp,%rdi
    8c1f:	41 ff 55 00          	callq  *0x0(%r13)
    8c23:	49 8b 75 08          	mov    0x8(%r13),%rsi
    8c27:	48 85 f6             	test   %rsi,%rsi
    8c2a:	74 0d                	je     8c39 <_ZN75_$LT$rand..rngs..adapter..reseeding..ReseedingCore$LT$R$C$$u20$Rsdr$GT$$GT$19reseed_and_generate17hef98aab269719c36E.llvm.2184163966216870454+0x149>
    8c2c:	49 8b 55 10          	mov    0x10(%r13),%rdx
    8c30:	4c 89 e7             	mov    %r12,%rdi
    8c33:	ff 15 0f ff 22 00    	callq  *0x22ff0f(%rip)        # 238b48 <_GLOBAL_OFFSET_TABLE_+0x1f0>
    8c39:	4c 89 7b 40          	mov    %r15,0x40(%rbx)
    8c3d:	48 c7 c0 00 ff ff ff 	mov    $0xffffffffffffff00,%rax
    8c44:	48 03 43 30          	add    0x30(%rbx),%rax
    8c48:	48 89 43 38          	mov    %rax,0x38(%rbx)
    8c4c:	48 8d 3d 6d 1e 02 00 	lea    0x21e6d(%rip),%rdi        # 2aac0 <_ZN9c2_chacha4guts11init_chacha4IMPL17h738abe021d6dc430E>
    8c53:	ff 15 67 00 23 00    	callq  *0x230067(%rip)        # 238cc0 <_GLOBAL_OFFSET_TABLE_+0x368>
    8c59:	48 89 df             	mov    %rbx,%rdi
    8c5c:	be 0a 00 00 00       	mov    $0xa,%esi
    8c61:	4c 89 f2             	mov    %r14,%rdx
    8c64:	ff 10                	callq  *(%rax)
    8c66:	48 81 c4 a8 00 00 00 	add    $0xa8,%rsp
    8c6d:	5b                   	pop    %rbx
    8c6e:	41 5c                	pop    %r12
    8c70:	41 5d                	pop    %r13
    8c72:	41 5e                	pop    %r14
    8c74:	41 5f                	pop    %r15
    8c76:	5d                   	pop    %rbp
    8c77:	c3                   	retq   
    8c78:	48 89 c3             	mov    %rax,%rbx
    8c7b:	4c 89 e7             	mov    %r12,%rdi
    8c7e:	4c 89 ee             	mov    %r13,%rsi
    8c81:	e8 4a fe ff ff       	callq  8ad0 <_ZN5alloc5alloc8box_free17ha6f6027d18ecb538E>
    8c86:	48 89 df             	mov    %rbx,%rdi
    8c89:	e8 da ee ff ff       	callq  7b68 <_init+0xf0>
    8c8e:	0f 0b                	ud2    
    8c90:	48 89 c3             	mov    %rax,%rbx
    8c93:	4c 89 e7             	mov    %r12,%rdi
    8c96:	4c 89 ee             	mov    %r13,%rsi
    8c99:	e8 32 fe ff ff       	callq  8ad0 <_ZN5alloc5alloc8box_free17ha6f6027d18ecb538E>
    8c9e:	48 85 ed             	test   %rbp,%rbp
    8ca1:	75 08                	jne    8cab <_ZN75_$LT$rand..rngs..adapter..reseeding..ReseedingCore$LT$R$C$$u20$Rsdr$GT$$GT$19reseed_and_generate17hef98aab269719c36E.llvm.2184163966216870454+0x1bb>
    8ca3:	48 89 e7             	mov    %rsp,%rdi
    8ca6:	e8 c5 fd ff ff       	callq  8a70 <_ZN4core3ptr18real_drop_in_place17hc2615aba032d73ffE>
    8cab:	48 89 df             	mov    %rbx,%rdi
    8cae:	e8 b5 ee ff ff       	callq  7b68 <_init+0xf0>
    8cb3:	0f 0b                	ud2    
    8cb5:	66 2e 0f 1f 84 00 00 	nopw   %cs:0x0(%rax,%rax,1)
    8cbc:	00 00 00 
    8cbf:	90                   	nop

0000000000008cc0 <_ZN4core3ptr18real_drop_in_place17h31c9e1308b6c4022E>:
    8cc0:	c3                   	retq   
    8cc1:	66 2e 0f 1f 84 00 00 	nopw   %cs:0x0(%rax,%rax,1)
    8cc8:	00 00 00 
    8ccb:	0f 1f 44 00 00       	nopl   0x0(%rax,%rax,1)

0000000000008cd0 <_ZN75_$LT$core..result..Result$LT$T$C$$u20$E$GT$$u20$as$u20$core..fmt..Debug$GT$3fmt17h0a7702a9a919068dE>:
    8cd0:	41 56                	push   %r14
    8cd2:	53                   	push   %rbx
    8cd3:	48 83 ec 28          	sub    $0x28,%rsp
    8cd7:	48 83 3f 01          	cmpq   $0x1,(%rdi)
    8cdb:	48 8d 5f 08          	lea    0x8(%rdi),%rbx
    8cdf:	75 28                	jne    8d09 <_ZN75_$LT$core..result..Result$LT$T$C$$u20$E$GT$$u20$as$u20$core..fmt..Debug$GT$3fmt17h0a7702a9a919068dE+0x39>
    8ce1:	48 8d 15 38 1c 02 00 	lea    0x21c38(%rip),%rdx        # 2a920 <str.1+0xa0>
    8ce8:	4c 8d 74 24 10       	lea    0x10(%rsp),%r14
    8ced:	b9 03 00 00 00       	mov    $0x3,%ecx
    8cf2:	4c 89 f7             	mov    %r14,%rdi
    8cf5:	ff 15 5d 01 23 00    	callq  *0x23015d(%rip)        # 238e58 <_GLOBAL_OFFSET_TABLE_+0x500>
    8cfb:	48 89 5c 24 08       	mov    %rbx,0x8(%rsp)
    8d00:	48 8d 15 c1 dd 22 00 	lea    0x22ddc1(%rip),%rdx        # 236ac8 <anon.62699569b315e42dcf2e25390e604531.2.llvm.5708525058631933581+0x78>
    8d07:	eb 26                	jmp    8d2f <_ZN75_$LT$core..result..Result$LT$T$C$$u20$E$GT$$u20$as$u20$core..fmt..Debug$GT$3fmt17h0a7702a9a919068dE+0x5f>
    8d09:	48 8d 15 13 1c 02 00 	lea    0x21c13(%rip),%rdx        # 2a923 <str.1+0xa3>
    8d10:	4c 8d 74 24 10       	lea    0x10(%rsp),%r14
    8d15:	b9 02 00 00 00       	mov    $0x2,%ecx
    8d1a:	4c 89 f7             	mov    %r14,%rdi
    8d1d:	ff 15 35 01 23 00    	callq  *0x230135(%rip)        # 238e58 <_GLOBAL_OFFSET_TABLE_+0x500>
    8d23:	48 89 5c 24 08       	mov    %rbx,0x8(%rsp)
    8d28:	48 8d 15 b9 dd 22 00 	lea    0x22ddb9(%rip),%rdx        # 236ae8 <anon.62699569b315e42dcf2e25390e604531.2.llvm.5708525058631933581+0x98>
    8d2f:	48 8d 74 24 08       	lea    0x8(%rsp),%rsi
    8d34:	4c 89 f7             	mov    %r14,%rdi
    8d37:	ff 15 53 fe 22 00    	callq  *0x22fe53(%rip)        # 238b90 <_GLOBAL_OFFSET_TABLE_+0x238>
    8d3d:	4c 89 f7             	mov    %r14,%rdi
    8d40:	ff 15 da fe 22 00    	callq  *0x22feda(%rip)        # 238c20 <_GLOBAL_OFFSET_TABLE_+0x2c8>
    8d46:	48 83 c4 28          	add    $0x28,%rsp
    8d4a:	5b                   	pop    %rbx
    8d4b:	41 5e                	pop    %r14
    8d4d:	c3                   	retq   
    8d4e:	66 90                	xchg   %ax,%ax

0000000000008d50 <__rust_alloc>:
    8d50:	e9 9b d5 00 00       	jmpq   162f0 <__rdl_alloc>
    8d55:	66 2e 0f 1f 84 00 00 	nopw   %cs:0x0(%rax,%rax,1)
    8d5c:	00 00 00 
    8d5f:	90                   	nop

0000000000008d60 <__rust_dealloc>:
    8d60:	e9 cb d5 00 00       	jmpq   16330 <__rdl_dealloc>
    8d65:	66 2e 0f 1f 84 00 00 	nopw   %cs:0x0(%rax,%rax,1)
    8d6c:	00 00 00 
    8d6f:	90                   	nop

0000000000008d70 <__rust_realloc>:
    8d70:	e9 cb d5 00 00       	jmpq   16340 <__rdl_realloc>
    8d75:	66 2e 0f 1f 84 00 00 	nopw   %cs:0x0(%rax,%rax,1)
    8d7c:	00 00 00 
    8d7f:	90                   	nop

0000000000008d80 <_ZN60_$LT$rand..rngs..os..OsRng$u20$as$u20$rand_core..RngCore$GT$14try_fill_bytes17hc1234b563be323f8E>:
    8d80:	50                   	push   %rax
    8d81:	48 89 f7             	mov    %rsi,%rdi
    8d84:	48 89 d6             	mov    %rdx,%rsi
    8d87:	ff 15 43 fd 22 00    	callq  *0x22fd43(%rip)        # 238ad0 <_GLOBAL_OFFSET_TABLE_+0x178>
    8d8d:	85 c0                	test   %eax,%eax
    8d8f:	74 0a                	je     8d9b <_ZN60_$LT$rand..rngs..os..OsRng$u20$as$u20$rand_core..RngCore$GT$14try_fill_bytes17hc1234b563be323f8E+0x1b>
    8d91:	89 c7                	mov    %eax,%edi
    8d93:	ff 15 57 ff 22 00    	callq  *0x22ff57(%rip)        # 238cf0 <_GLOBAL_OFFSET_TABLE_+0x398>
    8d99:	59                   	pop    %rcx
    8d9a:	c3                   	retq   
    8d9b:	31 c0                	xor    %eax,%eax
    8d9d:	59                   	pop    %rcx
    8d9e:	c3                   	retq   
    8d9f:	90                   	nop

0000000000008da0 <_ZN44_$LT$$RF$T$u20$as$u20$core..fmt..Display$GT$3fmt17hf5be5b1e16342c24E>:
    8da0:	48 89 f2             	mov    %rsi,%rdx
    8da3:	48 8b 07             	mov    (%rdi),%rax
    8da6:	48 8b 77 08          	mov    0x8(%rdi),%rsi
    8daa:	48 89 c7             	mov    %rax,%rdi
    8dad:	ff 25 ed fd 22 00    	jmpq   *0x22fded(%rip)        # 238ba0 <_GLOBAL_OFFSET_TABLE_+0x248>
    8db3:	66 2e 0f 1f 84 00 00 	nopw   %cs:0x0(%rax,%rax,1)
    8dba:	00 00 00 
    8dbd:	0f 1f 00             	nopl   (%rax)

0000000000008dc0 <_ZN4rand4rngs7adapter9reseeding4fork16get_fork_counter17h42ec817c35342bc5E>:
    8dc0:	48 8b 05 99 02 23 00 	mov    0x230299(%rip),%rax        # 239060 <_ZN4rand4rngs7adapter9reseeding4fork26RESEEDING_RNG_FORK_COUNTER17hecbcb3faa365ac1eE.llvm.16919922324098060691>
    8dc7:	c3                   	retq   
    8dc8:	0f 1f 84 00 00 00 00 	nopl   0x0(%rax,%rax,1)
    8dcf:	00 

0000000000008dd0 <_ZN4rand4rngs7adapter9reseeding4fork12fork_handler17hb32644d195c6bc08E.llvm.16919922324098060691>:
    8dd0:	f0 48 81 05 84 02 23 	lock addq $0x1,0x230284(%rip)        # 239060 <_ZN4rand4rngs7adapter9reseeding4fork26RESEEDING_RNG_FORK_COUNTER17hecbcb3faa365ac1eE.llvm.16919922324098060691>
    8dd7:	00 01 00 00 00 
    8ddc:	c3                   	retq   
    8ddd:	0f 1f 00             	nopl   (%rax)

0000000000008de0 <_ZN4core3ptr18real_drop_in_place17hb6cafd5f5a60ed93E>:
    8de0:	41 56                	push   %r14
    8de2:	53                   	push   %rbx
    8de3:	50                   	push   %rax
    8de4:	48 89 fb             	mov    %rdi,%rbx
    8de7:	48 8b 3f             	mov    (%rdi),%rdi
    8dea:	48 8b 43 08          	mov    0x8(%rbx),%rax
    8dee:	ff 10                	callq  *(%rax)
    8df0:	48 8b 43 08          	mov    0x8(%rbx),%rax
    8df4:	48 8b 70 08          	mov    0x8(%rax),%rsi
    8df8:	48 85 f6             	test   %rsi,%rsi
    8dfb:	74 14                	je     8e11 <_ZN4core3ptr18real_drop_in_place17hb6cafd5f5a60ed93E+0x31>
    8dfd:	48 8b 3b             	mov    (%rbx),%rdi
    8e00:	48 8b 50 10          	mov    0x10(%rax),%rdx
    8e04:	48 83 c4 08          	add    $0x8,%rsp
    8e08:	5b                   	pop    %rbx
    8e09:	41 5e                	pop    %r14
    8e0b:	ff 25 37 fd 22 00    	jmpq   *0x22fd37(%rip)        # 238b48 <_GLOBAL_OFFSET_TABLE_+0x1f0>
    8e11:	48 83 c4 08          	add    $0x8,%rsp
    8e15:	5b                   	pop    %rbx
    8e16:	41 5e                	pop    %r14
    8e18:	c3                   	retq   
    8e19:	49 89 c6             	mov    %rax,%r14
    8e1c:	48 8b 3b             	mov    (%rbx),%rdi
    8e1f:	48 8b 73 08          	mov    0x8(%rbx),%rsi
    8e23:	e8 98 00 00 00       	callq  8ec0 <_ZN5alloc5alloc8box_free17h259e86373a0bf7a8E>
    8e28:	4c 89 f7             	mov    %r14,%rdi
    8e2b:	e8 38 ed ff ff       	callq  7b68 <_init+0xf0>
    8e30:	0f 0b                	ud2    
    8e32:	66 2e 0f 1f 84 00 00 	nopw   %cs:0x0(%rax,%rax,1)
    8e39:	00 00 00 
    8e3c:	0f 1f 40 00          	nopl   0x0(%rax)

0000000000008e40 <_ZN4core6result13unwrap_failed17h5e21d82789932eebE>:
    8e40:	48 83 ec 68          	sub    $0x68,%rsp
    8e44:	48 89 7c 24 08       	mov    %rdi,0x8(%rsp)
    8e49:	48 89 74 24 10       	mov    %rsi,0x10(%rsp)
    8e4e:	48 8d 44 24 08       	lea    0x8(%rsp),%rax
    8e53:	48 89 44 24 18       	mov    %rax,0x18(%rsp)
    8e58:	48 8d 05 41 ff ff ff 	lea    -0xbf(%rip),%rax        # 8da0 <_ZN44_$LT$$RF$T$u20$as$u20$core..fmt..Display$GT$3fmt17hf5be5b1e16342c24E>
    8e5f:	48 89 44 24 20       	mov    %rax,0x20(%rsp)
    8e64:	48 89 e0             	mov    %rsp,%rax
    8e67:	48 89 44 24 28       	mov    %rax,0x28(%rsp)
    8e6c:	48 8d 05 dd a3 00 00 	lea    0xa3dd(%rip),%rax        # 13250 <_ZN68_$LT$std..thread..local..AccessError$u20$as$u20$core..fmt..Debug$GT$3fmt17hae34e16181521489E>
    8e73:	48 89 44 24 30       	mov    %rax,0x30(%rsp)
    8e78:	48 8d 05 b1 dc 22 00 	lea    0x22dcb1(%rip),%rax        # 236b30 <anon.62699569b315e42dcf2e25390e604531.2.llvm.5708525058631933581+0xe0>
    8e7f:	48 89 44 24 38       	mov    %rax,0x38(%rsp)
    8e84:	48 c7 44 24 40 02 00 	movq   $0x2,0x40(%rsp)
    8e8b:	00 00 
    8e8d:	48 c7 44 24 48 00 00 	movq   $0x0,0x48(%rsp)
    8e94:	00 00 
    8e96:	48 8d 44 24 18       	lea    0x18(%rsp),%rax
    8e9b:	48 89 44 24 58       	mov    %rax,0x58(%rsp)
    8ea0:	48 c7 44 24 60 02 00 	movq   $0x2,0x60(%rsp)
    8ea7:	00 00 
    8ea9:	48 8d 35 a0 dc 22 00 	lea    0x22dca0(%rip),%rsi        # 236b50 <anon.62699569b315e42dcf2e25390e604531.2.llvm.5708525058631933581+0x100>
    8eb0:	48 8d 7c 24 38       	lea    0x38(%rsp),%rdi
    8eb5:	ff 15 ed fc 22 00    	callq  *0x22fced(%rip)        # 238ba8 <_GLOBAL_OFFSET_TABLE_+0x250>
    8ebb:	0f 0b                	ud2    
    8ebd:	0f 1f 00             	nopl   (%rax)

0000000000008ec0 <_ZN5alloc5alloc8box_free17h259e86373a0bf7a8E>:
    8ec0:	48 89 f0             	mov    %rsi,%rax
    8ec3:	48 8b 76 08          	mov    0x8(%rsi),%rsi
    8ec7:	48 85 f6             	test   %rsi,%rsi
    8eca:	74 0a                	je     8ed6 <_ZN5alloc5alloc8box_free17h259e86373a0bf7a8E+0x16>
    8ecc:	48 8b 50 10          	mov    0x10(%rax),%rdx
    8ed0:	ff 25 72 fc 22 00    	jmpq   *0x22fc72(%rip)        # 238b48 <_GLOBAL_OFFSET_TABLE_+0x1f0>
    8ed6:	c3                   	retq   
    8ed7:	66 0f 1f 84 00 00 00 	nopw   0x0(%rax,%rax,1)
    8ede:	00 00 

0000000000008ee0 <_ZN4rand4rngs6thread10thread_rng17hc3373a842a62d61aE>:
    8ee0:	50                   	push   %rax
    8ee1:	48 8d 3d 80 dc 22 00 	lea    0x22dc80(%rip),%rdi        # 236b68 <anon.62699569b315e42dcf2e25390e604531.2.llvm.5708525058631933581+0x118>
    8ee8:	e8 e3 02 00 00       	callq  91d0 <_ZN46_$LT$std..thread..local..LocalKey$LT$T$GT$$GT$4with17h19ec6b08d60a87c0E>
    8eed:	48 85 c0             	test   %rax,%rax
    8ef0:	74 02                	je     8ef4 <_ZN4rand4rngs6thread10thread_rng17hc3373a842a62d61aE+0x14>
    8ef2:	59                   	pop    %rcx
    8ef3:	c3                   	retq   
    8ef4:	48 8d 3d 0d dc 22 00 	lea    0x22dc0d(%rip),%rdi        # 236b08 <anon.62699569b315e42dcf2e25390e604531.2.llvm.5708525058631933581+0xb8>
    8efb:	ff 15 c7 00 23 00    	callq  *0x2300c7(%rip)        # 238fc8 <_GLOBAL_OFFSET_TABLE_+0x670>
    8f01:	0f 0b                	ud2    
    8f03:	66 2e 0f 1f 84 00 00 	nopw   %cs:0x0(%rax,%rax,1)
    8f0a:	00 00 00 
    8f0d:	0f 1f 00             	nopl   (%rax)

0000000000008f10 <_ZN4rand4rngs6thread14THREAD_RNG_KEY6__init17h20de66c0c9e4e1ddE>:
    8f10:	41 56                	push   %r14
    8f12:	53                   	push   %rbx
    8f13:	48 81 ec a8 00 00 00 	sub    $0xa8,%rsp
    8f1a:	48 89 fb             	mov    %rdi,%rbx
    8f1d:	0f 57 c0             	xorps  %xmm0,%xmm0
    8f20:	0f 29 44 24 70       	movaps %xmm0,0x70(%rsp)
    8f25:	0f 29 44 24 60       	movaps %xmm0,0x60(%rsp)
    8f2a:	48 8d 7c 24 60       	lea    0x60(%rsp),%rdi
    8f2f:	be 20 00 00 00       	mov    $0x20,%esi
    8f34:	ff 15 96 fb 22 00    	callq  *0x22fb96(%rip)        # 238ad0 <_GLOBAL_OFFSET_TABLE_+0x178>
    8f3a:	85 c0                	test   %eax,%eax
    8f3c:	74 11                	je     8f4f <_ZN4rand4rngs6thread14THREAD_RNG_KEY6__init17h20de66c0c9e4e1ddE+0x3f>
    8f3e:	89 c7                	mov    %eax,%edi
    8f40:	ff 15 aa fd 22 00    	callq  *0x22fdaa(%rip)        # 238cf0 <_GLOBAL_OFFSET_TABLE_+0x398>
    8f46:	48 85 c0             	test   %rax,%rax
    8f49:	0f 85 7b 01 00 00    	jne    90ca <_ZN4rand4rngs6thread14THREAD_RNG_KEY6__init17h20de66c0c9e4e1ddE+0x1ba>
    8f4f:	0f 28 44 24 60       	movaps 0x60(%rsp),%xmm0
    8f54:	0f 28 4c 24 70       	movaps 0x70(%rsp),%xmm1
    8f59:	0f 29 4c 24 40       	movaps %xmm1,0x40(%rsp)
    8f5e:	0f 29 44 24 30       	movaps %xmm0,0x30(%rsp)
    8f63:	48 8d 3d 56 1b 02 00 	lea    0x21b56(%rip),%rdi        # 2aac0 <_ZN9c2_chacha4guts11init_chacha4IMPL17h738abe021d6dc430E>
    8f6a:	ff 15 98 fe 22 00    	callq  *0x22fe98(%rip)        # 238e08 <_GLOBAL_OFFSET_TABLE_+0x4b0>
    8f70:	48 8d 15 ae 19 02 00 	lea    0x219ae(%rip),%rdx        # 2a925 <anon.0b2c823383dec51af8e2b43c78491c46.0.llvm.17017948224046636406>
    8f77:	48 89 e7             	mov    %rsp,%rdi
    8f7a:	48 8d 74 24 30       	lea    0x30(%rsp),%rsi
    8f7f:	b9 08 00 00 00       	mov    $0x8,%ecx
    8f84:	ff 10                	callq  *(%rax)
    8f86:	4c 8b 34 24          	mov    (%rsp),%r14
    8f8a:	0f 10 44 24 08       	movups 0x8(%rsp),%xmm0
    8f8f:	0f 29 84 24 80 00 00 	movaps %xmm0,0x80(%rsp)
    8f96:	00 
    8f97:	0f 10 44 24 18       	movups 0x18(%rsp),%xmm0
    8f9c:	0f 29 84 24 90 00 00 	movaps %xmm0,0x90(%rsp)
    8fa3:	00 
    8fa4:	48 8b 44 24 28       	mov    0x28(%rsp),%rax
    8fa9:	48 89 84 24 a0 00 00 	mov    %rax,0xa0(%rsp)
    8fb0:	00 
    8fb1:	48 8b 84 24 a0 00 00 	mov    0xa0(%rsp),%rax
    8fb8:	00 
    8fb9:	48 89 44 24 20       	mov    %rax,0x20(%rsp)
    8fbe:	0f 28 84 24 80 00 00 	movaps 0x80(%rsp),%xmm0
    8fc5:	00 
    8fc6:	0f 28 8c 24 90 00 00 	movaps 0x90(%rsp),%xmm1
    8fcd:	00 
    8fce:	0f 29 4c 24 10       	movaps %xmm1,0x10(%rsp)
    8fd3:	0f 29 04 24          	movaps %xmm0,(%rsp)
    8fd7:	8a 05 8b 00 23 00    	mov    0x23008b(%rip),%al        # 239068 <_ZN4rand4rngs7adapter9reseeding4fork23FORK_HANDLER_REGISTERED17hf667950e75788693E.0.0.llvm.16919922324098060691>
    8fdd:	84 c0                	test   %al,%al
    8fdf:	75 18                	jne    8ff9 <_ZN4rand4rngs6thread14THREAD_RNG_KEY6__init17h20de66c0c9e4e1ddE+0xe9>
    8fe1:	48 8d 15 e8 fd ff ff 	lea    -0x218(%rip),%rdx        # 8dd0 <_ZN4rand4rngs7adapter9reseeding4fork12fork_handler17hb32644d195c6bc08E.llvm.16919922324098060691>
    8fe8:	31 ff                	xor    %edi,%edi
    8fea:	31 f6                	xor    %esi,%esi
    8fec:	ff 15 ce fd 22 00    	callq  *0x22fdce(%rip)        # 238dc0 <_GLOBAL_OFFSET_TABLE_+0x468>
    8ff2:	c6 05 6f 00 23 00 01 	movb   $0x1,0x23006f(%rip)        # 239068 <_ZN4rand4rngs7adapter9reseeding4fork23FORK_HANDLER_REGISTERED17hf667950e75788693E.0.0.llvm.16919922324098060691>
    8ff9:	48 8b 44 24 20       	mov    0x20(%rsp),%rax
    8ffe:	48 89 44 24 50       	mov    %rax,0x50(%rsp)
    9003:	0f 28 04 24          	movaps (%rsp),%xmm0
    9007:	0f 28 4c 24 10       	movaps 0x10(%rsp),%xmm1
    900c:	0f 29 4c 24 40       	movaps %xmm1,0x40(%rsp)
    9011:	0f 29 44 24 30       	movaps %xmm0,0x30(%rsp)
    9016:	48 c7 03 40 00 00 00 	movq   $0x40,(%rbx)
    901d:	0f 57 c0             	xorps  %xmm0,%xmm0
    9020:	0f 11 83 f8 00 00 00 	movups %xmm0,0xf8(%rbx)
    9027:	0f 11 83 e8 00 00 00 	movups %xmm0,0xe8(%rbx)
    902e:	0f 11 83 d8 00 00 00 	movups %xmm0,0xd8(%rbx)
    9035:	0f 11 83 c8 00 00 00 	movups %xmm0,0xc8(%rbx)
    903c:	0f 11 83 b8 00 00 00 	movups %xmm0,0xb8(%rbx)
    9043:	0f 11 83 a8 00 00 00 	movups %xmm0,0xa8(%rbx)
    904a:	0f 11 83 98 00 00 00 	movups %xmm0,0x98(%rbx)
    9051:	0f 11 83 88 00 00 00 	movups %xmm0,0x88(%rbx)
    9058:	0f 11 43 78          	movups %xmm0,0x78(%rbx)
    905c:	0f 11 43 68          	movups %xmm0,0x68(%rbx)
    9060:	0f 11 43 58          	movups %xmm0,0x58(%rbx)
    9064:	0f 11 43 48          	movups %xmm0,0x48(%rbx)
    9068:	0f 11 43 38          	movups %xmm0,0x38(%rbx)
    906c:	0f 11 43 28          	movups %xmm0,0x28(%rbx)
    9070:	0f 11 43 18          	movups %xmm0,0x18(%rbx)
    9074:	0f 11 43 08          	movups %xmm0,0x8(%rbx)
    9078:	4c 89 b3 10 01 00 00 	mov    %r14,0x110(%rbx)
    907f:	48 8b 44 24 50       	mov    0x50(%rsp),%rax
    9084:	48 89 83 38 01 00 00 	mov    %rax,0x138(%rbx)
    908b:	0f 28 44 24 30       	movaps 0x30(%rsp),%xmm0
    9090:	0f 28 4c 24 40       	movaps 0x40(%rsp),%xmm1
    9095:	0f 11 8b 28 01 00 00 	movups %xmm1,0x128(%rbx)
    909c:	0f 11 83 18 01 00 00 	movups %xmm0,0x118(%rbx)
    90a3:	0f 28 05 96 18 02 00 	movaps 0x21896(%rip),%xmm0        # 2a940 <anon.0b2c823383dec51af8e2b43c78491c46.0.llvm.17017948224046636406+0x1b>
    90aa:	0f 29 83 40 01 00 00 	movaps %xmm0,0x140(%rbx)
    90b1:	48 c7 83 50 01 00 00 	movq   $0x0,0x150(%rbx)
    90b8:	00 00 00 00 
    90bc:	48 89 d8             	mov    %rbx,%rax
    90bf:	48 81 c4 a8 00 00 00 	add    $0xa8,%rsp
    90c6:	5b                   	pop    %rbx
    90c7:	41 5e                	pop    %r14
    90c9:	c3                   	retq   
    90ca:	48 89 c7             	mov    %rax,%rdi
    90cd:	48 89 d6             	mov    %rdx,%rsi
    90d0:	e8 0b 00 00 00       	callq  90e0 <_ZN4rand4rngs6thread14THREAD_RNG_KEY6__init28_$u7b$$u7b$closure$u7d$$u7d$17h34cae23cad5a5212E>
    90d5:	0f 0b                	ud2    
    90d7:	66 0f 1f 84 00 00 00 	nopw   0x0(%rax,%rax,1)
    90de:	00 00 

00000000000090e0 <_ZN4rand4rngs6thread14THREAD_RNG_KEY6__init28_$u7b$$u7b$closure$u7d$$u7d$17h34cae23cad5a5212E>:
    90e0:	53                   	push   %rbx
    90e1:	48 83 ec 50          	sub    $0x50,%rsp
    90e5:	48 89 3c 24          	mov    %rdi,(%rsp)
    90e9:	48 89 74 24 08       	mov    %rsi,0x8(%rsp)
    90ee:	48 89 e0             	mov    %rsp,%rax
    90f1:	48 89 44 24 10       	mov    %rax,0x10(%rsp)
    90f6:	48 8d 05 03 2e 00 00 	lea    0x2e03(%rip),%rax        # bf00 <_ZN62_$LT$rand_core..error..Error$u20$as$u20$core..fmt..Display$GT$3fmt17h166524b270cbae6aE>
    90fd:	48 89 44 24 18       	mov    %rax,0x18(%rsp)
    9102:	48 8d 05 6f da 22 00 	lea    0x22da6f(%rip),%rax        # 236b78 <anon.62699569b315e42dcf2e25390e604531.2.llvm.5708525058631933581+0x128>
    9109:	48 89 44 24 20       	mov    %rax,0x20(%rsp)
    910e:	48 c7 44 24 28 01 00 	movq   $0x1,0x28(%rsp)
    9115:	00 00 
    9117:	48 c7 44 24 30 00 00 	movq   $0x0,0x30(%rsp)
    911e:	00 00 
    9120:	48 8d 44 24 10       	lea    0x10(%rsp),%rax
    9125:	48 89 44 24 40       	mov    %rax,0x40(%rsp)
    912a:	48 c7 44 24 48 01 00 	movq   $0x1,0x48(%rsp)
    9131:	00 00 
    9133:	48 8d 35 4e da 22 00 	lea    0x22da4e(%rip),%rsi        # 236b88 <anon.62699569b315e42dcf2e25390e604531.2.llvm.5708525058631933581+0x138>
    913a:	48 8d 7c 24 20       	lea    0x20(%rsp),%rdi
    913f:	ff 15 53 f8 22 00    	callq  *0x22f853(%rip)        # 238998 <_GLOBAL_OFFSET_TABLE_+0x40>
    9145:	0f 0b                	ud2    
    9147:	48 89 c3             	mov    %rax,%rbx
    914a:	48 89 e7             	mov    %rsp,%rdi
    914d:	e8 8e fc ff ff       	callq  8de0 <_ZN4core3ptr18real_drop_in_place17hb6cafd5f5a60ed93E>
    9152:	48 89 df             	mov    %rbx,%rdi
    9155:	e8 0e ea ff ff       	callq  7b68 <_init+0xf0>
    915a:	0f 0b                	ud2    
    915c:	0f 1f 40 00          	nopl   0x0(%rax)

0000000000009160 <_ZN4rand4rngs6thread14THREAD_RNG_KEY7__getit17h973ba3dd9718bbf5E>:
    9160:	41 56                	push   %r14
    9162:	53                   	push   %rbx
    9163:	50                   	push   %rax
    9164:	66 66 66 64 48 8b 04 	data16 data16 data16 mov %fs:0x0,%rax
    916b:	25 00 00 00 00 
    9170:	48 89 c1             	mov    %rax,%rcx
    9173:	80 b8 81 ff ff ff 00 	cmpb   $0x0,-0x7f(%rax)
    917a:	74 04                	je     9180 <_ZN4rand4rngs6thread14THREAD_RNG_KEY7__getit17h973ba3dd9718bbf5E+0x20>
    917c:	31 db                	xor    %ebx,%ebx
    917e:	eb 37                	jmp    91b7 <_ZN4rand4rngs6thread14THREAD_RNG_KEY7__getit17h973ba3dd9718bbf5E+0x57>
    9180:	80 b8 80 ff ff ff 00 	cmpb   $0x0,-0x80(%rax)
    9187:	74 0c                	je     9195 <_ZN4rand4rngs6thread14THREAD_RNG_KEY7__getit17h973ba3dd9718bbf5E+0x35>
    9189:	48 89 c1             	mov    %rax,%rcx
    918c:	48 8d 98 10 fe ff ff 	lea    -0x1f0(%rax),%rbx
    9193:	eb 22                	jmp    91b7 <_ZN4rand4rngs6thread14THREAD_RNG_KEY7__getit17h973ba3dd9718bbf5E+0x57>
    9195:	49 89 c6             	mov    %rax,%r14
    9198:	48 8d 98 10 fe ff ff 	lea    -0x1f0(%rax),%rbx
    919f:	48 8d 35 3a 02 00 00 	lea    0x23a(%rip),%rsi        # 93e0 <_ZN3std6thread5local4fast13destroy_value17he06e20496e90bfecE.llvm.18210582494582479269>
    91a6:	48 89 df             	mov    %rbx,%rdi
    91a9:	ff 15 f1 fa 22 00    	callq  *0x22faf1(%rip)        # 238ca0 <_GLOBAL_OFFSET_TABLE_+0x348>
    91af:	41 c6 86 80 ff ff ff 	movb   $0x1,-0x80(%r14)
    91b6:	01 
    91b7:	48 89 d8             	mov    %rbx,%rax
    91ba:	48 83 c4 08          	add    $0x8,%rsp
    91be:	5b                   	pop    %rbx
    91bf:	41 5e                	pop    %r14
    91c1:	c3                   	retq   
    91c2:	66 2e 0f 1f 84 00 00 	nopw   %cs:0x0(%rax,%rax,1)
    91c9:	00 00 00 
    91cc:	0f 1f 40 00          	nopl   0x0(%rax)

00000000000091d0 <_ZN46_$LT$std..thread..local..LocalKey$LT$T$GT$$GT$4with17h19ec6b08d60a87c0E>:
    91d0:	55                   	push   %rbp
    91d1:	48 89 e5             	mov    %rsp,%rbp
    91d4:	41 56                	push   %r14
    91d6:	53                   	push   %rbx
    91d7:	48 83 e4 e0          	and    $0xffffffffffffffe0,%rsp
    91db:	48 81 ec e0 01 00 00 	sub    $0x1e0,%rsp
    91e2:	49 89 fe             	mov    %rdi,%r14
    91e5:	ff 17                	callq  *(%rdi)
    91e7:	48 85 c0             	test   %rax,%rax
    91ea:	0f 84 d4 01 00 00    	je     93c4 <_ZN46_$LT$std..thread..local..LocalKey$LT$T$GT$$GT$4with17h19ec6b08d60a87c0E+0x1f4>
    91f0:	48 89 c3             	mov    %rax,%rbx
    91f3:	80 38 01             	cmpb   $0x1,(%rax)
    91f6:	0f 84 b8 01 00 00    	je     93b4 <_ZN46_$LT$std..thread..local..LocalKey$LT$T$GT$$GT$4with17h19ec6b08d60a87c0E+0x1e4>
    91fc:	48 8d bc 24 80 00 00 	lea    0x80(%rsp),%rdi
    9203:	00 
    9204:	41 ff 56 08          	callq  *0x8(%r14)
    9208:	0f 28 84 24 c0 00 00 	movaps 0xc0(%rsp),%xmm0
    920f:	00 
    9210:	0f 29 44 24 70       	movaps %xmm0,0x70(%rsp)
    9215:	0f 28 b4 24 80 00 00 	movaps 0x80(%rsp),%xmm6
    921c:	00 
    921d:	44 0f 28 9c 24 90 00 	movaps 0x90(%rsp),%xmm11
    9224:	00 00 
    9226:	0f 28 a4 24 a0 00 00 	movaps 0xa0(%rsp),%xmm4
    922d:	00 
    922e:	44 0f 28 bc 24 b0 00 	movaps 0xb0(%rsp),%xmm15
    9235:	00 00 
    9237:	0f 28 84 24 d0 00 00 	movaps 0xd0(%rsp),%xmm0
    923e:	00 
    923f:	0f 29 44 24 60       	movaps %xmm0,0x60(%rsp)
    9244:	0f 28 bc 24 e0 00 00 	movaps 0xe0(%rsp),%xmm7
    924b:	00 
    924c:	0f 28 84 24 f0 00 00 	movaps 0xf0(%rsp),%xmm0
    9253:	00 
    9254:	0f 29 44 24 50       	movaps %xmm0,0x50(%rsp)
    9259:	44 0f 28 84 24 00 01 	movaps 0x100(%rsp),%xmm8
    9260:	00 00 
    9262:	0f 28 84 24 10 01 00 	movaps 0x110(%rsp),%xmm0
    9269:	00 
    926a:	0f 29 44 24 40       	movaps %xmm0,0x40(%rsp)
    926f:	44 0f 28 8c 24 20 01 	movaps 0x120(%rsp),%xmm9
    9276:	00 00 
    9278:	0f 28 84 24 30 01 00 	movaps 0x130(%rsp),%xmm0
    927f:	00 
    9280:	0f 29 44 24 30       	movaps %xmm0,0x30(%rsp)
    9285:	44 0f 28 94 24 40 01 	movaps 0x140(%rsp),%xmm10
    928c:	00 00 
    928e:	44 0f 28 ac 24 50 01 	movaps 0x150(%rsp),%xmm13
    9295:	00 00 
    9297:	0f 28 ac 24 60 01 00 	movaps 0x160(%rsp),%xmm5
    929e:	00 
    929f:	44 0f 28 b4 24 70 01 	movaps 0x170(%rsp),%xmm14
    92a6:	00 00 
    92a8:	0f 29 74 24 10       	movaps %xmm6,0x10(%rsp)
    92ad:	0f 28 b4 24 80 01 00 	movaps 0x180(%rsp),%xmm6
    92b4:	00 
    92b5:	c6 04 24 01          	movb   $0x1,(%rsp)
    92b9:	8a 04 24             	mov    (%rsp),%al
    92bc:	48 8b 4c 24 01       	mov    0x1(%rsp),%rcx
    92c1:	8b 54 24 09          	mov    0x9(%rsp),%edx
    92c5:	0f b7 74 24 0d       	movzwl 0xd(%rsp),%esi
    92ca:	40 8a 7c 24 0f       	mov    0xf(%rsp),%dil
    92cf:	0f 28 94 24 90 01 00 	movaps 0x190(%rsp),%xmm2
    92d6:	00 
    92d7:	0f 28 84 24 a0 01 00 	movaps 0x1a0(%rsp),%xmm0
    92de:	00 
    92df:	0f 28 9c 24 b0 01 00 	movaps 0x1b0(%rsp),%xmm3
    92e6:	00 
    92e7:	0f 28 8c 24 c0 01 00 	movaps 0x1c0(%rsp),%xmm1
    92ee:	00 
    92ef:	44 0f 28 64 24 10    	movaps 0x10(%rsp),%xmm12
    92f5:	44 0f 29 63 10       	movaps %xmm12,0x10(%rbx)
    92fa:	88 03                	mov    %al,(%rbx)
    92fc:	48 89 4b 01          	mov    %rcx,0x1(%rbx)
    9300:	89 53 09             	mov    %edx,0x9(%rbx)
    9303:	66 89 73 0d          	mov    %si,0xd(%rbx)
    9307:	40 88 7b 0f          	mov    %dil,0xf(%rbx)
    930b:	0f 29 63 30          	movaps %xmm4,0x30(%rbx)
    930f:	44 0f 29 5b 20       	movaps %xmm11,0x20(%rbx)
    9314:	0f 28 64 24 70       	movaps 0x70(%rsp),%xmm4
    9319:	0f 29 63 50          	movaps %xmm4,0x50(%rbx)
    931d:	44 0f 29 7b 40       	movaps %xmm15,0x40(%rbx)
    9322:	0f 29 7b 70          	movaps %xmm7,0x70(%rbx)
    9326:	0f 28 64 24 60       	movaps 0x60(%rsp),%xmm4
    932b:	0f 29 63 60          	movaps %xmm4,0x60(%rbx)
    932f:	44 0f 29 83 90 00 00 	movaps %xmm8,0x90(%rbx)
    9336:	00 
    9337:	0f 28 64 24 50       	movaps 0x50(%rsp),%xmm4
    933c:	0f 29 a3 80 00 00 00 	movaps %xmm4,0x80(%rbx)
    9343:	44 0f 29 8b b0 00 00 	movaps %xmm9,0xb0(%rbx)
    934a:	00 
    934b:	0f 28 64 24 40       	movaps 0x40(%rsp),%xmm4
    9350:	0f 29 a3 a0 00 00 00 	movaps %xmm4,0xa0(%rbx)
    9357:	44 0f 29 93 d0 00 00 	movaps %xmm10,0xd0(%rbx)
    935e:	00 
    935f:	0f 28 64 24 30       	movaps 0x30(%rsp),%xmm4
    9364:	0f 29 a3 c0 00 00 00 	movaps %xmm4,0xc0(%rbx)
    936b:	0f 29 ab f0 00 00 00 	movaps %xmm5,0xf0(%rbx)
    9372:	44 0f 29 ab e0 00 00 	movaps %xmm13,0xe0(%rbx)
    9379:	00 
    937a:	0f 29 b3 10 01 00 00 	movaps %xmm6,0x110(%rbx)
    9381:	44 0f 29 b3 00 01 00 	movaps %xmm14,0x100(%rbx)
    9388:	00 
    9389:	0f 29 83 30 01 00 00 	movaps %xmm0,0x130(%rbx)
    9390:	0f 29 93 20 01 00 00 	movaps %xmm2,0x120(%rbx)
    9397:	0f 29 8b 50 01 00 00 	movaps %xmm1,0x150(%rbx)
    939e:	0f 29 9b 40 01 00 00 	movaps %xmm3,0x140(%rbx)
    93a5:	0f 28 84 24 d0 01 00 	movaps 0x1d0(%rsp),%xmm0
    93ac:	00 
    93ad:	0f 29 83 60 01 00 00 	movaps %xmm0,0x160(%rbx)
    93b4:	48 83 c3 10          	add    $0x10,%rbx
    93b8:	48 89 d8             	mov    %rbx,%rax
    93bb:	48 8d 65 f0          	lea    -0x10(%rbp),%rsp
    93bf:	5b                   	pop    %rbx
    93c0:	41 5e                	pop    %r14
    93c2:	5d                   	pop    %rbp
    93c3:	c3                   	retq   
    93c4:	48 8d 3d 56 16 02 00 	lea    0x21656(%rip),%rdi        # 2aa21 <anon.0b2c823383dec51af8e2b43c78491c46.0.llvm.17017948224046636406+0xfc>
    93cb:	be 39 00 00 00       	mov    $0x39,%esi
    93d0:	e8 6b fa ff ff       	callq  8e40 <_ZN4core6result13unwrap_failed17h5e21d82789932eebE>
    93d5:	0f 0b                	ud2    
    93d7:	66 0f 1f 84 00 00 00 	nopw   0x0(%rax,%rax,1)
    93de:	00 00 

00000000000093e0 <_ZN3std6thread5local4fast13destroy_value17he06e20496e90bfecE.llvm.18210582494582479269>:
    93e0:	c6 87 71 01 00 00 01 	movb   $0x1,0x171(%rdi)
    93e7:	ff 25 9b fa 22 00    	jmpq   *0x22fa9b(%rip)        # 238e88 <_GLOBAL_OFFSET_TABLE_+0x530>
    93ed:	0f 1f 00             	nopl   (%rax)

00000000000093f0 <_ZN9c2_chacha4guts11refill_wide13dispatch_init17h374c7c172117aa2eE>:
    93f0:	53                   	push   %rbx
    93f1:	48 8d 1d 40 fc 22 00 	lea    0x22fc40(%rip),%rbx        # 239038 <_ZN3std10std_detect6detect5cache5CACHE17h183503d99ed0e829E>
    93f8:	48 8b 03             	mov    (%rbx),%rax
    93fb:	48 83 f8 ff          	cmp    $0xffffffffffffffff,%rax
    93ff:	74 5c                	je     945d <_ZN9c2_chacha4guts11refill_wide13dispatch_init17h374c7c172117aa2eE+0x6d>
    9401:	48 8b 03             	mov    (%rbx),%rax
    9404:	66 85 c0             	test   %ax,%ax
    9407:	78 65                	js     946e <_ZN9c2_chacha4guts11refill_wide13dispatch_init17h374c7c172117aa2eE+0x7e>
    9409:	48 8b 03             	mov    (%rbx),%rax
    940c:	48 83 f8 ff          	cmp    $0xffffffffffffffff,%rax
    9410:	74 65                	je     9477 <_ZN9c2_chacha4guts11refill_wide13dispatch_init17h374c7c172117aa2eE+0x87>
    9412:	48 8b 03             	mov    (%rbx),%rax
    9415:	a9 00 40 00 00       	test   $0x4000,%eax
    941a:	75 6e                	jne    948a <_ZN9c2_chacha4guts11refill_wide13dispatch_init17h374c7c172117aa2eE+0x9a>
    941c:	48 8b 03             	mov    (%rbx),%rax
    941f:	48 83 f8 ff          	cmp    $0xffffffffffffffff,%rax
    9423:	74 6e                	je     9493 <_ZN9c2_chacha4guts11refill_wide13dispatch_init17h374c7c172117aa2eE+0xa3>
    9425:	48 8b 03             	mov    (%rbx),%rax
    9428:	a9 00 04 00 00       	test   $0x400,%eax
    942d:	75 77                	jne    94a6 <_ZN9c2_chacha4guts11refill_wide13dispatch_init17h374c7c172117aa2eE+0xb6>
    942f:	48 8b 03             	mov    (%rbx),%rax
    9432:	48 83 f8 ff          	cmp    $0xffffffffffffffff,%rax
    9436:	75 09                	jne    9441 <_ZN9c2_chacha4guts11refill_wide13dispatch_init17h374c7c172117aa2eE+0x51>
    9438:	ff 15 b2 f6 22 00    	callq  *0x22f6b2(%rip)        # 238af0 <_GLOBAL_OFFSET_TABLE_+0x198>
    943e:	48 89 03             	mov    %rax,(%rbx)
    9441:	48 8b 03             	mov    (%rbx),%rax
    9444:	a9 00 02 00 00       	test   $0x200,%eax
    9449:	48 8d 0d e0 1d 00 00 	lea    0x1de0(%rip),%rcx        # b230 <_ZN9c2_chacha4guts11refill_wide13dispatch_init9impl_sse217h8295b311c543de62E.llvm.14015113955960590988>
    9450:	48 8d 05 89 14 00 00 	lea    0x1489(%rip),%rax        # a8e0 <_ZN9c2_chacha4guts11refill_wide13dispatch_init10impl_ssse317ha73003c187df4e76E.llvm.14015113955960590988>
    9457:	48 0f 44 c1          	cmove  %rcx,%rax
    945b:	5b                   	pop    %rbx
    945c:	c3                   	retq   
    945d:	ff 15 8d f6 22 00    	callq  *0x22f68d(%rip)        # 238af0 <_GLOBAL_OFFSET_TABLE_+0x198>
    9463:	48 89 03             	mov    %rax,(%rbx)
    9466:	48 8b 03             	mov    (%rbx),%rax
    9469:	66 85 c0             	test   %ax,%ax
    946c:	79 9b                	jns    9409 <_ZN9c2_chacha4guts11refill_wide13dispatch_init17h374c7c172117aa2eE+0x19>
    946e:	48 8d 05 3b 00 00 00 	lea    0x3b(%rip),%rax        # 94b0 <_ZN9c2_chacha4guts11refill_wide13dispatch_init9impl_avx217hfb4ce45d27ed0241E.llvm.14015113955960590988>
    9475:	5b                   	pop    %rbx
    9476:	c3                   	retq   
    9477:	ff 15 73 f6 22 00    	callq  *0x22f673(%rip)        # 238af0 <_GLOBAL_OFFSET_TABLE_+0x198>
    947d:	48 89 03             	mov    %rax,(%rbx)
    9480:	48 8b 03             	mov    (%rbx),%rax
    9483:	a9 00 40 00 00       	test   $0x4000,%eax
    9488:	74 92                	je     941c <_ZN9c2_chacha4guts11refill_wide13dispatch_init17h374c7c172117aa2eE+0x2c>
    948a:	48 8d 05 ff 03 00 00 	lea    0x3ff(%rip),%rax        # 9890 <_ZN9c2_chacha4guts11refill_wide13dispatch_init8impl_avx17h653539598dce3c09E.llvm.14015113955960590988>
    9491:	5b                   	pop    %rbx
    9492:	c3                   	retq   
    9493:	ff 15 57 f6 22 00    	callq  *0x22f657(%rip)        # 238af0 <_GLOBAL_OFFSET_TABLE_+0x198>
    9499:	48 89 03             	mov    %rax,(%rbx)
    949c:	48 8b 03             	mov    (%rbx),%rax
    949f:	a9 00 04 00 00       	test   $0x400,%eax
    94a4:	74 89                	je     942f <_ZN9c2_chacha4guts11refill_wide13dispatch_init17h374c7c172117aa2eE+0x3f>
    94a6:	48 8d 05 c3 0b 00 00 	lea    0xbc3(%rip),%rax        # a070 <_ZN9c2_chacha4guts11refill_wide13dispatch_init10impl_sse4117h36968a385e809dcaE.llvm.14015113955960590988>
    94ad:	5b                   	pop    %rbx
    94ae:	c3                   	retq   
    94af:	90                   	nop

00000000000094b0 <_ZN9c2_chacha4guts11refill_wide13dispatch_init9impl_avx217hfb4ce45d27ed0241E.llvm.14015113955960590988>:
    94b0:	48 81 ec 48 01 00 00 	sub    $0x148,%rsp
    94b7:	c5 f9 6f 47 20       	vmovdqa 0x20(%rdi),%xmm0
    94bc:	c4 e1 f9 7e c0       	vmovq  %xmm0,%rax
    94c1:	48 8d 48 01          	lea    0x1(%rax),%rcx
    94c5:	c4 e3 79 22 c9 00    	vpinsrd $0x0,%ecx,%xmm0,%xmm1
    94cb:	48 c1 e9 20          	shr    $0x20,%rcx
    94cf:	c4 63 71 22 f1 01    	vpinsrd $0x1,%ecx,%xmm1,%xmm14
    94d5:	48 8d 48 02          	lea    0x2(%rax),%rcx
    94d9:	c4 e3 79 22 d1 00    	vpinsrd $0x0,%ecx,%xmm0,%xmm2
    94df:	48 c1 e9 20          	shr    $0x20,%rcx
    94e3:	c4 e3 69 22 d1 01    	vpinsrd $0x1,%ecx,%xmm2,%xmm2
    94e9:	48 8d 48 03          	lea    0x3(%rax),%rcx
    94ed:	c4 e3 79 22 d9 00    	vpinsrd $0x0,%ecx,%xmm0,%xmm3
    94f3:	48 c1 e9 20          	shr    $0x20,%rcx
    94f7:	c4 e3 61 22 d9 01    	vpinsrd $0x1,%ecx,%xmm3,%xmm3
    94fd:	c5 f9 6f 37          	vmovdqa (%rdi),%xmm6
    9501:	c5 79 6f 4f 10       	vmovdqa 0x10(%rdi),%xmm9
    9506:	c4 e3 4d 38 ee 01    	vinserti128 $0x1,%xmm6,%ymm6,%ymm5
    950c:	c4 43 35 38 c1 01    	vinserti128 $0x1,%xmm9,%ymm9,%ymm8
    9512:	c4 c3 7d 38 e6 01    	vinserti128 $0x1,%xmm14,%ymm0,%ymm4
    9518:	c4 63 6d 38 e3 01    	vinserti128 $0x1,%xmm3,%ymm2,%ymm12
    951e:	85 f6                	test   %esi,%esi
    9520:	0f 84 d3 01 00 00    	je     96f9 <_ZN9c2_chacha4guts11refill_wide13dispatch_init9impl_avx217hfb4ce45d27ed0241E.llvm.14015113955960590988+0x249>
    9526:	c5 7d 6f 2d 32 15 02 	vmovdqa 0x21532(%rip),%ymm13        # 2aa60 <anon.0b2c823383dec51af8e2b43c78491c46.0.llvm.17017948224046636406+0x13b>
    952d:	00 
    952e:	c5 fd 6f 35 4a 15 02 	vmovdqa 0x2154a(%rip),%ymm6        # 2aa80 <anon.0b2c823383dec51af8e2b43c78491c46.0.llvm.17017948224046636406+0x15b>
    9535:	00 
    9536:	c4 41 7d 6f d8       	vmovdqa %ymm8,%ymm11
    953b:	c5 7d 6f d5          	vmovdqa %ymm5,%ymm10
    953f:	c5 7d 7f ef          	vmovdqa %ymm13,%ymm7
    9543:	66 2e 0f 1f 84 00 00 	nopw   %cs:0x0(%rax,%rax,1)
    954a:	00 00 00 
    954d:	0f 1f 00             	nopl   (%rax)
    9550:	c4 c1 45 fe fa       	vpaddd %ymm10,%ymm7,%ymm7
    9555:	c5 15 fe cd          	vpaddd %ymm5,%ymm13,%ymm9
    9559:	c5 dd ef e7          	vpxor  %ymm7,%ymm4,%ymm4
    955d:	c4 41 1d ef e1       	vpxor  %ymm9,%ymm12,%ymm12
    9562:	c5 ff 70 e4 b1       	vpshuflw $0xb1,%ymm4,%ymm4
    9567:	c5 fe 70 e4 b1       	vpshufhw $0xb1,%ymm4,%ymm4
    956c:	c4 41 7f 70 e4 b1    	vpshuflw $0xb1,%ymm12,%ymm12
    9572:	c4 41 7e 70 e4 b1    	vpshufhw $0xb1,%ymm12,%ymm12
    9578:	c4 41 5d fe db       	vpaddd %ymm11,%ymm4,%ymm11
    957d:	c4 41 1d fe c0       	vpaddd %ymm8,%ymm12,%ymm8
    9582:	c4 41 25 ef d2       	vpxor  %ymm10,%ymm11,%ymm10
    9587:	c4 c1 15 72 d2 14    	vpsrld $0x14,%ymm10,%ymm13
    958d:	c4 c1 2d 72 f2 0c    	vpslld $0xc,%ymm10,%ymm10
    9593:	c4 41 2d eb d5       	vpor   %ymm13,%ymm10,%ymm10
    9598:	c5 bd ef ed          	vpxor  %ymm5,%ymm8,%ymm5
    959c:	c5 95 72 d5 14       	vpsrld $0x14,%ymm5,%ymm13
    95a1:	c5 d5 72 f5 0c       	vpslld $0xc,%ymm5,%ymm5
    95a6:	c4 c1 55 eb ed       	vpor   %ymm13,%ymm5,%ymm5
    95ab:	c5 ad fe ff          	vpaddd %ymm7,%ymm10,%ymm7
    95af:	c4 41 55 fe c9       	vpaddd %ymm9,%ymm5,%ymm9
    95b4:	c5 dd ef e7          	vpxor  %ymm7,%ymm4,%ymm4
    95b8:	c4 e2 5d 00 e6       	vpshufb %ymm6,%ymm4,%ymm4
    95bd:	c4 41 1d ef e1       	vpxor  %ymm9,%ymm12,%ymm12
    95c2:	c4 62 1d 00 e6       	vpshufb %ymm6,%ymm12,%ymm12
    95c7:	c5 25 fe dc          	vpaddd %ymm4,%ymm11,%ymm11
    95cb:	c4 41 3d fe c4       	vpaddd %ymm12,%ymm8,%ymm8
    95d0:	c4 41 25 ef d2       	vpxor  %ymm10,%ymm11,%ymm10
    95d5:	c5 bd ef ed          	vpxor  %ymm5,%ymm8,%ymm5
    95d9:	c4 c1 15 72 d2 19    	vpsrld $0x19,%ymm10,%ymm13
    95df:	c4 c1 2d 72 f2 07    	vpslld $0x7,%ymm10,%ymm10
    95e5:	c4 41 2d eb d5       	vpor   %ymm13,%ymm10,%ymm10
    95ea:	c5 95 72 d5 19       	vpsrld $0x19,%ymm5,%ymm13
    95ef:	c5 d5 72 f5 07       	vpslld $0x7,%ymm5,%ymm5
    95f4:	c4 c1 55 eb ed       	vpor   %ymm13,%ymm5,%ymm5
    95f9:	c4 41 7d 70 d2 39    	vpshufd $0x39,%ymm10,%ymm10
    95ff:	c5 fd 70 ed 39       	vpshufd $0x39,%ymm5,%ymm5
    9604:	c4 41 7d 70 db 4e    	vpshufd $0x4e,%ymm11,%ymm11
    960a:	c4 41 7d 70 c0 4e    	vpshufd $0x4e,%ymm8,%ymm8
    9610:	c5 fd 70 e4 93       	vpshufd $0x93,%ymm4,%ymm4
    9615:	c4 41 7d 70 e4 93    	vpshufd $0x93,%ymm12,%ymm12
    961b:	c5 ad fe ff          	vpaddd %ymm7,%ymm10,%ymm7
    961f:	c4 41 55 fe c9       	vpaddd %ymm9,%ymm5,%ymm9
    9624:	c5 c5 ef e4          	vpxor  %ymm4,%ymm7,%ymm4
    9628:	c4 41 35 ef e4       	vpxor  %ymm12,%ymm9,%ymm12
    962d:	c5 ff 70 e4 b1       	vpshuflw $0xb1,%ymm4,%ymm4
    9632:	c5 fe 70 e4 b1       	vpshufhw $0xb1,%ymm4,%ymm4
    9637:	c4 41 7f 70 e4 b1    	vpshuflw $0xb1,%ymm12,%ymm12
    963d:	c4 41 7e 70 e4 b1    	vpshufhw $0xb1,%ymm12,%ymm12
    9643:	c5 25 fe dc          	vpaddd %ymm4,%ymm11,%ymm11
    9647:	c4 41 3d fe c4       	vpaddd %ymm12,%ymm8,%ymm8
    964c:	c4 41 25 ef d2       	vpxor  %ymm10,%ymm11,%ymm10
    9651:	c5 bd ef ed          	vpxor  %ymm5,%ymm8,%ymm5
    9655:	c4 c1 15 72 d2 14    	vpsrld $0x14,%ymm10,%ymm13
    965b:	c4 c1 2d 72 f2 0c    	vpslld $0xc,%ymm10,%ymm10
    9661:	c4 41 2d eb d5       	vpor   %ymm13,%ymm10,%ymm10
    9666:	c5 95 72 d5 14       	vpsrld $0x14,%ymm5,%ymm13
    966b:	c5 d5 72 f5 0c       	vpslld $0xc,%ymm5,%ymm5
    9670:	c4 c1 55 eb ed       	vpor   %ymm13,%ymm5,%ymm5
    9675:	c5 ad fe ff          	vpaddd %ymm7,%ymm10,%ymm7
    9679:	c4 41 55 fe e9       	vpaddd %ymm9,%ymm5,%ymm13
    967e:	c5 dd ef e7          	vpxor  %ymm7,%ymm4,%ymm4
    9682:	c4 e2 5d 00 e6       	vpshufb %ymm6,%ymm4,%ymm4
    9687:	c4 41 1d ef cd       	vpxor  %ymm13,%ymm12,%ymm9
    968c:	c4 62 35 00 ce       	vpshufb %ymm6,%ymm9,%ymm9
    9691:	c5 25 fe dc          	vpaddd %ymm4,%ymm11,%ymm11
    9695:	c4 41 3d fe c1       	vpaddd %ymm9,%ymm8,%ymm8
    969a:	c4 41 25 ef d2       	vpxor  %ymm10,%ymm11,%ymm10
    969f:	c5 bd ef ed          	vpxor  %ymm5,%ymm8,%ymm5
    96a3:	c4 c1 1d 72 d2 19    	vpsrld $0x19,%ymm10,%ymm12
    96a9:	c4 c1 2d 72 f2 07    	vpslld $0x7,%ymm10,%ymm10
    96af:	c4 41 2d eb d4       	vpor   %ymm12,%ymm10,%ymm10
    96b4:	c5 9d 72 d5 19       	vpsrld $0x19,%ymm5,%ymm12
    96b9:	c5 d5 72 f5 07       	vpslld $0x7,%ymm5,%ymm5
    96be:	c4 c1 55 eb ec       	vpor   %ymm12,%ymm5,%ymm5
    96c3:	c4 41 7d 70 d2 93    	vpshufd $0x93,%ymm10,%ymm10
    96c9:	c5 fd 70 ed 93       	vpshufd $0x93,%ymm5,%ymm5
    96ce:	c4 41 7d 70 db 4e    	vpshufd $0x4e,%ymm11,%ymm11
    96d4:	c4 41 7d 70 c0 4e    	vpshufd $0x4e,%ymm8,%ymm8
    96da:	c5 fd 70 e4 39       	vpshufd $0x39,%ymm4,%ymm4
    96df:	c4 41 7d 70 e1 39    	vpshufd $0x39,%ymm9,%ymm12
    96e5:	83 c6 ff             	add    $0xffffffff,%esi
    96e8:	0f 85 62 fe ff ff    	jne    9550 <_ZN9c2_chacha4guts11refill_wide13dispatch_init9impl_avx217hfb4ce45d27ed0241E.llvm.14015113955960590988+0xa0>
    96ee:	c5 f9 6f 37          	vmovdqa (%rdi),%xmm6
    96f2:	c5 79 6f 4f 10       	vmovdqa 0x10(%rdi),%xmm9
    96f7:	eb 15                	jmp    970e <_ZN9c2_chacha4guts11refill_wide13dispatch_init9impl_avx217hfb4ce45d27ed0241E.llvm.14015113955960590988+0x25e>
    96f9:	c5 fd 6f 3d 5f 13 02 	vmovdqa 0x2135f(%rip),%ymm7        # 2aa60 <anon.0b2c823383dec51af8e2b43c78491c46.0.llvm.17017948224046636406+0x13b>
    9700:	00 
    9701:	c5 7d 6f ef          	vmovdqa %ymm7,%ymm13
    9705:	c5 7d 6f d5          	vmovdqa %ymm5,%ymm10
    9709:	c4 41 7d 6f d8       	vmovdqa %ymm8,%ymm11
    970e:	48 83 c0 04          	add    $0x4,%rax
    9712:	48 89 c1             	mov    %rax,%rcx
    9715:	c4 e3 79 22 c8 00    	vpinsrd $0x0,%eax,%xmm0,%xmm1
    971b:	48 c1 e9 20          	shr    $0x20,%rcx
    971f:	c4 e3 71 22 c9 01    	vpinsrd $0x1,%ecx,%xmm1,%xmm1
    9725:	c5 fe 7f 7c 24 40    	vmovdqu %ymm7,0x40(%rsp)
    972b:	c5 7e 7f 6c 24 60    	vmovdqu %ymm13,0x60(%rsp)
    9731:	c5 7e 7f 94 24 80 00 	vmovdqu %ymm10,0x80(%rsp)
    9738:	00 00 
    973a:	c5 fe 7f ac 24 a0 00 	vmovdqu %ymm5,0xa0(%rsp)
    9741:	00 00 
    9743:	c5 7e 7f 9c 24 c0 00 	vmovdqu %ymm11,0xc0(%rsp)
    974a:	00 00 
    974c:	c5 7e 7f 84 24 e0 00 	vmovdqu %ymm8,0xe0(%rsp)
    9753:	00 00 
    9755:	c5 fe 7f a4 24 00 01 	vmovdqu %ymm4,0x100(%rsp)
    975c:	00 00 
    975e:	c5 7e 7f a4 24 20 01 	vmovdqu %ymm12,0x120(%rsp)
    9765:	00 00 
    9767:	c5 f9 7f 04 24       	vmovdqa %xmm0,(%rsp)
    976c:	c5 79 7f 74 24 10    	vmovdqa %xmm14,0x10(%rsp)
    9772:	c5 f9 7f 54 24 20    	vmovdqa %xmm2,0x20(%rsp)
    9778:	c5 f9 7f 5c 24 30    	vmovdqa %xmm3,0x30(%rsp)
    977e:	c5 f9 7f 4f 20       	vmovdqa %xmm1,0x20(%rdi)
    9783:	c5 f9 6f 0d 15 13 02 	vmovdqa 0x21315(%rip),%xmm1        # 2aaa0 <anon.0b2c823383dec51af8e2b43c78491c46.0.llvm.17017948224046636406+0x17b>
    978a:	00 
    978b:	c5 c1 fe d1          	vpaddd %xmm1,%xmm7,%xmm2
    978f:	c5 fa 7f 12          	vmovdqu %xmm2,(%rdx)
    9793:	c4 c1 49 fe d2       	vpaddd %xmm10,%xmm6,%xmm2
    9798:	c5 fa 7f 52 10       	vmovdqu %xmm2,0x10(%rdx)
    979d:	c4 c1 31 fe d3       	vpaddd %xmm11,%xmm9,%xmm2
    97a2:	c5 fa 7f 52 20       	vmovdqu %xmm2,0x20(%rdx)
    97a7:	c5 f9 fe c4          	vpaddd %xmm4,%xmm0,%xmm0
    97ab:	c5 fa 7f 42 30       	vmovdqu %xmm0,0x30(%rdx)
    97b0:	c5 f9 6f 44 24 10    	vmovdqa 0x10(%rsp),%xmm0
    97b6:	c5 f1 fe 54 24 50    	vpaddd 0x50(%rsp),%xmm1,%xmm2
    97bc:	c5 c9 fe 9c 24 90 00 	vpaddd 0x90(%rsp),%xmm6,%xmm3
    97c3:	00 00 
    97c5:	c5 b1 fe a4 24 d0 00 	vpaddd 0xd0(%rsp),%xmm9,%xmm4
    97cc:	00 00 
    97ce:	c5 f9 fe 84 24 10 01 	vpaddd 0x110(%rsp),%xmm0,%xmm0
    97d5:	00 00 
    97d7:	c5 fa 7f 52 40       	vmovdqu %xmm2,0x40(%rdx)
    97dc:	c5 fa 7f 5a 50       	vmovdqu %xmm3,0x50(%rdx)
    97e1:	c5 fa 7f 62 60       	vmovdqu %xmm4,0x60(%rdx)
    97e6:	c5 fa 7f 42 70       	vmovdqu %xmm0,0x70(%rdx)
    97eb:	c5 f1 fe 44 24 60    	vpaddd 0x60(%rsp),%xmm1,%xmm0
    97f1:	c5 c9 fe 94 24 a0 00 	vpaddd 0xa0(%rsp),%xmm6,%xmm2
    97f8:	00 00 
    97fa:	c5 b1 fe 9c 24 e0 00 	vpaddd 0xe0(%rsp),%xmm9,%xmm3
    9801:	00 00 
    9803:	c5 f9 6f 64 24 20    	vmovdqa 0x20(%rsp),%xmm4
    9809:	c5 d9 fe a4 24 20 01 	vpaddd 0x120(%rsp),%xmm4,%xmm4
    9810:	00 00 
    9812:	c5 fa 7f 82 80 00 00 	vmovdqu %xmm0,0x80(%rdx)
    9819:	00 
    981a:	c5 fa 7f 92 90 00 00 	vmovdqu %xmm2,0x90(%rdx)
    9821:	00 
    9822:	c5 fa 7f 9a a0 00 00 	vmovdqu %xmm3,0xa0(%rdx)
    9829:	00 
    982a:	c5 fa 7f a2 b0 00 00 	vmovdqu %xmm4,0xb0(%rdx)
    9831:	00 
    9832:	c5 f9 6f 44 24 30    	vmovdqa 0x30(%rsp),%xmm0
    9838:	c5 f1 fe 4c 24 70    	vpaddd 0x70(%rsp),%xmm1,%xmm1
    983e:	c5 c9 fe 94 24 b0 00 	vpaddd 0xb0(%rsp),%xmm6,%xmm2
    9845:	00 00 
    9847:	c5 b1 fe 9c 24 f0 00 	vpaddd 0xf0(%rsp),%xmm9,%xmm3
    984e:	00 00 
    9850:	c5 f9 fe 84 24 30 01 	vpaddd 0x130(%rsp),%xmm0,%xmm0
    9857:	00 00 
    9859:	c5 fa 7f 8a c0 00 00 	vmovdqu %xmm1,0xc0(%rdx)
    9860:	00 
    9861:	c5 fa 7f 92 d0 00 00 	vmovdqu %xmm2,0xd0(%rdx)
    9868:	00 
    9869:	c5 fa 7f 9a e0 00 00 	vmovdqu %xmm3,0xe0(%rdx)
    9870:	00 
    9871:	c5 fa 7f 82 f0 00 00 	vmovdqu %xmm0,0xf0(%rdx)
    9878:	00 
    9879:	c5 f8 77             	vzeroupper 
    987c:	48 81 c4 48 01 00 00 	add    $0x148,%rsp
    9883:	c3                   	retq   
    9884:	66 2e 0f 1f 84 00 00 	nopw   %cs:0x0(%rax,%rax,1)
    988b:	00 00 00 
    988e:	66 90                	xchg   %ax,%ax

0000000000009890 <_ZN9c2_chacha4guts11refill_wide13dispatch_init8impl_avx17h653539598dce3c09E.llvm.14015113955960590988>:
    9890:	55                   	push   %rbp
    9891:	48 89 e5             	mov    %rsp,%rbp
    9894:	41 57                	push   %r15
    9896:	41 56                	push   %r14
    9898:	53                   	push   %rbx
    9899:	48 83 e4 e0          	and    $0xffffffffffffffe0,%rsp
    989d:	48 81 ec e0 01 00 00 	sub    $0x1e0,%rsp
    98a4:	49 89 fe             	mov    %rdi,%r14
    98a7:	c5 f9 6f 47 20       	vmovdqa 0x20(%rdi),%xmm0
    98ac:	c4 e1 f9 7e c0       	vmovq  %xmm0,%rax
    98b1:	48 8d 48 01          	lea    0x1(%rax),%rcx
    98b5:	c4 e3 79 22 c9 00    	vpinsrd $0x0,%ecx,%xmm0,%xmm1
    98bb:	48 c1 e9 20          	shr    $0x20,%rcx
    98bf:	c4 e3 71 22 c9 01    	vpinsrd $0x1,%ecx,%xmm1,%xmm1
    98c5:	48 8d 48 02          	lea    0x2(%rax),%rcx
    98c9:	c4 e3 79 22 d1 00    	vpinsrd $0x0,%ecx,%xmm0,%xmm2
    98cf:	49 89 d7             	mov    %rdx,%r15
    98d2:	89 f3                	mov    %esi,%ebx
    98d4:	48 c1 e9 20          	shr    $0x20,%rcx
    98d8:	c4 e3 69 22 d1 01    	vpinsrd $0x1,%ecx,%xmm2,%xmm2
    98de:	c5 f8 28 1f          	vmovaps (%rdi),%xmm3
    98e2:	c5 f8 29 5c 24 20    	vmovaps %xmm3,0x20(%rsp)
    98e8:	48 83 c0 03          	add    $0x3,%rax
    98ec:	c4 e3 79 22 d8 00    	vpinsrd $0x0,%eax,%xmm0,%xmm3
    98f2:	c5 f8 28 67 10       	vmovaps 0x10(%rdi),%xmm4
    98f7:	c5 f8 29 64 24 40    	vmovaps %xmm4,0x40(%rsp)
    98fd:	48 c1 e8 20          	shr    $0x20,%rax
    9901:	c4 e3 61 22 d8 01    	vpinsrd $0x1,%eax,%xmm3,%xmm3
    9907:	c5 f9 7f 84 24 80 00 	vmovdqa %xmm0,0x80(%rsp)
    990e:	00 00 
    9910:	c5 f9 7f 8c 24 90 00 	vmovdqa %xmm1,0x90(%rsp)
    9917:	00 00 
    9919:	c5 f9 7f 94 24 a0 00 	vmovdqa %xmm2,0xa0(%rsp)
    9920:	00 00 
    9922:	c5 f9 7f 9c 24 b0 00 	vmovdqa %xmm3,0xb0(%rsp)
    9929:	00 00 
    992b:	48 8d bc 24 00 01 00 	lea    0x100(%rsp),%rdi
    9932:	00 
    9933:	48 8d b4 24 80 00 00 	lea    0x80(%rsp),%rsi
    993a:	00 
    993b:	ff 15 67 f0 22 00    	callq  *0x22f067(%rip)        # 2389a8 <_GLOBAL_OFFSET_TABLE_+0x50>
    9941:	c5 fc 28 84 24 00 01 	vmovaps 0x100(%rsp),%ymm0
    9948:	00 00 
    994a:	c5 fc 28 8c 24 20 01 	vmovaps 0x120(%rsp),%ymm1
    9951:	00 00 
    9953:	c5 fc 29 8c 24 a0 00 	vmovaps %ymm1,0xa0(%rsp)
    995a:	00 00 
    995c:	c5 fc 29 84 24 80 00 	vmovaps %ymm0,0x80(%rsp)
    9963:	00 00 
    9965:	48 8d bc 24 c0 00 00 	lea    0xc0(%rsp),%rdi
    996c:	00 
    996d:	48 8d b4 24 80 00 00 	lea    0x80(%rsp),%rsi
    9974:	00 
    9975:	c5 f8 77             	vzeroupper 
    9978:	ff 15 4a f5 22 00    	callq  *0x22f54a(%rip)        # 238ec8 <_GLOBAL_OFFSET_TABLE_+0x570>
    997e:	c5 f9 6f 8c 24 c0 00 	vmovdqa 0xc0(%rsp),%xmm1
    9985:	00 00 
    9987:	c5 f9 6f 94 24 d0 00 	vmovdqa 0xd0(%rsp),%xmm2
    998e:	00 00 
    9990:	c5 79 6f bc 24 e0 00 	vmovdqa 0xe0(%rsp),%xmm15
    9997:	00 00 
    9999:	c5 f9 6f 9c 24 f0 00 	vmovdqa 0xf0(%rsp),%xmm3
    99a0:	00 00 
    99a2:	c5 79 6f 05 f6 10 02 	vmovdqa 0x210f6(%rip),%xmm8        # 2aaa0 <anon.0b2c823383dec51af8e2b43c78491c46.0.llvm.17017948224046636406+0x17b>
    99a9:	00 
    99aa:	85 db                	test   %ebx,%ebx
    99ac:	0f 84 20 04 00 00    	je     9dd2 <_ZN9c2_chacha4guts11refill_wide13dispatch_init8impl_avx17h653539598dce3c09E.llvm.14015113955960590988+0x542>
    99b2:	c5 f9 6f 05 e6 10 02 	vmovdqa 0x210e6(%rip),%xmm0        # 2aaa0 <anon.0b2c823383dec51af8e2b43c78491c46.0.llvm.17017948224046636406+0x17b>
    99b9:	00 
    99ba:	c5 79 6f c8          	vmovdqa %xmm0,%xmm9
    99be:	c5 79 6f e8          	vmovdqa %xmm0,%xmm13
    99c2:	c5 79 6f d0          	vmovdqa %xmm0,%xmm10
    99c6:	c5 f9 6f 6c 24 40    	vmovdqa 0x40(%rsp),%xmm5
    99cc:	c5 f9 7f 6c 24 50    	vmovdqa %xmm5,0x50(%rsp)
    99d2:	c5 f9 7f 6c 24 30    	vmovdqa %xmm5,0x30(%rsp)
    99d8:	c5 79 6f f5          	vmovdqa %xmm5,%xmm14
    99dc:	c5 f9 6f 64 24 20    	vmovdqa 0x20(%rsp),%xmm4
    99e2:	c5 f9 7f 64 24 60    	vmovdqa %xmm4,0x60(%rsp)
    99e8:	c5 f9 6f fc          	vmovdqa %xmm4,%xmm7
    99ec:	c5 79 6f e4          	vmovdqa %xmm4,%xmm12
    99f0:	c5 79 6f c3          	vmovdqa %xmm3,%xmm8
    99f4:	c5 79 7f fe          	vmovdqa %xmm15,%xmm6
    99f8:	0f 1f 84 00 00 00 00 	nopl   0x0(%rax,%rax,1)
    99ff:	00 
    9a00:	c5 f9 fe c4          	vpaddd %xmm4,%xmm0,%xmm0
    9a04:	c5 f9 7f 44 24 20    	vmovdqa %xmm0,0x20(%rsp)
    9a0a:	c5 f1 ef c0          	vpxor  %xmm0,%xmm1,%xmm0
    9a0e:	c5 fb 70 c0 b1       	vpshuflw $0xb1,%xmm0,%xmm0
    9a13:	c5 fa 70 c0 b1       	vpshufhw $0xb1,%xmm0,%xmm0
    9a18:	c5 f9 fe cd          	vpaddd %xmm5,%xmm0,%xmm1
    9a1c:	c5 f9 7f 4c 24 70    	vmovdqa %xmm1,0x70(%rsp)
    9a22:	c5 f9 6f ea          	vmovdqa %xmm2,%xmm5
    9a26:	c5 f1 ef d4          	vpxor  %xmm4,%xmm1,%xmm2
    9a2a:	c5 f1 72 d2 14       	vpsrld $0x14,%xmm2,%xmm1
    9a2f:	c5 e9 72 f2 0c       	vpslld $0xc,%xmm2,%xmm2
    9a34:	c5 e9 eb d1          	vpor   %xmm1,%xmm2,%xmm2
    9a38:	c4 c1 31 fe cc       	vpaddd %xmm12,%xmm9,%xmm1
    9a3d:	c5 f9 7f 4c 24 40    	vmovdqa %xmm1,0x40(%rsp)
    9a43:	c5 d1 ef c9          	vpxor  %xmm1,%xmm5,%xmm1
    9a47:	c5 fb 70 c9 b1       	vpshuflw $0xb1,%xmm1,%xmm1
    9a4c:	c5 7a 70 d9 b1       	vpshufhw $0xb1,%xmm1,%xmm11
    9a51:	c4 41 21 fe f6       	vpaddd %xmm14,%xmm11,%xmm14
    9a56:	c4 c1 09 ef cc       	vpxor  %xmm12,%xmm14,%xmm1
    9a5b:	c5 d1 72 d1 14       	vpsrld $0x14,%xmm1,%xmm5
    9a60:	c5 f1 72 f1 0c       	vpslld $0xc,%xmm1,%xmm1
    9a65:	c5 f1 eb ed          	vpor   %xmm5,%xmm1,%xmm5
    9a69:	c5 91 fe cf          	vpaddd %xmm7,%xmm13,%xmm1
    9a6d:	c5 f9 7f 4c 24 10    	vmovdqa %xmm1,0x10(%rsp)
    9a73:	c5 c9 ef f1          	vpxor  %xmm1,%xmm6,%xmm6
    9a77:	c5 fb 70 f6 b1       	vpshuflw $0xb1,%xmm6,%xmm6
    9a7c:	c5 7a 70 ce b1       	vpshufhw $0xb1,%xmm6,%xmm9
    9a81:	c5 31 fe 64 24 30    	vpaddd 0x30(%rsp),%xmm9,%xmm12
    9a87:	c5 99 ef cf          	vpxor  %xmm7,%xmm12,%xmm1
    9a8b:	c5 91 72 d1 14       	vpsrld $0x14,%xmm1,%xmm13
    9a90:	c5 f1 72 f1 0c       	vpslld $0xc,%xmm1,%xmm1
    9a95:	c4 c1 71 eb e5       	vpor   %xmm13,%xmm1,%xmm4
    9a9a:	c5 f9 6f 4c 24 60    	vmovdqa 0x60(%rsp),%xmm1
    9aa0:	c5 29 fe f9          	vpaddd %xmm1,%xmm10,%xmm15
    9aa4:	c4 c1 39 ef ff       	vpxor  %xmm15,%xmm8,%xmm7
    9aa9:	c5 fb 70 ff b1       	vpshuflw $0xb1,%xmm7,%xmm7
    9aae:	c5 7a 70 c7 b1       	vpshufhw $0xb1,%xmm7,%xmm8
    9ab3:	c5 39 fe 54 24 50    	vpaddd 0x50(%rsp),%xmm8,%xmm10
    9ab9:	c5 a9 ef f9          	vpxor  %xmm1,%xmm10,%xmm7
    9abd:	c5 91 72 d7 14       	vpsrld $0x14,%xmm7,%xmm13
    9ac2:	c5 c1 72 f7 0c       	vpslld $0xc,%xmm7,%xmm7
    9ac7:	c4 c1 41 eb dd       	vpor   %xmm13,%xmm7,%xmm3
    9acc:	c5 69 fe 6c 24 20    	vpaddd 0x20(%rsp),%xmm2,%xmm13
    9ad2:	c5 91 ef f8          	vpxor  %xmm0,%xmm13,%xmm7
    9ad6:	c5 f9 6f 0d d2 0f 02 	vmovdqa 0x20fd2(%rip),%xmm1        # 2aab0 <anon.0b2c823383dec51af8e2b43c78491c46.0.llvm.17017948224046636406+0x18b>
    9add:	00 
    9ade:	c4 e2 41 00 f9       	vpshufb %xmm1,%xmm7,%xmm7
    9ae3:	c5 c1 fe 74 24 70    	vpaddd 0x70(%rsp),%xmm7,%xmm6
    9ae9:	c5 c9 ef d2          	vpxor  %xmm2,%xmm6,%xmm2
    9aed:	c5 f9 72 d2 19       	vpsrld $0x19,%xmm2,%xmm0
    9af2:	c5 e9 72 f2 07       	vpslld $0x7,%xmm2,%xmm2
    9af7:	c5 e9 eb d0          	vpor   %xmm0,%xmm2,%xmm2
    9afb:	c5 d1 fe 44 24 40    	vpaddd 0x40(%rsp),%xmm5,%xmm0
    9b01:	c5 f9 7f 44 24 50    	vmovdqa %xmm0,0x50(%rsp)
    9b07:	c4 c1 79 ef c3       	vpxor  %xmm11,%xmm0,%xmm0
    9b0c:	c4 62 79 00 d9       	vpshufb %xmm1,%xmm0,%xmm11
    9b11:	c4 41 09 fe f3       	vpaddd %xmm11,%xmm14,%xmm14
    9b16:	c5 89 ef c5          	vpxor  %xmm5,%xmm14,%xmm0
    9b1a:	c5 d1 72 d0 19       	vpsrld $0x19,%xmm0,%xmm5
    9b1f:	c5 f9 72 f0 07       	vpslld $0x7,%xmm0,%xmm0
    9b24:	c5 f9 eb c5          	vpor   %xmm5,%xmm0,%xmm0
    9b28:	c5 f9 7f 44 24 40    	vmovdqa %xmm0,0x40(%rsp)
    9b2e:	c5 d9 fe 44 24 10    	vpaddd 0x10(%rsp),%xmm4,%xmm0
    9b34:	c5 f9 7f 44 24 60    	vmovdqa %xmm0,0x60(%rsp)
    9b3a:	c4 c1 79 ef c1       	vpxor  %xmm9,%xmm0,%xmm0
    9b3f:	c4 62 79 00 c9       	vpshufb %xmm1,%xmm0,%xmm9
    9b44:	c4 c1 19 fe e9       	vpaddd %xmm9,%xmm12,%xmm5
    9b49:	c5 d1 ef c4          	vpxor  %xmm4,%xmm5,%xmm0
    9b4d:	c5 d9 72 d0 19       	vpsrld $0x19,%xmm0,%xmm4
    9b52:	c5 f9 72 f0 07       	vpslld $0x7,%xmm0,%xmm0
    9b57:	c5 f9 eb c4          	vpor   %xmm4,%xmm0,%xmm0
    9b5b:	c5 f9 7f 44 24 10    	vmovdqa %xmm0,0x10(%rsp)
    9b61:	c4 c1 61 fe c7       	vpaddd %xmm15,%xmm3,%xmm0
    9b66:	c5 f9 7f 44 24 30    	vmovdqa %xmm0,0x30(%rsp)
    9b6c:	c4 c1 79 ef c0       	vpxor  %xmm8,%xmm0,%xmm0
    9b71:	c4 62 79 00 e1       	vpshufb %xmm1,%xmm0,%xmm12
    9b76:	c4 41 29 fe d4       	vpaddd %xmm12,%xmm10,%xmm10
    9b7b:	c5 a9 ef db          	vpxor  %xmm3,%xmm10,%xmm3
    9b7f:	c5 d9 72 d3 19       	vpsrld $0x19,%xmm3,%xmm4
    9b84:	c5 e1 72 f3 07       	vpslld $0x7,%xmm3,%xmm3
    9b89:	c5 e1 eb c4          	vpor   %xmm4,%xmm3,%xmm0
    9b8d:	c5 f9 7f 44 24 20    	vmovdqa %xmm0,0x20(%rsp)
    9b93:	c5 f9 70 da 39       	vpshufd $0x39,%xmm2,%xmm3
    9b98:	c5 f9 70 e6 4e       	vpshufd $0x4e,%xmm6,%xmm4
    9b9d:	c5 f9 70 d7 93       	vpshufd $0x93,%xmm7,%xmm2
    9ba2:	c4 c1 61 fe c5       	vpaddd %xmm13,%xmm3,%xmm0
    9ba7:	c5 f9 7f 44 24 70    	vmovdqa %xmm0,0x70(%rsp)
    9bad:	c5 f9 ef d2          	vpxor  %xmm2,%xmm0,%xmm2
    9bb1:	c5 fb 70 d2 b1       	vpshuflw $0xb1,%xmm2,%xmm2
    9bb6:	c5 fa 70 c2 b1       	vpshufhw $0xb1,%xmm2,%xmm0
    9bbb:	c5 f9 7f 84 24 40 01 	vmovdqa %xmm0,0x140(%rsp)
    9bc2:	00 00 
    9bc4:	c5 59 fe c0          	vpaddd %xmm0,%xmm4,%xmm8
    9bc8:	c5 b9 ef db          	vpxor  %xmm3,%xmm8,%xmm3
    9bcc:	c5 c1 72 d3 14       	vpsrld $0x14,%xmm3,%xmm7
    9bd1:	c5 e1 72 f3 0c       	vpslld $0xc,%xmm3,%xmm3
    9bd6:	c5 e1 eb df          	vpor   %xmm7,%xmm3,%xmm3
    9bda:	c5 f9 70 7c 24 40 39 	vpshufd $0x39,0x40(%rsp),%xmm7
    9be1:	c4 c1 79 70 f6 4e    	vpshufd $0x4e,%xmm14,%xmm6
    9be7:	c4 c1 79 70 c3 93    	vpshufd $0x93,%xmm11,%xmm0
    9bed:	c5 41 fe 6c 24 50    	vpaddd 0x50(%rsp),%xmm7,%xmm13
    9bf3:	c5 91 ef c0          	vpxor  %xmm0,%xmm13,%xmm0
    9bf7:	c5 fb 70 c0 b1       	vpshuflw $0xb1,%xmm0,%xmm0
    9bfc:	c5 fa 70 d0 b1       	vpshufhw $0xb1,%xmm0,%xmm2
    9c01:	c5 49 fe fa          	vpaddd %xmm2,%xmm6,%xmm15
    9c05:	c5 81 ef ff          	vpxor  %xmm7,%xmm15,%xmm7
    9c09:	c5 f1 72 d7 14       	vpsrld $0x14,%xmm7,%xmm1
    9c0e:	c5 c1 72 f7 0c       	vpslld $0xc,%xmm7,%xmm7
    9c13:	c5 c1 eb c9          	vpor   %xmm1,%xmm7,%xmm1
    9c17:	c5 f9 70 7c 24 10 39 	vpshufd $0x39,0x10(%rsp),%xmm7
    9c1e:	c5 f9 70 ed 4e       	vpshufd $0x4e,%xmm5,%xmm5
    9c23:	c4 c1 79 70 f1 93    	vpshufd $0x93,%xmm9,%xmm6
    9c29:	c5 41 fe 74 24 60    	vpaddd 0x60(%rsp),%xmm7,%xmm14
    9c2f:	c5 89 ef f6          	vpxor  %xmm6,%xmm14,%xmm6
    9c33:	c5 fb 70 f6 b1       	vpshuflw $0xb1,%xmm6,%xmm6
    9c38:	c5 fa 70 f6 b1       	vpshufhw $0xb1,%xmm6,%xmm6
    9c3d:	c5 d1 fe ee          	vpaddd %xmm6,%xmm5,%xmm5
    9c41:	c5 d1 ef ff          	vpxor  %xmm7,%xmm5,%xmm7
    9c45:	c5 f9 72 d7 14       	vpsrld $0x14,%xmm7,%xmm0
    9c4a:	c5 c1 72 f7 0c       	vpslld $0xc,%xmm7,%xmm7
    9c4f:	c5 c1 eb c0          	vpor   %xmm0,%xmm7,%xmm0
    9c53:	c5 f9 70 7c 24 20 39 	vpshufd $0x39,0x20(%rsp),%xmm7
    9c5a:	c4 41 79 70 da 4e    	vpshufd $0x4e,%xmm10,%xmm11
    9c60:	c4 41 79 70 cc 93    	vpshufd $0x93,%xmm12,%xmm9
    9c66:	c5 41 fe 64 24 30    	vpaddd 0x30(%rsp),%xmm7,%xmm12
    9c6c:	c4 c1 19 ef e1       	vpxor  %xmm9,%xmm12,%xmm4
    9c71:	c5 fb 70 e4 b1       	vpshuflw $0xb1,%xmm4,%xmm4
    9c76:	c5 7a 70 cc b1       	vpshufhw $0xb1,%xmm4,%xmm9
    9c7b:	c4 41 21 fe d1       	vpaddd %xmm9,%xmm11,%xmm10
    9c80:	c5 a9 ef e7          	vpxor  %xmm7,%xmm10,%xmm4
    9c84:	c5 c1 72 d4 14       	vpsrld $0x14,%xmm4,%xmm7
    9c89:	c5 d9 72 f4 0c       	vpslld $0xc,%xmm4,%xmm4
    9c8e:	c5 d9 eb ff          	vpor   %xmm7,%xmm4,%xmm7
    9c92:	c5 e1 fe 64 24 70    	vpaddd 0x70(%rsp),%xmm3,%xmm4
    9c98:	c5 f9 7f 64 24 20    	vmovdqa %xmm4,0x20(%rsp)
    9c9e:	c5 d9 ef a4 24 40 01 	vpxor  0x140(%rsp),%xmm4,%xmm4
    9ca5:	00 00 
    9ca7:	c5 79 6f 1d 01 0e 02 	vmovdqa 0x20e01(%rip),%xmm11        # 2aab0 <anon.0b2c823383dec51af8e2b43c78491c46.0.llvm.17017948224046636406+0x18b>
    9cae:	00 
    9caf:	c4 c2 59 00 e3       	vpshufb %xmm11,%xmm4,%xmm4
    9cb4:	c5 f9 7f 64 24 10    	vmovdqa %xmm4,0x10(%rsp)
    9cba:	c5 39 fe c4          	vpaddd %xmm4,%xmm8,%xmm8
    9cbe:	c5 b9 ef db          	vpxor  %xmm3,%xmm8,%xmm3
    9cc2:	c5 d9 72 d3 19       	vpsrld $0x19,%xmm3,%xmm4
    9cc7:	c5 e1 72 f3 07       	vpslld $0x7,%xmm3,%xmm3
    9ccc:	c5 e1 eb dc          	vpor   %xmm4,%xmm3,%xmm3
    9cd0:	c5 f9 7f 5c 24 30    	vmovdqa %xmm3,0x30(%rsp)
    9cd6:	c4 c1 71 fe dd       	vpaddd %xmm13,%xmm1,%xmm3
    9cdb:	c5 e1 ef d2          	vpxor  %xmm2,%xmm3,%xmm2
    9cdf:	c4 c2 69 00 d3       	vpshufb %xmm11,%xmm2,%xmm2
    9ce4:	c5 01 fe fa          	vpaddd %xmm2,%xmm15,%xmm15
    9ce8:	c5 81 ef c9          	vpxor  %xmm1,%xmm15,%xmm1
    9cec:	c5 d9 72 d1 19       	vpsrld $0x19,%xmm1,%xmm4
    9cf1:	c5 f1 72 f1 07       	vpslld $0x7,%xmm1,%xmm1
    9cf6:	c5 f1 eb cc          	vpor   %xmm4,%xmm1,%xmm1
    9cfa:	c4 41 79 fe ee       	vpaddd %xmm14,%xmm0,%xmm13
    9cff:	c5 91 ef e6          	vpxor  %xmm6,%xmm13,%xmm4
    9d03:	c4 c2 59 00 e3       	vpshufb %xmm11,%xmm4,%xmm4
    9d08:	c5 d1 fe f4          	vpaddd %xmm4,%xmm5,%xmm6
    9d0c:	c5 c9 ef c0          	vpxor  %xmm0,%xmm6,%xmm0
    9d10:	c5 d1 72 d0 19       	vpsrld $0x19,%xmm0,%xmm5
    9d15:	c5 f9 72 f0 07       	vpslld $0x7,%xmm0,%xmm0
    9d1a:	c5 79 eb f5          	vpor   %xmm5,%xmm0,%xmm14
    9d1e:	c4 41 41 fe dc       	vpaddd %xmm12,%xmm7,%xmm11
    9d23:	c4 c1 21 ef e9       	vpxor  %xmm9,%xmm11,%xmm5
    9d28:	c4 62 51 00 0d 7f 0d 	vpshufb 0x20d7f(%rip),%xmm5,%xmm9        # 2aab0 <anon.0b2c823383dec51af8e2b43c78491c46.0.llvm.17017948224046636406+0x18b>
    9d2f:	02 00 
    9d31:	c4 c1 29 fe c1       	vpaddd %xmm9,%xmm10,%xmm0
    9d36:	c5 f9 ef ff          	vpxor  %xmm7,%xmm0,%xmm7
    9d3a:	c5 d1 72 d7 19       	vpsrld $0x19,%xmm7,%xmm5
    9d3f:	c5 c1 72 f7 07       	vpslld $0x7,%xmm7,%xmm7
    9d44:	c5 c1 eb ed          	vpor   %xmm5,%xmm7,%xmm5
    9d48:	c5 79 70 54 24 30 93 	vpshufd $0x93,0x30(%rsp),%xmm10
    9d4f:	c5 79 70 e1 93       	vpshufd $0x93,%xmm1,%xmm12
    9d54:	c4 c1 79 70 fe 93    	vpshufd $0x93,%xmm14,%xmm7
    9d5a:	c5 f9 70 cd 93       	vpshufd $0x93,%xmm5,%xmm1
    9d5f:	c5 f9 7f 4c 24 60    	vmovdqa %xmm1,0x60(%rsp)
    9d65:	c4 c1 79 70 e8 4e    	vpshufd $0x4e,%xmm8,%xmm5
    9d6b:	c4 41 79 70 f7 4e    	vpshufd $0x4e,%xmm15,%xmm14
    9d71:	c5 f9 70 ce 4e       	vpshufd $0x4e,%xmm6,%xmm1
    9d76:	c5 f9 7f 4c 24 30    	vmovdqa %xmm1,0x30(%rsp)
    9d7c:	c5 f9 70 c0 4e       	vpshufd $0x4e,%xmm0,%xmm0
    9d81:	c5 f9 7f 44 24 50    	vmovdqa %xmm0,0x50(%rsp)
    9d87:	c5 f9 70 4c 24 10 39 	vpshufd $0x39,0x10(%rsp),%xmm1
    9d8e:	c5 f9 70 d2 39       	vpshufd $0x39,%xmm2,%xmm2
    9d93:	c5 f9 70 f4 39       	vpshufd $0x39,%xmm4,%xmm6
    9d98:	c4 41 79 70 c1 39    	vpshufd $0x39,%xmm9,%xmm8
    9d9e:	c5 79 6f cb          	vmovdqa %xmm3,%xmm9
    9da2:	c5 79 7f d4          	vmovdqa %xmm10,%xmm4
    9da6:	c4 41 79 6f d3       	vmovdqa %xmm11,%xmm10
    9dab:	c5 f9 6f 44 24 20    	vmovdqa 0x20(%rsp),%xmm0
    9db1:	83 c3 ff             	add    $0xffffffff,%ebx
    9db4:	0f 85 46 fc ff ff    	jne    9a00 <_ZN9c2_chacha4guts11refill_wide13dispatch_init8impl_avx17h653539598dce3c09E.llvm.14015113955960590988+0x170>
    9dba:	c5 f9 7f 54 24 10    	vmovdqa %xmm2,0x10(%rsp)
    9dc0:	c5 79 6f fe          	vmovdqa %xmm6,%xmm15
    9dc4:	c5 79 7f c3          	vmovdqa %xmm8,%xmm3
    9dc8:	c5 79 6f 05 d0 0c 02 	vmovdqa 0x20cd0(%rip),%xmm8        # 2aaa0 <anon.0b2c823383dec51af8e2b43c78491c46.0.llvm.17017948224046636406+0x17b>
    9dcf:	00 
    9dd0:	eb 47                	jmp    9e19 <_ZN9c2_chacha4guts11refill_wide13dispatch_init8impl_avx17h653539598dce3c09E.llvm.14015113955960590988+0x589>
    9dd2:	c5 f9 7f 54 24 10    	vmovdqa %xmm2,0x10(%rsp)
    9dd8:	c5 f9 6f 05 c0 0c 02 	vmovdqa 0x20cc0(%rip),%xmm0        # 2aaa0 <anon.0b2c823383dec51af8e2b43c78491c46.0.llvm.17017948224046636406+0x17b>
    9ddf:	00 
    9de0:	c5 f9 6f 64 24 20    	vmovdqa 0x20(%rsp),%xmm4
    9de6:	c5 79 6f e4          	vmovdqa %xmm4,%xmm12
    9dea:	c5 f9 6f fc          	vmovdqa %xmm4,%xmm7
    9dee:	c5 f9 7f 64 24 60    	vmovdqa %xmm4,0x60(%rsp)
    9df4:	c5 f9 6f 6c 24 40    	vmovdqa 0x40(%rsp),%xmm5
    9dfa:	c5 79 6f f5          	vmovdqa %xmm5,%xmm14
    9dfe:	c5 f9 7f 6c 24 30    	vmovdqa %xmm5,0x30(%rsp)
    9e04:	c5 f9 7f 6c 24 50    	vmovdqa %xmm5,0x50(%rsp)
    9e0a:	c4 41 79 6f d0       	vmovdqa %xmm8,%xmm10
    9e0f:	c4 41 79 6f e8       	vmovdqa %xmm8,%xmm13
    9e14:	c4 41 79 6f c8       	vmovdqa %xmm8,%xmm9
    9e19:	c4 c1 79 6f 56 20    	vmovdqa 0x20(%r14),%xmm2
    9e1f:	c5 f9 7f 84 24 50 01 	vmovdqa %xmm0,0x150(%rsp)
    9e26:	00 00 
    9e28:	c5 79 7f 8c 24 60 01 	vmovdqa %xmm9,0x160(%rsp)
    9e2f:	00 00 
    9e31:	c5 79 7f ac 24 70 01 	vmovdqa %xmm13,0x170(%rsp)
    9e38:	00 00 
    9e3a:	c4 e1 f9 7e d0       	vmovq  %xmm2,%rax
    9e3f:	48 8d 48 01          	lea    0x1(%rax),%rcx
    9e43:	c4 63 69 22 c9 00    	vpinsrd $0x0,%ecx,%xmm2,%xmm9
    9e49:	c5 79 7f 94 24 80 01 	vmovdqa %xmm10,0x180(%rsp)
    9e50:	00 00 
    9e52:	48 c1 e9 20          	shr    $0x20,%rcx
    9e56:	c4 63 31 22 c9 01    	vpinsrd $0x1,%ecx,%xmm9,%xmm9
    9e5c:	48 8d 48 02          	lea    0x2(%rax),%rcx
    9e60:	c5 f9 7f a4 24 90 01 	vmovdqa %xmm4,0x190(%rsp)
    9e67:	00 00 
    9e69:	c4 e3 69 22 f1 00    	vpinsrd $0x0,%ecx,%xmm2,%xmm6
    9e6f:	c5 79 7f a4 24 a0 01 	vmovdqa %xmm12,0x1a0(%rsp)
    9e76:	00 00 
    9e78:	48 c1 e9 20          	shr    $0x20,%rcx
    9e7c:	c4 63 49 22 e1 01    	vpinsrd $0x1,%ecx,%xmm6,%xmm12
    9e82:	48 8d 48 03          	lea    0x3(%rax),%rcx
    9e86:	c5 f9 7f bc 24 b0 01 	vmovdqa %xmm7,0x1b0(%rsp)
    9e8d:	00 00 
    9e8f:	c4 e3 69 22 f9 00    	vpinsrd $0x0,%ecx,%xmm2,%xmm7
    9e95:	48 c1 e9 20          	shr    $0x20,%rcx
    9e99:	c4 63 41 22 d9 01    	vpinsrd $0x1,%ecx,%xmm7,%xmm11
    9e9f:	48 83 c0 04          	add    $0x4,%rax
    9ea3:	c5 f8 28 74 24 60    	vmovaps 0x60(%rsp),%xmm6
    9ea9:	c5 f8 29 b4 24 c0 01 	vmovaps %xmm6,0x1c0(%rsp)
    9eb0:	00 00 
    9eb2:	c4 e3 69 22 f8 00    	vpinsrd $0x0,%eax,%xmm2,%xmm7
    9eb8:	48 c1 e8 20          	shr    $0x20,%rax
    9ebc:	c4 e3 41 22 f8 01    	vpinsrd $0x1,%eax,%xmm7,%xmm7
    9ec2:	c5 f9 7f ac 24 00 01 	vmovdqa %xmm5,0x100(%rsp)
    9ec9:	00 00 
    9ecb:	c5 79 7f b4 24 10 01 	vmovdqa %xmm14,0x110(%rsp)
    9ed2:	00 00 
    9ed4:	c5 f8 28 74 24 30    	vmovaps 0x30(%rsp),%xmm6
    9eda:	c5 f8 29 b4 24 20 01 	vmovaps %xmm6,0x120(%rsp)
    9ee1:	00 00 
    9ee3:	c5 f8 28 74 24 50    	vmovaps 0x50(%rsp),%xmm6
    9ee9:	c5 f8 29 b4 24 30 01 	vmovaps %xmm6,0x130(%rsp)
    9ef0:	00 00 
    9ef2:	c5 f9 7f 8c 24 c0 00 	vmovdqa %xmm1,0xc0(%rsp)
    9ef9:	00 00 
    9efb:	c5 f8 28 74 24 10    	vmovaps 0x10(%rsp),%xmm6
    9f01:	c5 f8 29 b4 24 d0 00 	vmovaps %xmm6,0xd0(%rsp)
    9f08:	00 00 
    9f0a:	c5 79 7f bc 24 e0 00 	vmovdqa %xmm15,0xe0(%rsp)
    9f11:	00 00 
    9f13:	c5 f9 7f 9c 24 f0 00 	vmovdqa %xmm3,0xf0(%rsp)
    9f1a:	00 00 
    9f1c:	c4 c1 79 6f 1e       	vmovdqa (%r14),%xmm3
    9f21:	c4 c1 79 6f 76 10    	vmovdqa 0x10(%r14),%xmm6
    9f27:	c5 f9 7f 94 24 80 00 	vmovdqa %xmm2,0x80(%rsp)
    9f2e:	00 00 
    9f30:	c5 79 7f 8c 24 90 00 	vmovdqa %xmm9,0x90(%rsp)
    9f37:	00 00 
    9f39:	c5 79 7f a4 24 a0 00 	vmovdqa %xmm12,0xa0(%rsp)
    9f40:	00 00 
    9f42:	c5 79 7f 9c 24 b0 00 	vmovdqa %xmm11,0xb0(%rsp)
    9f49:	00 00 
    9f4b:	c4 c1 79 7f 7e 20    	vmovdqa %xmm7,0x20(%r14)
    9f51:	c4 c1 79 fe c0       	vpaddd %xmm8,%xmm0,%xmm0
    9f56:	c4 c1 7a 7f 07       	vmovdqu %xmm0,(%r15)
    9f5b:	c5 e1 fe c4          	vpaddd %xmm4,%xmm3,%xmm0
    9f5f:	c4 c1 7a 7f 47 10    	vmovdqu %xmm0,0x10(%r15)
    9f65:	c5 c9 fe c5          	vpaddd %xmm5,%xmm6,%xmm0
    9f69:	c4 c1 7a 7f 47 20    	vmovdqu %xmm0,0x20(%r15)
    9f6f:	c5 e9 fe c1          	vpaddd %xmm1,%xmm2,%xmm0
    9f73:	c4 c1 7a 7f 47 30    	vmovdqu %xmm0,0x30(%r15)
    9f79:	c5 f9 6f 84 24 90 00 	vmovdqa 0x90(%rsp),%xmm0
    9f80:	00 00 
    9f82:	c5 b9 fe 8c 24 60 01 	vpaddd 0x160(%rsp),%xmm8,%xmm1
    9f89:	00 00 
    9f8b:	c5 e1 fe 94 24 a0 01 	vpaddd 0x1a0(%rsp),%xmm3,%xmm2
    9f92:	00 00 
    9f94:	c5 c9 fe a4 24 10 01 	vpaddd 0x110(%rsp),%xmm6,%xmm4
    9f9b:	00 00 
    9f9d:	c5 f9 fe 84 24 d0 00 	vpaddd 0xd0(%rsp),%xmm0,%xmm0
    9fa4:	00 00 
    9fa6:	c4 c1 7a 7f 4f 40    	vmovdqu %xmm1,0x40(%r15)
    9fac:	c4 c1 7a 7f 57 50    	vmovdqu %xmm2,0x50(%r15)
    9fb2:	c4 c1 7a 7f 67 60    	vmovdqu %xmm4,0x60(%r15)
    9fb8:	c4 c1 7a 7f 47 70    	vmovdqu %xmm0,0x70(%r15)
    9fbe:	c5 b9 fe 84 24 70 01 	vpaddd 0x170(%rsp),%xmm8,%xmm0
    9fc5:	00 00 
    9fc7:	c5 e1 fe 8c 24 b0 01 	vpaddd 0x1b0(%rsp),%xmm3,%xmm1
    9fce:	00 00 
    9fd0:	c5 c9 fe 94 24 20 01 	vpaddd 0x120(%rsp),%xmm6,%xmm2
    9fd7:	00 00 
    9fd9:	c5 f9 6f a4 24 a0 00 	vmovdqa 0xa0(%rsp),%xmm4
    9fe0:	00 00 
    9fe2:	c5 d9 fe a4 24 e0 00 	vpaddd 0xe0(%rsp),%xmm4,%xmm4
    9fe9:	00 00 
    9feb:	c4 c1 7a 7f 87 80 00 	vmovdqu %xmm0,0x80(%r15)
    9ff2:	00 00 
    9ff4:	c4 c1 7a 7f 8f 90 00 	vmovdqu %xmm1,0x90(%r15)
    9ffb:	00 00 
    9ffd:	c4 c1 7a 7f 97 a0 00 	vmovdqu %xmm2,0xa0(%r15)
    a004:	00 00 
    a006:	c4 c1 7a 7f a7 b0 00 	vmovdqu %xmm4,0xb0(%r15)
    a00d:	00 00 
    a00f:	c5 f9 6f 84 24 b0 00 	vmovdqa 0xb0(%rsp),%xmm0
    a016:	00 00 
    a018:	c5 b9 fe 8c 24 80 01 	vpaddd 0x180(%rsp),%xmm8,%xmm1
    a01f:	00 00 
    a021:	c5 e1 fe 94 24 c0 01 	vpaddd 0x1c0(%rsp),%xmm3,%xmm2
    a028:	00 00 
    a02a:	c5 c9 fe 9c 24 30 01 	vpaddd 0x130(%rsp),%xmm6,%xmm3
    a031:	00 00 
    a033:	c5 f9 fe 84 24 f0 00 	vpaddd 0xf0(%rsp),%xmm0,%xmm0
    a03a:	00 00 
    a03c:	c4 c1 7a 7f 8f c0 00 	vmovdqu %xmm1,0xc0(%r15)
    a043:	00 00 
    a045:	c4 c1 7a 7f 97 d0 00 	vmovdqu %xmm2,0xd0(%r15)
    a04c:	00 00 
    a04e:	c4 c1 7a 7f 9f e0 00 	vmovdqu %xmm3,0xe0(%r15)
    a055:	00 00 
    a057:	c4 c1 7a 7f 87 f0 00 	vmovdqu %xmm0,0xf0(%r15)
    a05e:	00 00 
    a060:	c5 f8 77             	vzeroupper 
    a063:	48 8d 65 e8          	lea    -0x18(%rbp),%rsp
    a067:	5b                   	pop    %rbx
    a068:	41 5e                	pop    %r14
    a06a:	41 5f                	pop    %r15
    a06c:	5d                   	pop    %rbp
    a06d:	c3                   	retq   
    a06e:	66 90                	xchg   %ax,%ax

000000000000a070 <_ZN9c2_chacha4guts11refill_wide13dispatch_init10impl_sse4117h36968a385e809dcaE.llvm.14015113955960590988>:
    a070:	55                   	push   %rbp
    a071:	48 89 e5             	mov    %rsp,%rbp
    a074:	41 57                	push   %r15
    a076:	41 56                	push   %r14
    a078:	53                   	push   %rbx
    a079:	48 83 e4 e0          	and    $0xffffffffffffffe0,%rsp
    a07d:	48 81 ec c0 01 00 00 	sub    $0x1c0,%rsp
    a084:	49 89 fe             	mov    %rdi,%r14
    a087:	66 0f 6f 47 20       	movdqa 0x20(%rdi),%xmm0
    a08c:	66 48 0f 7e c0       	movq   %xmm0,%rax
    a091:	48 8d 48 01          	lea    0x1(%rax),%rcx
    a095:	66 0f 6f c8          	movdqa %xmm0,%xmm1
    a099:	66 0f 3a 22 c9 00    	pinsrd $0x0,%ecx,%xmm1
    a09f:	48 c1 e9 20          	shr    $0x20,%rcx
    a0a3:	66 0f 3a 22 c9 01    	pinsrd $0x1,%ecx,%xmm1
    a0a9:	66 0f 6f d0          	movdqa %xmm0,%xmm2
    a0ad:	48 8d 48 02          	lea    0x2(%rax),%rcx
    a0b1:	66 0f 3a 22 d1 00    	pinsrd $0x0,%ecx,%xmm2
    a0b7:	49 89 d7             	mov    %rdx,%r15
    a0ba:	89 f3                	mov    %esi,%ebx
    a0bc:	66 0f 6f d8          	movdqa %xmm0,%xmm3
    a0c0:	48 c1 e9 20          	shr    $0x20,%rcx
    a0c4:	66 0f 3a 22 d1 01    	pinsrd $0x1,%ecx,%xmm2
    a0ca:	0f 28 27             	movaps (%rdi),%xmm4
    a0cd:	0f 29 64 24 10       	movaps %xmm4,0x10(%rsp)
    a0d2:	48 83 c0 03          	add    $0x3,%rax
    a0d6:	66 0f 3a 22 d8 00    	pinsrd $0x0,%eax,%xmm3
    a0dc:	0f 28 67 10          	movaps 0x10(%rdi),%xmm4
    a0e0:	0f 29 24 24          	movaps %xmm4,(%rsp)
    a0e4:	48 c1 e8 20          	shr    $0x20,%rax
    a0e8:	66 0f 3a 22 d8 01    	pinsrd $0x1,%eax,%xmm3
    a0ee:	66 0f 7f 44 24 40    	movdqa %xmm0,0x40(%rsp)
    a0f4:	66 0f 7f 4c 24 50    	movdqa %xmm1,0x50(%rsp)
    a0fa:	66 0f 7f 54 24 60    	movdqa %xmm2,0x60(%rsp)
    a100:	66 0f 7f 5c 24 70    	movdqa %xmm3,0x70(%rsp)
    a106:	48 8d bc 24 a0 00 00 	lea    0xa0(%rsp),%rdi
    a10d:	00 
    a10e:	48 8d 74 24 40       	lea    0x40(%rsp),%rsi
    a113:	ff 15 8f e8 22 00    	callq  *0x22e88f(%rip)        # 2389a8 <_GLOBAL_OFFSET_TABLE_+0x50>
    a119:	66 0f 6f 84 24 a0 00 	movdqa 0xa0(%rsp),%xmm0
    a120:	00 00 
    a122:	0f 28 8c 24 b0 00 00 	movaps 0xb0(%rsp),%xmm1
    a129:	00 
    a12a:	0f 28 94 24 c0 00 00 	movaps 0xc0(%rsp),%xmm2
    a131:	00 
    a132:	0f 28 9c 24 d0 00 00 	movaps 0xd0(%rsp),%xmm3
    a139:	00 
    a13a:	0f 29 5c 24 70       	movaps %xmm3,0x70(%rsp)
    a13f:	0f 29 54 24 60       	movaps %xmm2,0x60(%rsp)
    a144:	0f 29 4c 24 50       	movaps %xmm1,0x50(%rsp)
    a149:	66 0f 7f 44 24 40    	movdqa %xmm0,0x40(%rsp)
    a14f:	48 8d bc 24 e0 00 00 	lea    0xe0(%rsp),%rdi
    a156:	00 
    a157:	48 8d 74 24 40       	lea    0x40(%rsp),%rsi
    a15c:	ff 15 66 ed 22 00    	callq  *0x22ed66(%rip)        # 238ec8 <_GLOBAL_OFFSET_TABLE_+0x570>
    a162:	66 0f 6f bc 24 e0 00 	movdqa 0xe0(%rsp),%xmm7
    a169:	00 00 
    a16b:	66 0f 6f a4 24 f0 00 	movdqa 0xf0(%rsp),%xmm4
    a172:	00 00 
    a174:	66 0f 6f 9c 24 00 01 	movdqa 0x100(%rsp),%xmm3
    a17b:	00 00 
    a17d:	66 0f 6f 94 24 10 01 	movdqa 0x110(%rsp),%xmm2
    a184:	00 00 
    a186:	66 44 0f 6f 3d 11 09 	movdqa 0x20911(%rip),%xmm15        # 2aaa0 <anon.0b2c823383dec51af8e2b43c78491c46.0.llvm.17017948224046636406+0x17b>
    a18d:	02 00 
    a18f:	66 44 0f 6f 0d 08 09 	movdqa 0x20908(%rip),%xmm9        # 2aaa0 <anon.0b2c823383dec51af8e2b43c78491c46.0.llvm.17017948224046636406+0x17b>
    a196:	02 00 
    a198:	85 db                	test   %ebx,%ebx
    a19a:	0f 84 90 04 00 00    	je     a630 <_ZN9c2_chacha4guts11refill_wide13dispatch_init10impl_sse4117h36968a385e809dcaE.llvm.14015113955960590988+0x5c0>
    a1a0:	66 45 0f 6f c1       	movdqa %xmm9,%xmm8
    a1a5:	66 45 0f 6f e1       	movdqa %xmm9,%xmm12
    a1aa:	66 45 0f 6f d9       	movdqa %xmm9,%xmm11
    a1af:	66 0f 6f 04 24       	movdqa (%rsp),%xmm0
    a1b4:	66 0f 7f 44 24 30    	movdqa %xmm0,0x30(%rsp)
    a1ba:	66 44 0f 6f f0       	movdqa %xmm0,%xmm14
    a1bf:	66 0f 7f 44 24 20    	movdqa %xmm0,0x20(%rsp)
    a1c5:	66 0f 6f 4c 24 10    	movdqa 0x10(%rsp),%xmm1
    a1cb:	66 0f 6f e9          	movdqa %xmm1,%xmm5
    a1cf:	66 0f 6f f1          	movdqa %xmm1,%xmm6
    a1d3:	66 2e 0f 1f 84 00 00 	nopw   %cs:0x0(%rax,%rax,1)
    a1da:	00 00 00 
    a1dd:	0f 1f 00             	nopl   (%rax)
    a1e0:	66 44 0f 6f 54 24 10 	movdqa 0x10(%rsp),%xmm10
    a1e7:	66 45 0f fe ca       	paddd  %xmm10,%xmm9
    a1ec:	66 44 0f fe c1       	paddd  %xmm1,%xmm8
    a1f1:	66 44 0f fe e6       	paddd  %xmm6,%xmm12
    a1f6:	66 44 0f fe dd       	paddd  %xmm5,%xmm11
    a1fb:	66 41 0f ef f9       	pxor   %xmm9,%xmm7
    a200:	66 41 0f ef e0       	pxor   %xmm8,%xmm4
    a205:	66 41 0f ef dc       	pxor   %xmm12,%xmm3
    a20a:	66 41 0f ef d3       	pxor   %xmm11,%xmm2
    a20f:	f2 0f 70 ff b1       	pshuflw $0xb1,%xmm7,%xmm7
    a214:	f3 0f 70 c7 b1       	pshufhw $0xb1,%xmm7,%xmm0
    a219:	f2 0f 70 fc b1       	pshuflw $0xb1,%xmm4,%xmm7
    a21e:	f3 44 0f 70 ef b1    	pshufhw $0xb1,%xmm7,%xmm13
    a224:	66 44 0f 7f ac 24 20 	movdqa %xmm13,0x120(%rsp)
    a22b:	01 00 00 
    a22e:	f2 0f 70 fb b1       	pshuflw $0xb1,%xmm3,%xmm7
    a233:	f3 0f 70 df b1       	pshufhw $0xb1,%xmm7,%xmm3
    a238:	66 0f 7f 9c 24 90 00 	movdqa %xmm3,0x90(%rsp)
    a23f:	00 00 
    a241:	f2 0f 70 fa b1       	pshuflw $0xb1,%xmm2,%xmm7
    a246:	f3 44 0f 70 ff b1    	pshufhw $0xb1,%xmm7,%xmm15
    a24c:	66 0f 6f 14 24       	movdqa (%rsp),%xmm2
    a251:	66 0f fe d0          	paddd  %xmm0,%xmm2
    a255:	66 0f 6f e0          	movdqa %xmm0,%xmm4
    a259:	66 0f 6f 44 24 20    	movdqa 0x20(%rsp),%xmm0
    a25f:	66 41 0f fe c5       	paddd  %xmm13,%xmm0
    a264:	66 44 0f fe f3       	paddd  %xmm3,%xmm14
    a269:	66 44 0f 6f 6c 24 30 	movdqa 0x30(%rsp),%xmm13
    a270:	66 45 0f fe ef       	paddd  %xmm15,%xmm13
    a275:	66 44 0f ef d2       	pxor   %xmm2,%xmm10
    a27a:	66 41 0f 6f fa       	movdqa %xmm10,%xmm7
    a27f:	66 0f 72 d7 14       	psrld  $0x14,%xmm7
    a284:	66 41 0f 72 f2 0c    	pslld  $0xc,%xmm10
    a28a:	66 44 0f eb d7       	por    %xmm7,%xmm10
    a28f:	66 0f ef c8          	pxor   %xmm0,%xmm1
    a293:	66 0f 6f f9          	movdqa %xmm1,%xmm7
    a297:	66 0f 72 d7 14       	psrld  $0x14,%xmm7
    a29c:	66 0f 72 f1 0c       	pslld  $0xc,%xmm1
    a2a1:	66 0f eb cf          	por    %xmm7,%xmm1
    a2a5:	66 41 0f ef f6       	pxor   %xmm14,%xmm6
    a2aa:	66 0f 6f fe          	movdqa %xmm6,%xmm7
    a2ae:	66 0f 72 d7 14       	psrld  $0x14,%xmm7
    a2b3:	66 0f 72 f6 0c       	pslld  $0xc,%xmm6
    a2b8:	66 0f eb f7          	por    %xmm7,%xmm6
    a2bc:	66 41 0f ef ed       	pxor   %xmm13,%xmm5
    a2c1:	66 0f 6f fd          	movdqa %xmm5,%xmm7
    a2c5:	66 0f 72 d7 14       	psrld  $0x14,%xmm7
    a2ca:	66 0f 72 f5 0c       	pslld  $0xc,%xmm5
    a2cf:	66 0f eb ef          	por    %xmm7,%xmm5
    a2d3:	66 45 0f fe ca       	paddd  %xmm10,%xmm9
    a2d8:	66 44 0f 7f 4c 24 20 	movdqa %xmm9,0x20(%rsp)
    a2df:	66 44 0f fe c1       	paddd  %xmm1,%xmm8
    a2e4:	66 44 0f fe e6       	paddd  %xmm6,%xmm12
    a2e9:	66 44 0f fe dd       	paddd  %xmm5,%xmm11
    a2ee:	66 0f 6f dc          	movdqa %xmm4,%xmm3
    a2f2:	66 41 0f ef d9       	pxor   %xmm9,%xmm3
    a2f7:	66 0f 6f a4 24 20 01 	movdqa 0x120(%rsp),%xmm4
    a2fe:	00 00 
    a300:	66 41 0f ef e0       	pxor   %xmm8,%xmm4
    a305:	66 45 0f 6f cd       	movdqa %xmm13,%xmm9
    a30a:	66 44 0f 6f ac 24 90 	movdqa 0x90(%rsp),%xmm13
    a311:	00 00 00 
    a314:	66 45 0f ef ec       	pxor   %xmm12,%xmm13
    a319:	66 45 0f ef fb       	pxor   %xmm11,%xmm15
    a31e:	66 0f 6f 3d 8a 07 02 	movdqa 0x2078a(%rip),%xmm7        # 2aab0 <anon.0b2c823383dec51af8e2b43c78491c46.0.llvm.17017948224046636406+0x18b>
    a325:	00 
    a326:	66 0f 38 00 df       	pshufb %xmm7,%xmm3
    a32b:	66 0f 7f 5c 24 30    	movdqa %xmm3,0x30(%rsp)
    a331:	66 0f 38 00 e7       	pshufb %xmm7,%xmm4
    a336:	66 44 0f 38 00 ef    	pshufb %xmm7,%xmm13
    a33c:	66 44 0f 38 00 ff    	pshufb %xmm7,%xmm15
    a342:	66 0f fe d3          	paddd  %xmm3,%xmm2
    a346:	66 0f fe c4          	paddd  %xmm4,%xmm0
    a34a:	66 0f 6f dc          	movdqa %xmm4,%xmm3
    a34e:	66 45 0f fe f5       	paddd  %xmm13,%xmm14
    a353:	66 45 0f fe cf       	paddd  %xmm15,%xmm9
    a358:	66 44 0f ef d2       	pxor   %xmm2,%xmm10
    a35d:	66 41 0f 6f fa       	movdqa %xmm10,%xmm7
    a362:	66 0f 72 d7 19       	psrld  $0x19,%xmm7
    a367:	66 41 0f 72 f2 07    	pslld  $0x7,%xmm10
    a36d:	66 44 0f eb d7       	por    %xmm7,%xmm10
    a372:	66 0f ef c8          	pxor   %xmm0,%xmm1
    a376:	66 0f 6f f9          	movdqa %xmm1,%xmm7
    a37a:	66 0f 72 d7 19       	psrld  $0x19,%xmm7
    a37f:	66 0f 72 f1 07       	pslld  $0x7,%xmm1
    a384:	66 0f eb cf          	por    %xmm7,%xmm1
    a388:	66 41 0f ef f6       	pxor   %xmm14,%xmm6
    a38d:	66 0f 6f fe          	movdqa %xmm6,%xmm7
    a391:	66 0f 72 d7 19       	psrld  $0x19,%xmm7
    a396:	66 0f 72 f6 07       	pslld  $0x7,%xmm6
    a39b:	66 0f eb f7          	por    %xmm7,%xmm6
    a39f:	66 41 0f ef e9       	pxor   %xmm9,%xmm5
    a3a4:	66 0f 6f fd          	movdqa %xmm5,%xmm7
    a3a8:	66 0f 72 d7 19       	psrld  $0x19,%xmm7
    a3ad:	66 0f 72 f5 07       	pslld  $0x7,%xmm5
    a3b2:	66 0f eb ef          	por    %xmm7,%xmm5
    a3b6:	66 41 0f 70 fa 39    	pshufd $0x39,%xmm10,%xmm7
    a3bc:	66 0f 70 c9 39       	pshufd $0x39,%xmm1,%xmm1
    a3c1:	66 0f 70 f6 39       	pshufd $0x39,%xmm6,%xmm6
    a3c6:	66 0f 70 ed 39       	pshufd $0x39,%xmm5,%xmm5
    a3cb:	66 0f 70 d2 4e       	pshufd $0x4e,%xmm2,%xmm2
    a3d0:	66 0f 7f 14 24       	movdqa %xmm2,(%rsp)
    a3d5:	66 0f 70 c0 4e       	pshufd $0x4e,%xmm0,%xmm0
    a3da:	66 45 0f 70 f6 4e    	pshufd $0x4e,%xmm14,%xmm14
    a3e0:	66 41 0f 70 d1 4e    	pshufd $0x4e,%xmm9,%xmm2
    a3e6:	66 0f 7f 54 24 10    	movdqa %xmm2,0x10(%rsp)
    a3ec:	66 44 0f 6f 4c 24 20 	movdqa 0x20(%rsp),%xmm9
    a3f3:	66 0f 70 54 24 30 93 	pshufd $0x93,0x30(%rsp),%xmm2
    a3fa:	66 0f 70 dc 93       	pshufd $0x93,%xmm4,%xmm3
    a3ff:	66 41 0f 70 e5 93    	pshufd $0x93,%xmm13,%xmm4
    a405:	66 45 0f 70 ff 93    	pshufd $0x93,%xmm15,%xmm15
    a40b:	66 44 0f fe cf       	paddd  %xmm7,%xmm9
    a410:	66 44 0f fe c1       	paddd  %xmm1,%xmm8
    a415:	66 44 0f fe e6       	paddd  %xmm6,%xmm12
    a41a:	66 44 0f fe dd       	paddd  %xmm5,%xmm11
    a41f:	66 41 0f ef d1       	pxor   %xmm9,%xmm2
    a424:	66 41 0f ef d8       	pxor   %xmm8,%xmm3
    a429:	66 41 0f ef e4       	pxor   %xmm12,%xmm4
    a42e:	66 45 0f ef fb       	pxor   %xmm11,%xmm15
    a433:	f2 0f 70 d2 b1       	pshuflw $0xb1,%xmm2,%xmm2
    a438:	f3 44 0f 70 ea b1    	pshufhw $0xb1,%xmm2,%xmm13
    a43e:	f2 0f 70 db b1       	pshuflw $0xb1,%xmm3,%xmm3
    a443:	f3 44 0f 70 d3 b1    	pshufhw $0xb1,%xmm3,%xmm10
    a449:	f2 0f 70 dc b1       	pshuflw $0xb1,%xmm4,%xmm3
    a44e:	f3 0f 70 d3 b1       	pshufhw $0xb1,%xmm3,%xmm2
    a453:	f2 41 0f 70 e7 b1    	pshuflw $0xb1,%xmm15,%xmm4
    a459:	f3 44 0f 70 fc b1    	pshufhw $0xb1,%xmm4,%xmm15
    a45f:	66 0f 6f 24 24       	movdqa (%rsp),%xmm4
    a464:	66 41 0f fe e5       	paddd  %xmm13,%xmm4
    a469:	66 0f 7f 24 24       	movdqa %xmm4,(%rsp)
    a46e:	66 41 0f fe c2       	paddd  %xmm10,%xmm0
    a473:	66 44 0f fe f2       	paddd  %xmm2,%xmm14
    a478:	66 0f 6f 5c 24 10    	movdqa 0x10(%rsp),%xmm3
    a47e:	66 41 0f fe df       	paddd  %xmm15,%xmm3
    a483:	66 0f 7f 5c 24 10    	movdqa %xmm3,0x10(%rsp)
    a489:	66 0f ef fc          	pxor   %xmm4,%xmm7
    a48d:	66 0f 6f e7          	movdqa %xmm7,%xmm4
    a491:	66 0f 72 d4 14       	psrld  $0x14,%xmm4
    a496:	66 0f 72 f7 0c       	pslld  $0xc,%xmm7
    a49b:	66 0f eb fc          	por    %xmm4,%xmm7
    a49f:	66 0f ef c8          	pxor   %xmm0,%xmm1
    a4a3:	66 0f 6f e1          	movdqa %xmm1,%xmm4
    a4a7:	66 0f 72 d4 14       	psrld  $0x14,%xmm4
    a4ac:	66 0f 72 f1 0c       	pslld  $0xc,%xmm1
    a4b1:	66 0f eb cc          	por    %xmm4,%xmm1
    a4b5:	66 41 0f ef f6       	pxor   %xmm14,%xmm6
    a4ba:	66 0f 6f e6          	movdqa %xmm6,%xmm4
    a4be:	66 0f 72 d4 14       	psrld  $0x14,%xmm4
    a4c3:	66 0f 72 f6 0c       	pslld  $0xc,%xmm6
    a4c8:	66 0f eb f4          	por    %xmm4,%xmm6
    a4cc:	66 0f ef eb          	pxor   %xmm3,%xmm5
    a4d0:	66 0f 6f e5          	movdqa %xmm5,%xmm4
    a4d4:	66 0f 72 d4 14       	psrld  $0x14,%xmm4
    a4d9:	66 0f 72 f5 0c       	pslld  $0xc,%xmm5
    a4de:	66 0f eb ec          	por    %xmm4,%xmm5
    a4e2:	66 44 0f fe cf       	paddd  %xmm7,%xmm9
    a4e7:	66 44 0f fe c1       	paddd  %xmm1,%xmm8
    a4ec:	66 44 0f fe e6       	paddd  %xmm6,%xmm12
    a4f1:	66 44 0f fe dd       	paddd  %xmm5,%xmm11
    a4f6:	66 45 0f ef e9       	pxor   %xmm9,%xmm13
    a4fb:	66 45 0f ef d0       	pxor   %xmm8,%xmm10
    a500:	66 41 0f ef d4       	pxor   %xmm12,%xmm2
    a505:	66 45 0f ef fb       	pxor   %xmm11,%xmm15
    a50a:	66 0f 6f 1d 9e 05 02 	movdqa 0x2059e(%rip),%xmm3        # 2aab0 <anon.0b2c823383dec51af8e2b43c78491c46.0.llvm.17017948224046636406+0x18b>
    a511:	00 
    a512:	66 44 0f 38 00 eb    	pshufb %xmm3,%xmm13
    a518:	66 44 0f 7f ac 24 90 	movdqa %xmm13,0x90(%rsp)
    a51f:	00 00 00 
    a522:	66 44 0f 38 00 d3    	pshufb %xmm3,%xmm10
    a528:	66 0f 38 00 d3       	pshufb %xmm3,%xmm2
    a52d:	66 44 0f 38 00 fb    	pshufb %xmm3,%xmm15
    a533:	66 0f 6f 1c 24       	movdqa (%rsp),%xmm3
    a538:	66 41 0f fe dd       	paddd  %xmm13,%xmm3
    a53d:	66 0f 7f 1c 24       	movdqa %xmm3,(%rsp)
    a542:	66 41 0f fe c2       	paddd  %xmm10,%xmm0
    a547:	66 0f 7f 44 24 20    	movdqa %xmm0,0x20(%rsp)
    a54d:	66 44 0f fe f2       	paddd  %xmm2,%xmm14
    a552:	66 44 0f 6f 6c 24 10 	movdqa 0x10(%rsp),%xmm13
    a559:	66 45 0f fe ef       	paddd  %xmm15,%xmm13
    a55e:	66 0f ef fb          	pxor   %xmm3,%xmm7
    a562:	66 0f 6f e7          	movdqa %xmm7,%xmm4
    a566:	66 0f 72 d4 19       	psrld  $0x19,%xmm4
    a56b:	66 0f 72 f7 07       	pslld  $0x7,%xmm7
    a570:	66 0f eb fc          	por    %xmm4,%xmm7
    a574:	66 0f ef c8          	pxor   %xmm0,%xmm1
    a578:	66 0f 6f e1          	movdqa %xmm1,%xmm4
    a57c:	66 0f 72 d4 19       	psrld  $0x19,%xmm4
    a581:	66 0f 72 f1 07       	pslld  $0x7,%xmm1
    a586:	66 0f eb cc          	por    %xmm4,%xmm1
    a58a:	66 41 0f ef f6       	pxor   %xmm14,%xmm6
    a58f:	66 0f 6f e6          	movdqa %xmm6,%xmm4
    a593:	66 0f 72 d4 19       	psrld  $0x19,%xmm4
    a598:	66 0f 72 f6 07       	pslld  $0x7,%xmm6
    a59d:	66 0f eb f4          	por    %xmm4,%xmm6
    a5a1:	66 41 0f ef ed       	pxor   %xmm13,%xmm5
    a5a6:	66 41 0f 6f c5       	movdqa %xmm13,%xmm0
    a5ab:	66 0f 6f e5          	movdqa %xmm5,%xmm4
    a5af:	66 0f 72 d4 19       	psrld  $0x19,%xmm4
    a5b4:	66 0f 72 f5 07       	pslld  $0x7,%xmm5
    a5b9:	66 0f eb ec          	por    %xmm4,%xmm5
    a5bd:	66 0f 70 df 93       	pshufd $0x93,%xmm7,%xmm3
    a5c2:	66 0f 7f 5c 24 10    	movdqa %xmm3,0x10(%rsp)
    a5c8:	66 0f 70 c9 93       	pshufd $0x93,%xmm1,%xmm1
    a5cd:	66 0f 70 f6 93       	pshufd $0x93,%xmm6,%xmm6
    a5d2:	66 0f 70 ed 93       	pshufd $0x93,%xmm5,%xmm5
    a5d7:	66 0f 70 24 24 4e    	pshufd $0x4e,(%rsp),%xmm4
    a5dd:	66 0f 7f 24 24       	movdqa %xmm4,(%rsp)
    a5e2:	66 0f 70 5c 24 20 4e 	pshufd $0x4e,0x20(%rsp),%xmm3
    a5e9:	66 0f 7f 5c 24 20    	movdqa %xmm3,0x20(%rsp)
    a5ef:	66 45 0f 70 f6 4e    	pshufd $0x4e,%xmm14,%xmm14
    a5f5:	66 41 0f 70 c5 4e    	pshufd $0x4e,%xmm13,%xmm0
    a5fb:	66 0f 7f 44 24 30    	movdqa %xmm0,0x30(%rsp)
    a601:	66 0f 70 bc 24 90 00 	pshufd $0x39,0x90(%rsp),%xmm7
    a608:	00 00 39 
    a60b:	66 41 0f 70 e2 39    	pshufd $0x39,%xmm10,%xmm4
    a611:	66 0f 70 da 39       	pshufd $0x39,%xmm2,%xmm3
    a616:	66 41 0f 70 d7 39    	pshufd $0x39,%xmm15,%xmm2
    a61c:	83 c3 ff             	add    $0xffffffff,%ebx
    a61f:	0f 85 bb fb ff ff    	jne    a1e0 <_ZN9c2_chacha4guts11refill_wide13dispatch_init10impl_sse4117h36968a385e809dcaE.llvm.14015113955960590988+0x170>
    a625:	66 44 0f 6f 3d 72 04 	movdqa 0x20472(%rip),%xmm15        # 2aaa0 <anon.0b2c823383dec51af8e2b43c78491c46.0.llvm.17017948224046636406+0x17b>
    a62c:	02 00 
    a62e:	eb 36                	jmp    a666 <_ZN9c2_chacha4guts11refill_wide13dispatch_init10impl_sse4117h36968a385e809dcaE.llvm.14015113955960590988+0x5f6>
    a630:	66 0f 6f 6c 24 10    	movdqa 0x10(%rsp),%xmm5
    a636:	66 0f 6f cd          	movdqa %xmm5,%xmm1
    a63a:	66 0f 6f f5          	movdqa %xmm5,%xmm6
    a63e:	66 44 0f 6f 14 24    	movdqa (%rsp),%xmm10
    a644:	66 44 0f 7f 54 24 20 	movdqa %xmm10,0x20(%rsp)
    a64b:	66 45 0f 6f f2       	movdqa %xmm10,%xmm14
    a650:	66 44 0f 7f 54 24 30 	movdqa %xmm10,0x30(%rsp)
    a657:	66 45 0f 6f df       	movdqa %xmm15,%xmm11
    a65c:	66 45 0f 6f e7       	movdqa %xmm15,%xmm12
    a661:	66 45 0f 6f c7       	movdqa %xmm15,%xmm8
    a666:	66 45 0f 6f 56 20    	movdqa 0x20(%r14),%xmm10
    a66c:	66 44 0f 7f 8c 24 30 	movdqa %xmm9,0x130(%rsp)
    a673:	01 00 00 
    a676:	66 44 0f 7f 84 24 40 	movdqa %xmm8,0x140(%rsp)
    a67d:	01 00 00 
    a680:	66 44 0f 7f a4 24 50 	movdqa %xmm12,0x150(%rsp)
    a687:	01 00 00 
    a68a:	66 44 0f 7f 9c 24 60 	movdqa %xmm11,0x160(%rsp)
    a691:	01 00 00 
    a694:	66 0f 6f 44 24 10    	movdqa 0x10(%rsp),%xmm0
    a69a:	66 0f 7f 84 24 70 01 	movdqa %xmm0,0x170(%rsp)
    a6a1:	00 00 
    a6a3:	66 0f 7f 8c 24 80 01 	movdqa %xmm1,0x180(%rsp)
    a6aa:	00 00 
    a6ac:	66 0f 7f b4 24 90 01 	movdqa %xmm6,0x190(%rsp)
    a6b3:	00 00 
    a6b5:	66 0f 7f ac 24 a0 01 	movdqa %xmm5,0x1a0(%rsp)
    a6bc:	00 00 
    a6be:	66 44 0f 6f 24 24    	movdqa (%rsp),%xmm12
    a6c4:	66 44 0f 7f a4 24 a0 	movdqa %xmm12,0xa0(%rsp)
    a6cb:	00 00 00 
    a6ce:	0f 28 4c 24 20       	movaps 0x20(%rsp),%xmm1
    a6d3:	0f 29 8c 24 b0 00 00 	movaps %xmm1,0xb0(%rsp)
    a6da:	00 
    a6db:	66 4c 0f 7e d0       	movq   %xmm10,%rax
    a6e0:	48 8d 48 01          	lea    0x1(%rax),%rcx
    a6e4:	66 44 0f 7f b4 24 c0 	movdqa %xmm14,0xc0(%rsp)
    a6eb:	00 00 00 
    a6ee:	66 41 0f 6f ea       	movdqa %xmm10,%xmm5
    a6f3:	66 0f 3a 22 e9 00    	pinsrd $0x0,%ecx,%xmm5
    a6f9:	48 c1 e9 20          	shr    $0x20,%rcx
    a6fd:	66 0f 3a 22 e9 01    	pinsrd $0x1,%ecx,%xmm5
    a703:	48 8d 48 02          	lea    0x2(%rax),%rcx
    a707:	0f 28 4c 24 30       	movaps 0x30(%rsp),%xmm1
    a70c:	0f 29 8c 24 d0 00 00 	movaps %xmm1,0xd0(%rsp)
    a713:	00 
    a714:	66 41 0f 6f f2       	movdqa %xmm10,%xmm6
    a719:	66 0f 3a 22 f1 00    	pinsrd $0x0,%ecx,%xmm6
    a71f:	48 c1 e9 20          	shr    $0x20,%rcx
    a723:	66 0f 3a 22 f1 01    	pinsrd $0x1,%ecx,%xmm6
    a729:	48 8d 48 03          	lea    0x3(%rax),%rcx
    a72d:	66 0f 7f bc 24 e0 00 	movdqa %xmm7,0xe0(%rsp)
    a734:	00 00 
    a736:	66 0f 7f a4 24 f0 00 	movdqa %xmm4,0xf0(%rsp)
    a73d:	00 00 
    a73f:	66 41 0f 6f ca       	movdqa %xmm10,%xmm1
    a744:	66 0f 3a 22 c9 00    	pinsrd $0x0,%ecx,%xmm1
    a74a:	66 0f 7f 9c 24 00 01 	movdqa %xmm3,0x100(%rsp)
    a751:	00 00 
    a753:	66 0f 7f 94 24 10 01 	movdqa %xmm2,0x110(%rsp)
    a75a:	00 00 
    a75c:	66 45 0f 6f 1e       	movdqa (%r14),%xmm11
    a761:	66 45 0f 6f 46 10    	movdqa 0x10(%r14),%xmm8
    a767:	66 44 0f 7f 54 24 40 	movdqa %xmm10,0x40(%rsp)
    a76e:	66 0f 7f 6c 24 50    	movdqa %xmm5,0x50(%rsp)
    a774:	48 c1 e9 20          	shr    $0x20,%rcx
    a778:	66 0f 3a 22 c9 01    	pinsrd $0x1,%ecx,%xmm1
    a77e:	48 83 c0 04          	add    $0x4,%rax
    a782:	66 0f 7f 74 24 60    	movdqa %xmm6,0x60(%rsp)
    a788:	66 41 0f 6f e2       	movdqa %xmm10,%xmm4
    a78d:	66 0f 3a 22 e0 00    	pinsrd $0x0,%eax,%xmm4
    a793:	66 0f 7f 4c 24 70    	movdqa %xmm1,0x70(%rsp)
    a799:	48 c1 e8 20          	shr    $0x20,%rax
    a79d:	66 0f 3a 22 e0 01    	pinsrd $0x1,%eax,%xmm4
    a7a3:	66 41 0f 7f 66 20    	movdqa %xmm4,0x20(%r14)
    a7a9:	66 45 0f fe cf       	paddd  %xmm15,%xmm9
    a7ae:	f3 45 0f 7f 0f       	movdqu %xmm9,(%r15)
    a7b3:	66 41 0f fe c3       	paddd  %xmm11,%xmm0
    a7b8:	f3 41 0f 7f 47 10    	movdqu %xmm0,0x10(%r15)
    a7be:	66 45 0f fe e0       	paddd  %xmm8,%xmm12
    a7c3:	f3 45 0f 7f 67 20    	movdqu %xmm12,0x20(%r15)
    a7c9:	66 44 0f fe d7       	paddd  %xmm7,%xmm10
    a7ce:	f3 45 0f 7f 57 30    	movdqu %xmm10,0x30(%r15)
    a7d4:	66 0f 6f 54 24 50    	movdqa 0x50(%rsp),%xmm2
    a7da:	66 0f 6f 9c 24 40 01 	movdqa 0x140(%rsp),%xmm3
    a7e1:	00 00 
    a7e3:	66 41 0f fe df       	paddd  %xmm15,%xmm3
    a7e8:	66 0f 6f a4 24 80 01 	movdqa 0x180(%rsp),%xmm4
    a7ef:	00 00 
    a7f1:	66 41 0f fe e3       	paddd  %xmm11,%xmm4
    a7f6:	66 0f 6f ac 24 b0 00 	movdqa 0xb0(%rsp),%xmm5
    a7fd:	00 00 
    a7ff:	66 41 0f fe e8       	paddd  %xmm8,%xmm5
    a804:	66 0f fe 94 24 f0 00 	paddd  0xf0(%rsp),%xmm2
    a80b:	00 00 
    a80d:	f3 41 0f 7f 5f 40    	movdqu %xmm3,0x40(%r15)
    a813:	f3 41 0f 7f 67 50    	movdqu %xmm4,0x50(%r15)
    a819:	f3 41 0f 7f 6f 60    	movdqu %xmm5,0x60(%r15)
    a81f:	f3 41 0f 7f 57 70    	movdqu %xmm2,0x70(%r15)
    a825:	66 0f 6f 54 24 60    	movdqa 0x60(%rsp),%xmm2
    a82b:	66 0f 6f 9c 24 50 01 	movdqa 0x150(%rsp),%xmm3
    a832:	00 00 
    a834:	66 41 0f fe df       	paddd  %xmm15,%xmm3
    a839:	66 0f 6f a4 24 90 01 	movdqa 0x190(%rsp),%xmm4
    a840:	00 00 
    a842:	66 0f fe 94 24 00 01 	paddd  0x100(%rsp),%xmm2
    a849:	00 00 
    a84b:	66 0f 6f ac 24 c0 00 	movdqa 0xc0(%rsp),%xmm5
    a852:	00 00 
    a854:	f3 41 0f 7f 9f 80 00 	movdqu %xmm3,0x80(%r15)
    a85b:	00 00 
    a85d:	66 41 0f fe e3       	paddd  %xmm11,%xmm4
    a862:	f3 41 0f 7f a7 90 00 	movdqu %xmm4,0x90(%r15)
    a869:	00 00 
    a86b:	66 41 0f fe e8       	paddd  %xmm8,%xmm5
    a870:	f3 41 0f 7f af a0 00 	movdqu %xmm5,0xa0(%r15)
    a877:	00 00 
    a879:	f3 41 0f 7f 97 b0 00 	movdqu %xmm2,0xb0(%r15)
    a880:	00 00 
    a882:	66 0f 6f 54 24 70    	movdqa 0x70(%rsp),%xmm2
    a888:	66 44 0f fe bc 24 60 	paddd  0x160(%rsp),%xmm15
    a88f:	01 00 00 
    a892:	66 44 0f fe 9c 24 a0 	paddd  0x1a0(%rsp),%xmm11
    a899:	01 00 00 
    a89c:	66 44 0f fe 84 24 d0 	paddd  0xd0(%rsp),%xmm8
    a8a3:	00 00 00 
    a8a6:	66 0f fe 94 24 10 01 	paddd  0x110(%rsp),%xmm2
    a8ad:	00 00 
    a8af:	f3 45 0f 7f bf c0 00 	movdqu %xmm15,0xc0(%r15)
    a8b6:	00 00 
    a8b8:	f3 45 0f 7f 9f d0 00 	movdqu %xmm11,0xd0(%r15)
    a8bf:	00 00 
    a8c1:	f3 45 0f 7f 87 e0 00 	movdqu %xmm8,0xe0(%r15)
    a8c8:	00 00 
    a8ca:	f3 41 0f 7f 97 f0 00 	movdqu %xmm2,0xf0(%r15)
    a8d1:	00 00 
    a8d3:	48 8d 65 e8          	lea    -0x18(%rbp),%rsp
    a8d7:	5b                   	pop    %rbx
    a8d8:	41 5e                	pop    %r14
    a8da:	41 5f                	pop    %r15
    a8dc:	5d                   	pop    %rbp
    a8dd:	c3                   	retq   
    a8de:	66 90                	xchg   %ax,%ax

000000000000a8e0 <_ZN9c2_chacha4guts11refill_wide13dispatch_init10impl_ssse317ha73003c187df4e76E.llvm.14015113955960590988>:
    a8e0:	55                   	push   %rbp
    a8e1:	48 89 e5             	mov    %rsp,%rbp
    a8e4:	41 57                	push   %r15
    a8e6:	41 56                	push   %r14
    a8e8:	53                   	push   %rbx
    a8e9:	48 83 e4 e0          	and    $0xffffffffffffffe0,%rsp
    a8ed:	48 81 ec c0 01 00 00 	sub    $0x1c0,%rsp
    a8f4:	49 89 d7             	mov    %rdx,%r15
    a8f7:	89 f3                	mov    %esi,%ebx
    a8f9:	49 89 fe             	mov    %rdi,%r14
    a8fc:	0f 28 07             	movaps (%rdi),%xmm0
    a8ff:	0f 29 44 24 10       	movaps %xmm0,0x10(%rsp)
    a904:	0f 28 47 10          	movaps 0x10(%rdi),%xmm0
    a908:	0f 29 04 24          	movaps %xmm0,(%rsp)
    a90c:	66 0f 6f 47 20       	movdqa 0x20(%rdi),%xmm0
    a911:	66 48 0f 7e c0       	movq   %xmm0,%rax
    a916:	48 8d 48 01          	lea    0x1(%rax),%rcx
    a91a:	66 0f 6e c9          	movd   %ecx,%xmm1
    a91e:	48 c1 e9 20          	shr    $0x20,%rcx
    a922:	66 0f 70 d0 f8       	pshufd $0xf8,%xmm0,%xmm2
    a927:	66 0f 73 fa 04       	pslldq $0x4,%xmm2
    a92c:	66 0f 6e d9          	movd   %ecx,%xmm3
    a930:	66 0f eb da          	por    %xmm2,%xmm3
    a934:	0f 57 e4             	xorps  %xmm4,%xmm4
    a937:	0f c6 e3 00          	shufps $0x0,%xmm3,%xmm4
    a93b:	0f c6 e0 e8          	shufps $0xe8,%xmm0,%xmm4
    a93f:	66 0f eb cc          	por    %xmm4,%xmm1
    a943:	48 8d 48 02          	lea    0x2(%rax),%rcx
    a947:	66 0f 6e d9          	movd   %ecx,%xmm3
    a94b:	48 c1 e9 20          	shr    $0x20,%rcx
    a94f:	66 0f 6e e1          	movd   %ecx,%xmm4
    a953:	66 0f eb e2          	por    %xmm2,%xmm4
    a957:	0f 57 ed             	xorps  %xmm5,%xmm5
    a95a:	0f c6 ec 00          	shufps $0x0,%xmm4,%xmm5
    a95e:	0f c6 e8 e8          	shufps $0xe8,%xmm0,%xmm5
    a962:	66 0f eb dd          	por    %xmm5,%xmm3
    a966:	48 83 c0 03          	add    $0x3,%rax
    a96a:	66 0f 6e e0          	movd   %eax,%xmm4
    a96e:	48 c1 e8 20          	shr    $0x20,%rax
    a972:	66 0f 6e e8          	movd   %eax,%xmm5
    a976:	66 0f eb ea          	por    %xmm2,%xmm5
    a97a:	66 0f ef d2          	pxor   %xmm2,%xmm2
    a97e:	0f c6 d5 00          	shufps $0x0,%xmm5,%xmm2
    a982:	0f c6 d0 e8          	shufps $0xe8,%xmm0,%xmm2
    a986:	66 0f eb e2          	por    %xmm2,%xmm4
    a98a:	0f 29 44 24 60       	movaps %xmm0,0x60(%rsp)
    a98f:	66 0f 7f 4c 24 70    	movdqa %xmm1,0x70(%rsp)
    a995:	66 0f 7f 9c 24 80 00 	movdqa %xmm3,0x80(%rsp)
    a99c:	00 00 
    a99e:	66 0f 7f a4 24 90 00 	movdqa %xmm4,0x90(%rsp)
    a9a5:	00 00 
    a9a7:	48 8d bc 24 a0 00 00 	lea    0xa0(%rsp),%rdi
    a9ae:	00 
    a9af:	48 8d 74 24 60       	lea    0x60(%rsp),%rsi
    a9b4:	ff 15 ee df 22 00    	callq  *0x22dfee(%rip)        # 2389a8 <_GLOBAL_OFFSET_TABLE_+0x50>
    a9ba:	0f 28 84 24 a0 00 00 	movaps 0xa0(%rsp),%xmm0
    a9c1:	00 
    a9c2:	0f 28 8c 24 b0 00 00 	movaps 0xb0(%rsp),%xmm1
    a9c9:	00 
    a9ca:	0f 28 94 24 c0 00 00 	movaps 0xc0(%rsp),%xmm2
    a9d1:	00 
    a9d2:	0f 28 9c 24 d0 00 00 	movaps 0xd0(%rsp),%xmm3
    a9d9:	00 
    a9da:	0f 29 9c 24 90 00 00 	movaps %xmm3,0x90(%rsp)
    a9e1:	00 
    a9e2:	0f 29 94 24 80 00 00 	movaps %xmm2,0x80(%rsp)
    a9e9:	00 
    a9ea:	0f 29 4c 24 70       	movaps %xmm1,0x70(%rsp)
    a9ef:	0f 29 44 24 60       	movaps %xmm0,0x60(%rsp)
    a9f4:	48 8d bc 24 e0 00 00 	lea    0xe0(%rsp),%rdi
    a9fb:	00 
    a9fc:	48 8d 74 24 60       	lea    0x60(%rsp),%rsi
    aa01:	ff 15 c1 e4 22 00    	callq  *0x22e4c1(%rip)        # 238ec8 <_GLOBAL_OFFSET_TABLE_+0x570>
    aa07:	66 44 0f 6f bc 24 e0 	movdqa 0xe0(%rsp),%xmm15
    aa0e:	00 00 00 
    aa11:	66 0f 6f 8c 24 f0 00 	movdqa 0xf0(%rsp),%xmm1
    aa18:	00 00 
    aa1a:	66 0f 6f 9c 24 00 01 	movdqa 0x100(%rsp),%xmm3
    aa21:	00 00 
    aa23:	66 44 0f 6f b4 24 10 	movdqa 0x110(%rsp),%xmm14
    aa2a:	01 00 00 
    aa2d:	66 44 0f 6f 05 6a 00 	movdqa 0x2006a(%rip),%xmm8        # 2aaa0 <anon.0b2c823383dec51af8e2b43c78491c46.0.llvm.17017948224046636406+0x17b>
    aa34:	02 00 
    aa36:	85 db                	test   %ebx,%ebx
    aa38:	0f 84 c5 04 00 00    	je     af03 <_ZN9c2_chacha4guts11refill_wide13dispatch_init10impl_ssse317ha73003c187df4e76E.llvm.14015113955960590988+0x623>
    aa3e:	66 0f 6f 05 5a 00 02 	movdqa 0x2005a(%rip),%xmm0        # 2aaa0 <anon.0b2c823383dec51af8e2b43c78491c46.0.llvm.17017948224046636406+0x17b>
    aa45:	00 
    aa46:	66 44 0f 6f d8       	movdqa %xmm0,%xmm11
    aa4b:	66 44 0f 6f e0       	movdqa %xmm0,%xmm12
    aa50:	66 0f 7f 44 24 50    	movdqa %xmm0,0x50(%rsp)
    aa56:	66 0f 7f 44 24 20    	movdqa %xmm0,0x20(%rsp)
    aa5c:	66 0f 6f 14 24       	movdqa (%rsp),%xmm2
    aa61:	66 0f 7f 54 24 40    	movdqa %xmm2,0x40(%rsp)
    aa67:	66 0f 6f e2          	movdqa %xmm2,%xmm4
    aa6b:	66 0f 7f 54 24 30    	movdqa %xmm2,0x30(%rsp)
    aa71:	66 0f 6f 6c 24 10    	movdqa 0x10(%rsp),%xmm5
    aa77:	66 0f 6f f5          	movdqa %xmm5,%xmm6
    aa7b:	66 0f 6f c5          	movdqa %xmm5,%xmm0
    aa7f:	66 44 0f 6f d5       	movdqa %xmm5,%xmm10
    aa84:	66 2e 0f 1f 84 00 00 	nopw   %cs:0x0(%rax,%rax,1)
    aa8b:	00 00 00 
    aa8e:	66 90                	xchg   %ax,%ax
    aa90:	66 0f 6f 54 24 50    	movdqa 0x50(%rsp),%xmm2
    aa96:	66 41 0f fe d2       	paddd  %xmm10,%xmm2
    aa9b:	66 44 0f fe d8       	paddd  %xmm0,%xmm11
    aaa0:	66 44 0f fe e6       	paddd  %xmm6,%xmm12
    aaa5:	66 41 0f 6f fc       	movdqa %xmm12,%xmm7
    aaaa:	66 44 0f 6f 64 24 20 	movdqa 0x20(%rsp),%xmm12
    aab1:	66 44 0f fe e5       	paddd  %xmm5,%xmm12
    aab6:	66 44 0f ef fa       	pxor   %xmm2,%xmm15
    aabb:	66 44 0f 6f ea       	movdqa %xmm2,%xmm13
    aac0:	66 41 0f ef cb       	pxor   %xmm11,%xmm1
    aac5:	66 0f ef df          	pxor   %xmm7,%xmm3
    aac9:	66 45 0f ef f4       	pxor   %xmm12,%xmm14
    aace:	66 0f 6f d5          	movdqa %xmm5,%xmm2
    aad2:	f2 41 0f 70 ef b1    	pshuflw $0xb1,%xmm15,%xmm5
    aad8:	f3 44 0f 70 fd b1    	pshufhw $0xb1,%xmm5,%xmm15
    aade:	f2 0f 70 e9 b1       	pshuflw $0xb1,%xmm1,%xmm5
    aae3:	f3 0f 70 cd b1       	pshufhw $0xb1,%xmm5,%xmm1
    aae8:	f2 0f 70 eb b1       	pshuflw $0xb1,%xmm3,%xmm5
    aaed:	f3 44 0f 70 cd b1    	pshufhw $0xb1,%xmm5,%xmm9
    aaf3:	66 44 0f 7f 4c 24 20 	movdqa %xmm9,0x20(%rsp)
    aafa:	f2 41 0f 70 ee b1    	pshuflw $0xb1,%xmm14,%xmm5
    ab00:	f3 0f 70 ed b1       	pshufhw $0xb1,%xmm5,%xmm5
    ab05:	66 0f 7f 6c 24 10    	movdqa %xmm5,0x10(%rsp)
    ab0b:	66 44 0f 6f 44 24 40 	movdqa 0x40(%rsp),%xmm8
    ab12:	66 0f 6f 5c 24 30    	movdqa 0x30(%rsp),%xmm3
    ab18:	66 41 0f fe df       	paddd  %xmm15,%xmm3
    ab1d:	66 0f fe e1          	paddd  %xmm1,%xmm4
    ab21:	66 44 0f 6f f1       	movdqa %xmm1,%xmm14
    ab26:	66 45 0f fe c1       	paddd  %xmm9,%xmm8
    ab2b:	66 0f 6f 0c 24       	movdqa (%rsp),%xmm1
    ab30:	66 0f fe cd          	paddd  %xmm5,%xmm1
    ab34:	66 44 0f ef d3       	pxor   %xmm3,%xmm10
    ab39:	66 41 0f 6f ea       	movdqa %xmm10,%xmm5
    ab3e:	66 0f 72 d5 14       	psrld  $0x14,%xmm5
    ab43:	66 41 0f 72 f2 0c    	pslld  $0xc,%xmm10
    ab49:	66 44 0f eb d5       	por    %xmm5,%xmm10
    ab4e:	66 0f ef c4          	pxor   %xmm4,%xmm0
    ab52:	66 0f 6f e8          	movdqa %xmm0,%xmm5
    ab56:	66 0f 72 d5 14       	psrld  $0x14,%xmm5
    ab5b:	66 0f 72 f0 0c       	pslld  $0xc,%xmm0
    ab60:	66 0f eb c5          	por    %xmm5,%xmm0
    ab64:	66 41 0f ef f0       	pxor   %xmm8,%xmm6
    ab69:	66 0f 6f ee          	movdqa %xmm6,%xmm5
    ab6d:	66 0f 72 d5 14       	psrld  $0x14,%xmm5
    ab72:	66 0f 72 f6 0c       	pslld  $0xc,%xmm6
    ab77:	66 0f eb f5          	por    %xmm5,%xmm6
    ab7b:	66 0f ef d1          	pxor   %xmm1,%xmm2
    ab7f:	66 0f 6f ea          	movdqa %xmm2,%xmm5
    ab83:	66 0f 72 d5 14       	psrld  $0x14,%xmm5
    ab88:	66 0f 72 f2 0c       	pslld  $0xc,%xmm2
    ab8d:	66 0f eb d5          	por    %xmm5,%xmm2
    ab91:	66 45 0f fe ea       	paddd  %xmm10,%xmm13
    ab96:	66 44 0f 7f 6c 24 50 	movdqa %xmm13,0x50(%rsp)
    ab9d:	66 44 0f fe d8       	paddd  %xmm0,%xmm11
    aba2:	66 0f 6f ef          	movdqa %xmm7,%xmm5
    aba6:	66 0f fe ee          	paddd  %xmm6,%xmm5
    abaa:	66 0f 7f 6c 24 40    	movdqa %xmm5,0x40(%rsp)
    abb0:	66 44 0f fe e2       	paddd  %xmm2,%xmm12
    abb5:	66 41 0f 6f ff       	movdqa %xmm15,%xmm7
    abba:	66 41 0f ef fd       	pxor   %xmm13,%xmm7
    abbf:	66 45 0f ef f3       	pxor   %xmm11,%xmm14
    abc4:	66 44 0f 6f 6c 24 20 	movdqa 0x20(%rsp),%xmm13
    abcb:	66 44 0f ef ed       	pxor   %xmm5,%xmm13
    abd0:	66 44 0f 6f 7c 24 10 	movdqa 0x10(%rsp),%xmm15
    abd7:	66 45 0f ef fc       	pxor   %xmm12,%xmm15
    abdc:	66 0f 6f 2d cc fe 01 	movdqa 0x1fecc(%rip),%xmm5        # 2aab0 <anon.0b2c823383dec51af8e2b43c78491c46.0.llvm.17017948224046636406+0x18b>
    abe3:	00 
    abe4:	66 0f 38 00 fd       	pshufb %xmm5,%xmm7
    abe9:	66 0f 7f 7c 24 30    	movdqa %xmm7,0x30(%rsp)
    abef:	66 44 0f 38 00 f5    	pshufb %xmm5,%xmm14
    abf5:	66 44 0f 38 00 ed    	pshufb %xmm5,%xmm13
    abfb:	66 44 0f 38 00 fd    	pshufb %xmm5,%xmm15
    ac01:	66 0f fe df          	paddd  %xmm7,%xmm3
    ac05:	66 41 0f fe e6       	paddd  %xmm14,%xmm4
    ac0a:	66 45 0f 6f ce       	movdqa %xmm14,%xmm9
    ac0f:	66 45 0f fe c5       	paddd  %xmm13,%xmm8
    ac14:	66 45 0f 6f f5       	movdqa %xmm13,%xmm14
    ac19:	66 41 0f fe cf       	paddd  %xmm15,%xmm1
    ac1e:	66 44 0f ef d3       	pxor   %xmm3,%xmm10
    ac23:	66 41 0f 6f ea       	movdqa %xmm10,%xmm5
    ac28:	66 0f 72 d5 19       	psrld  $0x19,%xmm5
    ac2d:	66 41 0f 72 f2 07    	pslld  $0x7,%xmm10
    ac33:	66 44 0f eb d5       	por    %xmm5,%xmm10
    ac38:	66 0f ef c4          	pxor   %xmm4,%xmm0
    ac3c:	66 0f 6f e8          	movdqa %xmm0,%xmm5
    ac40:	66 0f 72 d5 19       	psrld  $0x19,%xmm5
    ac45:	66 0f 72 f0 07       	pslld  $0x7,%xmm0
    ac4a:	66 0f eb c5          	por    %xmm5,%xmm0
    ac4e:	66 41 0f ef f0       	pxor   %xmm8,%xmm6
    ac53:	66 0f 6f ee          	movdqa %xmm6,%xmm5
    ac57:	66 0f 72 d5 19       	psrld  $0x19,%xmm5
    ac5c:	66 0f 72 f6 07       	pslld  $0x7,%xmm6
    ac61:	66 0f eb f5          	por    %xmm5,%xmm6
    ac65:	66 0f ef d1          	pxor   %xmm1,%xmm2
    ac69:	66 0f 6f ea          	movdqa %xmm2,%xmm5
    ac6d:	66 0f 72 d5 19       	psrld  $0x19,%xmm5
    ac72:	66 0f 72 f2 07       	pslld  $0x7,%xmm2
    ac77:	66 0f eb d5          	por    %xmm5,%xmm2
    ac7b:	66 41 0f 70 fa 39    	pshufd $0x39,%xmm10,%xmm7
    ac81:	66 0f 70 c0 39       	pshufd $0x39,%xmm0,%xmm0
    ac86:	66 0f 70 f6 39       	pshufd $0x39,%xmm6,%xmm6
    ac8b:	66 0f 70 ea 39       	pshufd $0x39,%xmm2,%xmm5
    ac90:	66 0f 70 d3 4e       	pshufd $0x4e,%xmm3,%xmm2
    ac95:	66 0f 7f 14 24       	movdqa %xmm2,(%rsp)
    ac9a:	66 0f 70 d4 4e       	pshufd $0x4e,%xmm4,%xmm2
    ac9f:	66 0f 7f 54 24 10    	movdqa %xmm2,0x10(%rsp)
    aca5:	66 41 0f 70 d0 4e    	pshufd $0x4e,%xmm8,%xmm2
    acab:	66 0f 7f 54 24 20    	movdqa %xmm2,0x20(%rsp)
    acb1:	66 44 0f 70 c1 4e    	pshufd $0x4e,%xmm1,%xmm8
    acb7:	66 0f 70 4c 24 30 93 	pshufd $0x93,0x30(%rsp),%xmm1
    acbe:	66 41 0f 70 d1 93    	pshufd $0x93,%xmm9,%xmm2
    acc4:	66 41 0f 70 dd 93    	pshufd $0x93,%xmm13,%xmm3
    acca:	66 45 0f 70 ef 93    	pshufd $0x93,%xmm15,%xmm13
    acd0:	66 44 0f 6f 7c 24 50 	movdqa 0x50(%rsp),%xmm15
    acd7:	66 44 0f fe ff       	paddd  %xmm7,%xmm15
    acdc:	66 44 0f fe d8       	paddd  %xmm0,%xmm11
    ace1:	66 44 0f 6f 54 24 40 	movdqa 0x40(%rsp),%xmm10
    ace8:	66 44 0f fe d6       	paddd  %xmm6,%xmm10
    aced:	66 45 0f 6f cc       	movdqa %xmm12,%xmm9
    acf2:	66 44 0f fe cd       	paddd  %xmm5,%xmm9
    acf7:	66 41 0f ef cf       	pxor   %xmm15,%xmm1
    acfc:	66 41 0f ef d3       	pxor   %xmm11,%xmm2
    ad01:	66 41 0f ef da       	pxor   %xmm10,%xmm3
    ad06:	66 45 0f ef e9       	pxor   %xmm9,%xmm13
    ad0b:	f2 0f 70 c9 b1       	pshuflw $0xb1,%xmm1,%xmm1
    ad10:	f3 0f 70 e1 b1       	pshufhw $0xb1,%xmm1,%xmm4
    ad15:	66 0f 7f 64 24 30    	movdqa %xmm4,0x30(%rsp)
    ad1b:	f2 0f 70 ca b1       	pshuflw $0xb1,%xmm2,%xmm1
    ad20:	f3 0f 70 d1 b1       	pshufhw $0xb1,%xmm1,%xmm2
    ad25:	f2 0f 70 cb b1       	pshuflw $0xb1,%xmm3,%xmm1
    ad2a:	f3 44 0f 70 f1 b1    	pshufhw $0xb1,%xmm1,%xmm14
    ad30:	f2 41 0f 70 cd b1    	pshuflw $0xb1,%xmm13,%xmm1
    ad36:	f3 44 0f 70 e9 b1    	pshufhw $0xb1,%xmm1,%xmm13
    ad3c:	66 0f 6f 0c 24       	movdqa (%rsp),%xmm1
    ad41:	66 0f fe cc          	paddd  %xmm4,%xmm1
    ad45:	66 0f 7f 0c 24       	movdqa %xmm1,(%rsp)
    ad4a:	66 0f 6f 64 24 10    	movdqa 0x10(%rsp),%xmm4
    ad50:	66 0f fe e2          	paddd  %xmm2,%xmm4
    ad54:	66 44 0f 6f e2       	movdqa %xmm2,%xmm12
    ad59:	66 0f 6f 5c 24 20    	movdqa 0x20(%rsp),%xmm3
    ad5f:	66 41 0f fe de       	paddd  %xmm14,%xmm3
    ad64:	66 41 0f 6f d0       	movdqa %xmm8,%xmm2
    ad69:	66 41 0f fe d5       	paddd  %xmm13,%xmm2
    ad6e:	66 0f ef f9          	pxor   %xmm1,%xmm7
    ad72:	66 0f 6f cf          	movdqa %xmm7,%xmm1
    ad76:	66 0f 72 d1 14       	psrld  $0x14,%xmm1
    ad7b:	66 0f 72 f7 0c       	pslld  $0xc,%xmm7
    ad80:	66 0f eb f9          	por    %xmm1,%xmm7
    ad84:	66 0f ef c4          	pxor   %xmm4,%xmm0
    ad88:	66 0f 6f c8          	movdqa %xmm0,%xmm1
    ad8c:	66 0f 72 d1 14       	psrld  $0x14,%xmm1
    ad91:	66 0f 72 f0 0c       	pslld  $0xc,%xmm0
    ad96:	66 0f eb c1          	por    %xmm1,%xmm0
    ad9a:	66 0f ef f3          	pxor   %xmm3,%xmm6
    ad9e:	66 0f 6f ce          	movdqa %xmm6,%xmm1
    ada2:	66 0f 72 d1 14       	psrld  $0x14,%xmm1
    ada7:	66 0f 72 f6 0c       	pslld  $0xc,%xmm6
    adac:	66 0f eb f1          	por    %xmm1,%xmm6
    adb0:	66 0f ef ea          	pxor   %xmm2,%xmm5
    adb4:	66 0f 6f cd          	movdqa %xmm5,%xmm1
    adb8:	66 0f 72 d1 14       	psrld  $0x14,%xmm1
    adbd:	66 0f 72 f5 0c       	pslld  $0xc,%xmm5
    adc2:	66 0f eb e9          	por    %xmm1,%xmm5
    adc6:	66 44 0f fe ff       	paddd  %xmm7,%xmm15
    adcb:	66 44 0f fe d8       	paddd  %xmm0,%xmm11
    add0:	66 44 0f fe d6       	paddd  %xmm6,%xmm10
    add5:	66 44 0f fe cd       	paddd  %xmm5,%xmm9
    adda:	66 44 0f 7f 7c 24 50 	movdqa %xmm15,0x50(%rsp)
    ade1:	66 44 0f 6f 44 24 30 	movdqa 0x30(%rsp),%xmm8
    ade8:	66 45 0f ef c7       	pxor   %xmm15,%xmm8
    aded:	66 45 0f 6f fc       	movdqa %xmm12,%xmm15
    adf2:	66 45 0f ef fb       	pxor   %xmm11,%xmm15
    adf7:	66 45 0f 6f e2       	movdqa %xmm10,%xmm12
    adfc:	66 45 0f ef f2       	pxor   %xmm10,%xmm14
    ae01:	66 44 0f 7f 4c 24 20 	movdqa %xmm9,0x20(%rsp)
    ae08:	66 45 0f ef e9       	pxor   %xmm9,%xmm13
    ae0d:	66 0f 6f 0d 9b fc 01 	movdqa 0x1fc9b(%rip),%xmm1        # 2aab0 <anon.0b2c823383dec51af8e2b43c78491c46.0.llvm.17017948224046636406+0x18b>
    ae14:	00 
    ae15:	66 44 0f 38 00 c1    	pshufb %xmm1,%xmm8
    ae1b:	66 44 0f 38 00 f9    	pshufb %xmm1,%xmm15
    ae21:	66 45 0f 6f cf       	movdqa %xmm15,%xmm9
    ae26:	66 44 0f 38 00 f1    	pshufb %xmm1,%xmm14
    ae2c:	66 44 0f 38 00 e9    	pshufb %xmm1,%xmm13
    ae32:	66 44 0f 6f 3c 24    	movdqa (%rsp),%xmm15
    ae38:	66 45 0f fe f8       	paddd  %xmm8,%xmm15
    ae3d:	66 41 0f fe e1       	paddd  %xmm9,%xmm4
    ae42:	66 41 0f fe de       	paddd  %xmm14,%xmm3
    ae47:	66 41 0f fe d5       	paddd  %xmm13,%xmm2
    ae4c:	66 41 0f ef ff       	pxor   %xmm15,%xmm7
    ae51:	66 0f 6f cf          	movdqa %xmm7,%xmm1
    ae55:	66 0f 72 d1 19       	psrld  $0x19,%xmm1
    ae5a:	66 0f 72 f7 07       	pslld  $0x7,%xmm7
    ae5f:	66 0f eb f9          	por    %xmm1,%xmm7
    ae63:	66 0f ef c4          	pxor   %xmm4,%xmm0
    ae67:	66 0f 6f c8          	movdqa %xmm0,%xmm1
    ae6b:	66 0f 72 d1 19       	psrld  $0x19,%xmm1
    ae70:	66 0f 72 f0 07       	pslld  $0x7,%xmm0
    ae75:	66 0f eb c1          	por    %xmm1,%xmm0
    ae79:	66 0f ef f3          	pxor   %xmm3,%xmm6
    ae7d:	66 0f 6f ce          	movdqa %xmm6,%xmm1
    ae81:	66 0f 72 d1 19       	psrld  $0x19,%xmm1
    ae86:	66 0f 72 f6 07       	pslld  $0x7,%xmm6
    ae8b:	66 0f eb f1          	por    %xmm1,%xmm6
    ae8f:	66 0f ef ea          	pxor   %xmm2,%xmm5
    ae93:	66 0f 6f cd          	movdqa %xmm5,%xmm1
    ae97:	66 0f 72 d1 19       	psrld  $0x19,%xmm1
    ae9c:	66 0f 72 f5 07       	pslld  $0x7,%xmm5
    aea1:	66 0f eb e9          	por    %xmm1,%xmm5
    aea5:	66 44 0f 70 d7 93    	pshufd $0x93,%xmm7,%xmm10
    aeab:	66 0f 70 c0 93       	pshufd $0x93,%xmm0,%xmm0
    aeb0:	66 0f 70 f6 93       	pshufd $0x93,%xmm6,%xmm6
    aeb5:	66 0f 70 ed 93       	pshufd $0x93,%xmm5,%xmm5
    aeba:	66 41 0f 70 cf 4e    	pshufd $0x4e,%xmm15,%xmm1
    aec0:	66 0f 7f 4c 24 30    	movdqa %xmm1,0x30(%rsp)
    aec6:	66 0f 70 e4 4e       	pshufd $0x4e,%xmm4,%xmm4
    aecb:	66 0f 70 cb 4e       	pshufd $0x4e,%xmm3,%xmm1
    aed0:	66 0f 7f 4c 24 40    	movdqa %xmm1,0x40(%rsp)
    aed6:	66 0f 70 ca 4e       	pshufd $0x4e,%xmm2,%xmm1
    aedb:	66 0f 7f 0c 24       	movdqa %xmm1,(%rsp)
    aee0:	66 45 0f 70 f8 39    	pshufd $0x39,%xmm8,%xmm15
    aee6:	66 41 0f 70 c9 39    	pshufd $0x39,%xmm9,%xmm1
    aeec:	66 41 0f 70 de 39    	pshufd $0x39,%xmm14,%xmm3
    aef2:	66 45 0f 70 f5 39    	pshufd $0x39,%xmm13,%xmm14
    aef8:	83 c3 ff             	add    $0xffffffff,%ebx
    aefb:	0f 85 8f fb ff ff    	jne    aa90 <_ZN9c2_chacha4guts11refill_wide13dispatch_init10impl_ssse317ha73003c187df4e76E.llvm.14015113955960590988+0x1b0>
    af01:	eb 40                	jmp    af43 <_ZN9c2_chacha4guts11refill_wide13dispatch_init10impl_ssse317ha73003c187df4e76E.llvm.14015113955960590988+0x663>
    af03:	66 0f 6f 6c 24 10    	movdqa 0x10(%rsp),%xmm5
    af09:	66 44 0f 6f d5       	movdqa %xmm5,%xmm10
    af0e:	66 0f 6f c5          	movdqa %xmm5,%xmm0
    af12:	66 0f 6f f5          	movdqa %xmm5,%xmm6
    af16:	66 0f 6f 14 24       	movdqa (%rsp),%xmm2
    af1b:	66 0f 7f 54 24 30    	movdqa %xmm2,0x30(%rsp)
    af21:	66 0f 6f e2          	movdqa %xmm2,%xmm4
    af25:	66 0f 7f 54 24 40    	movdqa %xmm2,0x40(%rsp)
    af2b:	66 44 0f 7f 44 24 20 	movdqa %xmm8,0x20(%rsp)
    af32:	66 45 0f 6f e0       	movdqa %xmm8,%xmm12
    af37:	66 45 0f 6f d8       	movdqa %xmm8,%xmm11
    af3c:	66 44 0f 7f 44 24 50 	movdqa %xmm8,0x50(%rsp)
    af43:	66 0f 7f 6c 24 10    	movdqa %xmm5,0x10(%rsp)
    af49:	66 45 0f 6f 6e 20    	movdqa 0x20(%r14),%xmm13
    af4f:	66 4c 0f 7e e8       	movq   %xmm13,%rax
    af54:	48 8d 48 01          	lea    0x1(%rax),%rcx
    af58:	48 89 ca             	mov    %rcx,%rdx
    af5b:	48 c1 ea 20          	shr    $0x20,%rdx
    af5f:	66 45 0f 70 cd f8    	pshufd $0xf8,%xmm13,%xmm9
    af65:	66 41 0f 73 f9 04    	pslldq $0x4,%xmm9
    af6b:	66 0f 6e d2          	movd   %edx,%xmm2
    af6f:	66 41 0f eb d1       	por    %xmm9,%xmm2
    af74:	66 0f ef ed          	pxor   %xmm5,%xmm5
    af78:	0f c6 ea 00          	shufps $0x0,%xmm2,%xmm5
    af7c:	41 0f c6 ed e8       	shufps $0xe8,%xmm13,%xmm5
    af81:	66 0f 6e d1          	movd   %ecx,%xmm2
    af85:	66 0f eb d5          	por    %xmm5,%xmm2
    af89:	66 0f 7f 94 24 20 01 	movdqa %xmm2,0x120(%rsp)
    af90:	00 00 
    af92:	48 8d 48 02          	lea    0x2(%rax),%rcx
    af96:	48 89 ca             	mov    %rcx,%rdx
    af99:	48 c1 ea 20          	shr    $0x20,%rdx
    af9d:	66 0f 6e ea          	movd   %edx,%xmm5
    afa1:	66 41 0f eb e9       	por    %xmm9,%xmm5
    afa6:	66 0f ef d2          	pxor   %xmm2,%xmm2
    afaa:	0f c6 d5 00          	shufps $0x0,%xmm5,%xmm2
    afae:	41 0f c6 d5 e8       	shufps $0xe8,%xmm13,%xmm2
    afb3:	66 44 0f 6e c1       	movd   %ecx,%xmm8
    afb8:	66 44 0f eb c2       	por    %xmm2,%xmm8
    afbd:	48 8d 48 03          	lea    0x3(%rax),%rcx
    afc1:	48 89 ca             	mov    %rcx,%rdx
    afc4:	48 c1 ea 20          	shr    $0x20,%rdx
    afc8:	66 0f 6e ea          	movd   %edx,%xmm5
    afcc:	66 41 0f eb e9       	por    %xmm9,%xmm5
    afd1:	0f 57 d2             	xorps  %xmm2,%xmm2
    afd4:	0f c6 d5 00          	shufps $0x0,%xmm5,%xmm2
    afd8:	41 0f c6 d5 e8       	shufps $0xe8,%xmm13,%xmm2
    afdd:	66 0f 6e f9          	movd   %ecx,%xmm7
    afe1:	66 0f eb fa          	por    %xmm2,%xmm7
    afe5:	48 83 c0 04          	add    $0x4,%rax
    afe9:	48 89 c1             	mov    %rax,%rcx
    afec:	48 c1 e9 20          	shr    $0x20,%rcx
    aff0:	66 0f 6e e9          	movd   %ecx,%xmm5
    aff4:	66 41 0f eb e9       	por    %xmm9,%xmm5
    aff9:	0f 57 d2             	xorps  %xmm2,%xmm2
    affc:	0f c6 d5 00          	shufps $0x0,%xmm5,%xmm2
    b000:	41 0f c6 d5 e8       	shufps $0xe8,%xmm13,%xmm2
    b005:	66 44 0f 6e c8       	movd   %eax,%xmm9
    b00a:	66 44 0f eb ca       	por    %xmm2,%xmm9
    b00f:	66 0f 6f 6c 24 50    	movdqa 0x50(%rsp),%xmm5
    b015:	66 0f 7f ac 24 30 01 	movdqa %xmm5,0x130(%rsp)
    b01c:	00 00 
    b01e:	66 44 0f 7f 9c 24 40 	movdqa %xmm11,0x140(%rsp)
    b025:	01 00 00 
    b028:	66 44 0f 7f a4 24 50 	movdqa %xmm12,0x150(%rsp)
    b02f:	01 00 00 
    b032:	0f 28 54 24 20       	movaps 0x20(%rsp),%xmm2
    b037:	0f 29 94 24 60 01 00 	movaps %xmm2,0x160(%rsp)
    b03e:	00 
    b03f:	66 44 0f 7f 94 24 70 	movdqa %xmm10,0x170(%rsp)
    b046:	01 00 00 
    b049:	66 0f 7f 84 24 80 01 	movdqa %xmm0,0x180(%rsp)
    b050:	00 00 
    b052:	66 0f 7f b4 24 90 01 	movdqa %xmm6,0x190(%rsp)
    b059:	00 00 
    b05b:	0f 28 44 24 10       	movaps 0x10(%rsp),%xmm0
    b060:	0f 29 84 24 a0 01 00 	movaps %xmm0,0x1a0(%rsp)
    b067:	00 
    b068:	66 0f 6f 54 24 30    	movdqa 0x30(%rsp),%xmm2
    b06e:	66 0f 7f 94 24 a0 00 	movdqa %xmm2,0xa0(%rsp)
    b075:	00 00 
    b077:	66 0f 7f a4 24 b0 00 	movdqa %xmm4,0xb0(%rsp)
    b07e:	00 00 
    b080:	0f 28 44 24 40       	movaps 0x40(%rsp),%xmm0
    b085:	0f 29 84 24 c0 00 00 	movaps %xmm0,0xc0(%rsp)
    b08c:	00 
    b08d:	0f 28 04 24          	movaps (%rsp),%xmm0
    b091:	0f 29 84 24 d0 00 00 	movaps %xmm0,0xd0(%rsp)
    b098:	00 
    b099:	66 44 0f 7f bc 24 e0 	movdqa %xmm15,0xe0(%rsp)
    b0a0:	00 00 00 
    b0a3:	66 0f 7f 8c 24 f0 00 	movdqa %xmm1,0xf0(%rsp)
    b0aa:	00 00 
    b0ac:	66 0f 7f 9c 24 00 01 	movdqa %xmm3,0x100(%rsp)
    b0b3:	00 00 
    b0b5:	66 44 0f 7f b4 24 10 	movdqa %xmm14,0x110(%rsp)
    b0bc:	01 00 00 
    b0bf:	66 41 0f 6f 06       	movdqa (%r14),%xmm0
    b0c4:	66 41 0f 6f 4e 10    	movdqa 0x10(%r14),%xmm1
    b0ca:	44 0f 29 6c 24 60    	movaps %xmm13,0x60(%rsp)
    b0d0:	0f 28 9c 24 20 01 00 	movaps 0x120(%rsp),%xmm3
    b0d7:	00 
    b0d8:	0f 29 5c 24 70       	movaps %xmm3,0x70(%rsp)
    b0dd:	66 44 0f 7f 84 24 80 	movdqa %xmm8,0x80(%rsp)
    b0e4:	00 00 00 
    b0e7:	66 0f 7f bc 24 90 00 	movdqa %xmm7,0x90(%rsp)
    b0ee:	00 00 
    b0f0:	66 45 0f 7f 4e 20    	movdqa %xmm9,0x20(%r14)
    b0f6:	66 0f 6f 35 a2 f9 01 	movdqa 0x1f9a2(%rip),%xmm6        # 2aaa0 <anon.0b2c823383dec51af8e2b43c78491c46.0.llvm.17017948224046636406+0x17b>
    b0fd:	00 
    b0fe:	66 0f fe ee          	paddd  %xmm6,%xmm5
    b102:	f3 41 0f 7f 2f       	movdqu %xmm5,(%r15)
    b107:	66 44 0f fe d0       	paddd  %xmm0,%xmm10
    b10c:	f3 45 0f 7f 57 10    	movdqu %xmm10,0x10(%r15)
    b112:	66 0f fe d1          	paddd  %xmm1,%xmm2
    b116:	f3 41 0f 7f 57 20    	movdqu %xmm2,0x20(%r15)
    b11c:	66 45 0f fe ef       	paddd  %xmm15,%xmm13
    b121:	f3 45 0f 7f 6f 30    	movdqu %xmm13,0x30(%r15)
    b127:	66 0f 6f 54 24 70    	movdqa 0x70(%rsp),%xmm2
    b12d:	66 0f 6f 9c 24 40 01 	movdqa 0x140(%rsp),%xmm3
    b134:	00 00 
    b136:	66 0f fe de          	paddd  %xmm6,%xmm3
    b13a:	66 0f 6f a4 24 80 01 	movdqa 0x180(%rsp),%xmm4
    b141:	00 00 
    b143:	66 0f fe e0          	paddd  %xmm0,%xmm4
    b147:	66 0f 6f ac 24 b0 00 	movdqa 0xb0(%rsp),%xmm5
    b14e:	00 00 
    b150:	66 0f fe e9          	paddd  %xmm1,%xmm5
    b154:	66 0f fe 94 24 f0 00 	paddd  0xf0(%rsp),%xmm2
    b15b:	00 00 
    b15d:	f3 41 0f 7f 5f 40    	movdqu %xmm3,0x40(%r15)
    b163:	f3 41 0f 7f 67 50    	movdqu %xmm4,0x50(%r15)
    b169:	f3 41 0f 7f 6f 60    	movdqu %xmm5,0x60(%r15)
    b16f:	f3 41 0f 7f 57 70    	movdqu %xmm2,0x70(%r15)
    b175:	66 0f 6f 94 24 80 00 	movdqa 0x80(%rsp),%xmm2
    b17c:	00 00 
    b17e:	66 0f 6f 9c 24 50 01 	movdqa 0x150(%rsp),%xmm3
    b185:	00 00 
    b187:	66 0f fe de          	paddd  %xmm6,%xmm3
    b18b:	66 0f 6f a4 24 90 01 	movdqa 0x190(%rsp),%xmm4
    b192:	00 00 
    b194:	66 0f fe 94 24 00 01 	paddd  0x100(%rsp),%xmm2
    b19b:	00 00 
    b19d:	66 0f 6f ac 24 c0 00 	movdqa 0xc0(%rsp),%xmm5
    b1a4:	00 00 
    b1a6:	f3 41 0f 7f 9f 80 00 	movdqu %xmm3,0x80(%r15)
    b1ad:	00 00 
    b1af:	66 0f fe e0          	paddd  %xmm0,%xmm4
    b1b3:	f3 41 0f 7f a7 90 00 	movdqu %xmm4,0x90(%r15)
    b1ba:	00 00 
    b1bc:	66 0f fe e9          	paddd  %xmm1,%xmm5
    b1c0:	f3 41 0f 7f af a0 00 	movdqu %xmm5,0xa0(%r15)
    b1c7:	00 00 
    b1c9:	f3 41 0f 7f 97 b0 00 	movdqu %xmm2,0xb0(%r15)
    b1d0:	00 00 
    b1d2:	66 0f 6f 94 24 90 00 	movdqa 0x90(%rsp),%xmm2
    b1d9:	00 00 
    b1db:	66 0f fe b4 24 60 01 	paddd  0x160(%rsp),%xmm6
    b1e2:	00 00 
    b1e4:	66 0f fe 84 24 a0 01 	paddd  0x1a0(%rsp),%xmm0
    b1eb:	00 00 
    b1ed:	66 0f fe 8c 24 d0 00 	paddd  0xd0(%rsp),%xmm1
    b1f4:	00 00 
    b1f6:	66 0f fe 94 24 10 01 	paddd  0x110(%rsp),%xmm2
    b1fd:	00 00 
    b1ff:	f3 41 0f 7f b7 c0 00 	movdqu %xmm6,0xc0(%r15)
    b206:	00 00 
    b208:	f3 41 0f 7f 87 d0 00 	movdqu %xmm0,0xd0(%r15)
    b20f:	00 00 
    b211:	f3 41 0f 7f 8f e0 00 	movdqu %xmm1,0xe0(%r15)
    b218:	00 00 
    b21a:	f3 41 0f 7f 97 f0 00 	movdqu %xmm2,0xf0(%r15)
    b221:	00 00 
    b223:	48 8d 65 e8          	lea    -0x18(%rbp),%rsp
    b227:	5b                   	pop    %rbx
    b228:	41 5e                	pop    %r14
    b22a:	41 5f                	pop    %r15
    b22c:	5d                   	pop    %rbp
    b22d:	c3                   	retq   
    b22e:	66 90                	xchg   %ax,%ax

000000000000b230 <_ZN9c2_chacha4guts11refill_wide13dispatch_init9impl_sse217h8295b311c543de62E.llvm.14015113955960590988>:
    b230:	55                   	push   %rbp
    b231:	48 89 e5             	mov    %rsp,%rbp
    b234:	41 57                	push   %r15
    b236:	41 56                	push   %r14
    b238:	53                   	push   %rbx
    b239:	48 83 e4 e0          	and    $0xffffffffffffffe0,%rsp
    b23d:	48 81 ec c0 01 00 00 	sub    $0x1c0,%rsp
    b244:	49 89 d7             	mov    %rdx,%r15
    b247:	89 f3                	mov    %esi,%ebx
    b249:	49 89 fe             	mov    %rdi,%r14
    b24c:	0f 28 07             	movaps (%rdi),%xmm0
    b24f:	0f 29 44 24 30       	movaps %xmm0,0x30(%rsp)
    b254:	0f 28 47 10          	movaps 0x10(%rdi),%xmm0
    b258:	0f 29 44 24 10       	movaps %xmm0,0x10(%rsp)
    b25d:	66 0f 6f 47 20       	movdqa 0x20(%rdi),%xmm0
    b262:	66 48 0f 7e c0       	movq   %xmm0,%rax
    b267:	48 8d 48 01          	lea    0x1(%rax),%rcx
    b26b:	66 0f 6e c9          	movd   %ecx,%xmm1
    b26f:	48 c1 e9 20          	shr    $0x20,%rcx
    b273:	66 0f 70 d0 f8       	pshufd $0xf8,%xmm0,%xmm2
    b278:	66 0f 73 fa 04       	pslldq $0x4,%xmm2
    b27d:	66 0f 6e d9          	movd   %ecx,%xmm3
    b281:	66 0f eb da          	por    %xmm2,%xmm3
    b285:	0f 57 e4             	xorps  %xmm4,%xmm4
    b288:	0f c6 e3 00          	shufps $0x0,%xmm3,%xmm4
    b28c:	0f c6 e0 e8          	shufps $0xe8,%xmm0,%xmm4
    b290:	66 0f eb cc          	por    %xmm4,%xmm1
    b294:	48 8d 48 02          	lea    0x2(%rax),%rcx
    b298:	66 0f 6e d9          	movd   %ecx,%xmm3
    b29c:	48 c1 e9 20          	shr    $0x20,%rcx
    b2a0:	66 0f 6e e1          	movd   %ecx,%xmm4
    b2a4:	66 0f eb e2          	por    %xmm2,%xmm4
    b2a8:	0f 57 ed             	xorps  %xmm5,%xmm5
    b2ab:	0f c6 ec 00          	shufps $0x0,%xmm4,%xmm5
    b2af:	0f c6 e8 e8          	shufps $0xe8,%xmm0,%xmm5
    b2b3:	66 0f eb dd          	por    %xmm5,%xmm3
    b2b7:	48 83 c0 03          	add    $0x3,%rax
    b2bb:	66 0f 6e e0          	movd   %eax,%xmm4
    b2bf:	48 c1 e8 20          	shr    $0x20,%rax
    b2c3:	66 0f 6e e8          	movd   %eax,%xmm5
    b2c7:	66 0f eb ea          	por    %xmm2,%xmm5
    b2cb:	66 0f ef d2          	pxor   %xmm2,%xmm2
    b2cf:	0f c6 d5 00          	shufps $0x0,%xmm5,%xmm2
    b2d3:	0f c6 d0 e8          	shufps $0xe8,%xmm0,%xmm2
    b2d7:	66 0f eb e2          	por    %xmm2,%xmm4
    b2db:	0f 29 44 24 60       	movaps %xmm0,0x60(%rsp)
    b2e0:	66 0f 7f 4c 24 70    	movdqa %xmm1,0x70(%rsp)
    b2e6:	66 0f 7f 9c 24 80 00 	movdqa %xmm3,0x80(%rsp)
    b2ed:	00 00 
    b2ef:	66 0f 7f a4 24 90 00 	movdqa %xmm4,0x90(%rsp)
    b2f6:	00 00 
    b2f8:	48 8d bc 24 a0 00 00 	lea    0xa0(%rsp),%rdi
    b2ff:	00 
    b300:	48 8d 74 24 60       	lea    0x60(%rsp),%rsi
    b305:	ff 15 9d d6 22 00    	callq  *0x22d69d(%rip)        # 2389a8 <_GLOBAL_OFFSET_TABLE_+0x50>
    b30b:	0f 28 84 24 a0 00 00 	movaps 0xa0(%rsp),%xmm0
    b312:	00 
    b313:	0f 28 8c 24 b0 00 00 	movaps 0xb0(%rsp),%xmm1
    b31a:	00 
    b31b:	66 0f 6f 94 24 c0 00 	movdqa 0xc0(%rsp),%xmm2
    b322:	00 00 
    b324:	0f 28 9c 24 d0 00 00 	movaps 0xd0(%rsp),%xmm3
    b32b:	00 
    b32c:	0f 29 9c 24 90 00 00 	movaps %xmm3,0x90(%rsp)
    b333:	00 
    b334:	66 0f 7f 94 24 80 00 	movdqa %xmm2,0x80(%rsp)
    b33b:	00 00 
    b33d:	0f 29 4c 24 70       	movaps %xmm1,0x70(%rsp)
    b342:	0f 29 44 24 60       	movaps %xmm0,0x60(%rsp)
    b347:	48 8d bc 24 e0 00 00 	lea    0xe0(%rsp),%rdi
    b34e:	00 
    b34f:	48 8d 74 24 60       	lea    0x60(%rsp),%rsi
    b354:	ff 15 6e db 22 00    	callq  *0x22db6e(%rip)        # 238ec8 <_GLOBAL_OFFSET_TABLE_+0x570>
    b35a:	66 0f 6f 9c 24 e0 00 	movdqa 0xe0(%rsp),%xmm3
    b361:	00 00 
    b363:	66 0f 6f 8c 24 f0 00 	movdqa 0xf0(%rsp),%xmm1
    b36a:	00 00 
    b36c:	66 0f 6f 84 24 00 01 	movdqa 0x100(%rsp),%xmm0
    b373:	00 00 
    b375:	66 0f 6f a4 24 10 01 	movdqa 0x110(%rsp),%xmm4
    b37c:	00 00 
    b37e:	66 44 0f 6f 25 19 f7 	movdqa 0x1f719(%rip),%xmm12        # 2aaa0 <anon.0b2c823383dec51af8e2b43c78491c46.0.llvm.17017948224046636406+0x17b>
    b385:	01 00 
    b387:	85 db                	test   %ebx,%ebx
    b389:	0f 84 c0 04 00 00    	je     b84f <_ZN9c2_chacha4guts11refill_wide13dispatch_init9impl_sse217h8295b311c543de62E.llvm.14015113955960590988+0x61f>
    b38f:	66 44 0f 6f 2d 08 f7 	movdqa 0x1f708(%rip),%xmm13        # 2aaa0 <anon.0b2c823383dec51af8e2b43c78491c46.0.llvm.17017948224046636406+0x17b>
    b396:	01 00 
    b398:	66 45 0f 6f dd       	movdqa %xmm13,%xmm11
    b39d:	66 45 0f 6f f5       	movdqa %xmm13,%xmm14
    b3a2:	66 44 0f 7f 6c 24 40 	movdqa %xmm13,0x40(%rsp)
    b3a9:	44 0f 28 4c 24 10    	movaps 0x10(%rsp),%xmm9
    b3af:	44 0f 29 0c 24       	movaps %xmm9,(%rsp)
    b3b4:	44 0f 29 4c 24 20    	movaps %xmm9,0x20(%rsp)
    b3ba:	44 0f 29 4c 24 50    	movaps %xmm9,0x50(%rsp)
    b3c0:	66 44 0f 6f 4c 24 30 	movdqa 0x30(%rsp),%xmm9
    b3c7:	66 41 0f 6f e9       	movdqa %xmm9,%xmm5
    b3cc:	66 41 0f 6f f9       	movdqa %xmm9,%xmm7
    b3d1:	66 41 0f 6f f1       	movdqa %xmm9,%xmm6
    b3d6:	66 2e 0f 1f 84 00 00 	nopw   %cs:0x0(%rax,%rax,1)
    b3dd:	00 00 00 
    b3e0:	66 44 0f 6f 54 24 40 	movdqa 0x40(%rsp),%xmm10
    b3e7:	66 44 0f fe d6       	paddd  %xmm6,%xmm10
    b3ec:	66 44 0f fe df       	paddd  %xmm7,%xmm11
    b3f1:	66 44 0f fe f5       	paddd  %xmm5,%xmm14
    b3f6:	66 45 0f fe e9       	paddd  %xmm9,%xmm13
    b3fb:	66 41 0f ef da       	pxor   %xmm10,%xmm3
    b400:	66 41 0f ef cb       	pxor   %xmm11,%xmm1
    b405:	66 41 0f ef c6       	pxor   %xmm14,%xmm0
    b40a:	66 41 0f ef e5       	pxor   %xmm13,%xmm4
    b40f:	f2 0f 70 d3 b1       	pshuflw $0xb1,%xmm3,%xmm2
    b414:	f3 44 0f 70 c2 b1    	pshufhw $0xb1,%xmm2,%xmm8
    b41a:	f2 0f 70 c9 b1       	pshuflw $0xb1,%xmm1,%xmm1
    b41f:	f3 44 0f 70 f9 b1    	pshufhw $0xb1,%xmm1,%xmm15
    b425:	f2 0f 70 c0 b1       	pshuflw $0xb1,%xmm0,%xmm0
    b42a:	f3 0f 70 d0 b1       	pshufhw $0xb1,%xmm0,%xmm2
    b42f:	f2 0f 70 c4 b1       	pshuflw $0xb1,%xmm4,%xmm0
    b434:	f3 0f 70 d8 b1       	pshufhw $0xb1,%xmm0,%xmm3
    b439:	66 0f 6f 64 24 20    	movdqa 0x20(%rsp),%xmm4
    b43f:	66 44 0f 6f 24 24    	movdqa (%rsp),%xmm12
    b445:	66 0f 6f 4c 24 50    	movdqa 0x50(%rsp),%xmm1
    b44b:	66 41 0f fe c8       	paddd  %xmm8,%xmm1
    b450:	66 41 0f fe e7       	paddd  %xmm15,%xmm4
    b455:	66 0f 7f 64 24 20    	movdqa %xmm4,0x20(%rsp)
    b45b:	66 44 0f fe e2       	paddd  %xmm2,%xmm12
    b460:	66 44 0f 7f 24 24    	movdqa %xmm12,(%rsp)
    b466:	66 0f 6f 44 24 10    	movdqa 0x10(%rsp),%xmm0
    b46c:	66 0f fe c3          	paddd  %xmm3,%xmm0
    b470:	66 0f 7f 44 24 10    	movdqa %xmm0,0x10(%rsp)
    b476:	66 44 0f ef c8       	pxor   %xmm0,%xmm9
    b47b:	66 0f ef f1          	pxor   %xmm1,%xmm6
    b47f:	66 0f 6f c6          	movdqa %xmm6,%xmm0
    b483:	66 0f 72 d0 14       	psrld  $0x14,%xmm0
    b488:	66 0f 72 f6 0c       	pslld  $0xc,%xmm6
    b48d:	66 0f eb f0          	por    %xmm0,%xmm6
    b491:	66 0f ef fc          	pxor   %xmm4,%xmm7
    b495:	66 0f 6f c7          	movdqa %xmm7,%xmm0
    b499:	66 0f 72 d0 14       	psrld  $0x14,%xmm0
    b49e:	66 0f 72 f7 0c       	pslld  $0xc,%xmm7
    b4a3:	66 0f eb f8          	por    %xmm0,%xmm7
    b4a7:	66 41 0f ef ec       	pxor   %xmm12,%xmm5
    b4ac:	66 0f 6f c5          	movdqa %xmm5,%xmm0
    b4b0:	66 0f 72 d0 14       	psrld  $0x14,%xmm0
    b4b5:	66 0f 72 f5 0c       	pslld  $0xc,%xmm5
    b4ba:	66 0f eb e8          	por    %xmm0,%xmm5
    b4be:	66 41 0f 6f c1       	movdqa %xmm9,%xmm0
    b4c3:	66 0f 72 d0 14       	psrld  $0x14,%xmm0
    b4c8:	66 41 0f 72 f1 0c    	pslld  $0xc,%xmm9
    b4ce:	66 44 0f eb c8       	por    %xmm0,%xmm9
    b4d3:	66 44 0f fe d6       	paddd  %xmm6,%xmm10
    b4d8:	66 44 0f fe df       	paddd  %xmm7,%xmm11
    b4dd:	66 44 0f fe f5       	paddd  %xmm5,%xmm14
    b4e2:	66 45 0f fe e9       	paddd  %xmm9,%xmm13
    b4e7:	66 45 0f ef c2       	pxor   %xmm10,%xmm8
    b4ec:	66 41 0f 6f c0       	movdqa %xmm8,%xmm0
    b4f1:	66 0f 72 d0 18       	psrld  $0x18,%xmm0
    b4f6:	66 41 0f 72 f0 08    	pslld  $0x8,%xmm8
    b4fc:	66 44 0f eb c0       	por    %xmm0,%xmm8
    b501:	66 45 0f ef fb       	pxor   %xmm11,%xmm15
    b506:	66 41 0f 6f c7       	movdqa %xmm15,%xmm0
    b50b:	66 0f 72 d0 18       	psrld  $0x18,%xmm0
    b510:	66 41 0f 72 f7 08    	pslld  $0x8,%xmm15
    b516:	66 44 0f eb f8       	por    %xmm0,%xmm15
    b51b:	66 41 0f ef d6       	pxor   %xmm14,%xmm2
    b520:	66 0f 6f c2          	movdqa %xmm2,%xmm0
    b524:	66 0f 72 d0 18       	psrld  $0x18,%xmm0
    b529:	66 0f 72 f2 08       	pslld  $0x8,%xmm2
    b52e:	66 0f eb d0          	por    %xmm0,%xmm2
    b532:	66 41 0f ef dd       	pxor   %xmm13,%xmm3
    b537:	66 0f 6f c3          	movdqa %xmm3,%xmm0
    b53b:	66 0f 72 d0 18       	psrld  $0x18,%xmm0
    b540:	66 0f 72 f3 08       	pslld  $0x8,%xmm3
    b545:	66 0f eb d8          	por    %xmm0,%xmm3
    b549:	66 0f 6f e1          	movdqa %xmm1,%xmm4
    b54d:	66 41 0f fe e0       	paddd  %xmm8,%xmm4
    b552:	66 44 0f 6f 64 24 20 	movdqa 0x20(%rsp),%xmm12
    b559:	66 45 0f fe e7       	paddd  %xmm15,%xmm12
    b55e:	66 0f 6f 04 24       	movdqa (%rsp),%xmm0
    b563:	66 0f fe c2          	paddd  %xmm2,%xmm0
    b567:	66 0f 7f 04 24       	movdqa %xmm0,(%rsp)
    b56c:	66 0f 6f 4c 24 10    	movdqa 0x10(%rsp),%xmm1
    b572:	66 0f fe cb          	paddd  %xmm3,%xmm1
    b576:	66 0f ef f4          	pxor   %xmm4,%xmm6
    b57a:	66 41 0f ef fc       	pxor   %xmm12,%xmm7
    b57f:	66 0f ef e8          	pxor   %xmm0,%xmm5
    b583:	66 44 0f ef c9       	pxor   %xmm1,%xmm9
    b588:	66 0f 6f c6          	movdqa %xmm6,%xmm0
    b58c:	66 0f 72 d0 19       	psrld  $0x19,%xmm0
    b591:	66 0f 72 f6 07       	pslld  $0x7,%xmm6
    b596:	66 0f eb f0          	por    %xmm0,%xmm6
    b59a:	66 0f 6f c7          	movdqa %xmm7,%xmm0
    b59e:	66 0f 72 d0 19       	psrld  $0x19,%xmm0
    b5a3:	66 0f 72 f7 07       	pslld  $0x7,%xmm7
    b5a8:	66 0f eb f8          	por    %xmm0,%xmm7
    b5ac:	66 0f 6f c5          	movdqa %xmm5,%xmm0
    b5b0:	66 0f 72 d0 19       	psrld  $0x19,%xmm0
    b5b5:	66 0f 72 f5 07       	pslld  $0x7,%xmm5
    b5ba:	66 0f eb e8          	por    %xmm0,%xmm5
    b5be:	66 41 0f 6f c1       	movdqa %xmm9,%xmm0
    b5c3:	66 0f 72 d0 19       	psrld  $0x19,%xmm0
    b5c8:	66 41 0f 72 f1 07    	pslld  $0x7,%xmm9
    b5ce:	66 44 0f eb c8       	por    %xmm0,%xmm9
    b5d3:	66 0f 70 f6 39       	pshufd $0x39,%xmm6,%xmm6
    b5d8:	66 0f 70 ff 39       	pshufd $0x39,%xmm7,%xmm7
    b5dd:	66 0f 70 ed 39       	pshufd $0x39,%xmm5,%xmm5
    b5e2:	66 41 0f 70 c1 39    	pshufd $0x39,%xmm9,%xmm0
    b5e8:	66 44 0f 70 cc 4e    	pshufd $0x4e,%xmm4,%xmm9
    b5ee:	66 41 0f 70 e4 4e    	pshufd $0x4e,%xmm12,%xmm4
    b5f4:	66 0f 7f 64 24 10    	movdqa %xmm4,0x10(%rsp)
    b5fa:	66 44 0f 70 24 24 4e 	pshufd $0x4e,(%rsp),%xmm12
    b601:	66 0f 70 c9 4e       	pshufd $0x4e,%xmm1,%xmm1
    b606:	66 0f 7f 0c 24       	movdqa %xmm1,(%rsp)
    b60b:	66 41 0f 70 e0 93    	pshufd $0x93,%xmm8,%xmm4
    b611:	66 41 0f 70 cf 93    	pshufd $0x93,%xmm15,%xmm1
    b617:	66 0f 70 d2 93       	pshufd $0x93,%xmm2,%xmm2
    b61c:	66 0f 70 db 93       	pshufd $0x93,%xmm3,%xmm3
    b621:	66 44 0f fe d6       	paddd  %xmm6,%xmm10
    b626:	66 44 0f fe df       	paddd  %xmm7,%xmm11
    b62b:	66 44 0f fe f5       	paddd  %xmm5,%xmm14
    b630:	66 44 0f fe e8       	paddd  %xmm0,%xmm13
    b635:	66 41 0f ef e2       	pxor   %xmm10,%xmm4
    b63a:	66 41 0f ef cb       	pxor   %xmm11,%xmm1
    b63f:	66 41 0f ef d6       	pxor   %xmm14,%xmm2
    b644:	66 41 0f ef dd       	pxor   %xmm13,%xmm3
    b649:	f2 0f 70 e4 b1       	pshuflw $0xb1,%xmm4,%xmm4
    b64e:	f3 0f 70 e4 b1       	pshufhw $0xb1,%xmm4,%xmm4
    b653:	f2 0f 70 c9 b1       	pshuflw $0xb1,%xmm1,%xmm1
    b658:	f3 0f 70 c9 b1       	pshufhw $0xb1,%xmm1,%xmm1
    b65d:	f2 0f 70 d2 b1       	pshuflw $0xb1,%xmm2,%xmm2
    b662:	f3 0f 70 d2 b1       	pshufhw $0xb1,%xmm2,%xmm2
    b667:	f2 0f 70 db b1       	pshuflw $0xb1,%xmm3,%xmm3
    b66c:	f3 44 0f 70 c3 b1    	pshufhw $0xb1,%xmm3,%xmm8
    b672:	66 44 0f fe cc       	paddd  %xmm4,%xmm9
    b677:	66 44 0f 6f 7c 24 10 	movdqa 0x10(%rsp),%xmm15
    b67e:	66 44 0f fe f9       	paddd  %xmm1,%xmm15
    b683:	66 44 0f fe e2       	paddd  %xmm2,%xmm12
    b688:	66 0f 6f 1c 24       	movdqa (%rsp),%xmm3
    b68d:	66 41 0f fe d8       	paddd  %xmm8,%xmm3
    b692:	66 0f 7f 1c 24       	movdqa %xmm3,(%rsp)
    b697:	66 0f ef c3          	pxor   %xmm3,%xmm0
    b69b:	66 41 0f ef f1       	pxor   %xmm9,%xmm6
    b6a0:	66 0f 6f de          	movdqa %xmm6,%xmm3
    b6a4:	66 0f 72 d3 14       	psrld  $0x14,%xmm3
    b6a9:	66 0f 72 f6 0c       	pslld  $0xc,%xmm6
    b6ae:	66 0f eb f3          	por    %xmm3,%xmm6
    b6b2:	66 41 0f ef ff       	pxor   %xmm15,%xmm7
    b6b7:	66 0f 6f df          	movdqa %xmm7,%xmm3
    b6bb:	66 0f 72 d3 14       	psrld  $0x14,%xmm3
    b6c0:	66 0f 72 f7 0c       	pslld  $0xc,%xmm7
    b6c5:	66 0f eb fb          	por    %xmm3,%xmm7
    b6c9:	66 41 0f ef ec       	pxor   %xmm12,%xmm5
    b6ce:	66 0f 6f dd          	movdqa %xmm5,%xmm3
    b6d2:	66 0f 72 d3 14       	psrld  $0x14,%xmm3
    b6d7:	66 0f 72 f5 0c       	pslld  $0xc,%xmm5
    b6dc:	66 0f eb eb          	por    %xmm3,%xmm5
    b6e0:	66 0f 6f d8          	movdqa %xmm0,%xmm3
    b6e4:	66 0f 72 d3 14       	psrld  $0x14,%xmm3
    b6e9:	66 0f 72 f0 0c       	pslld  $0xc,%xmm0
    b6ee:	66 0f eb c3          	por    %xmm3,%xmm0
    b6f2:	66 44 0f fe d6       	paddd  %xmm6,%xmm10
    b6f7:	66 44 0f fe df       	paddd  %xmm7,%xmm11
    b6fc:	66 44 0f fe f5       	paddd  %xmm5,%xmm14
    b701:	66 44 0f fe e8       	paddd  %xmm0,%xmm13
    b706:	66 44 0f 7f 54 24 40 	movdqa %xmm10,0x40(%rsp)
    b70d:	66 41 0f ef e2       	pxor   %xmm10,%xmm4
    b712:	66 0f 6f dc          	movdqa %xmm4,%xmm3
    b716:	66 0f 72 d3 18       	psrld  $0x18,%xmm3
    b71b:	66 0f 72 f4 08       	pslld  $0x8,%xmm4
    b720:	66 0f eb e3          	por    %xmm3,%xmm4
    b724:	66 41 0f ef cb       	pxor   %xmm11,%xmm1
    b729:	66 0f 6f d9          	movdqa %xmm1,%xmm3
    b72d:	66 0f 72 d3 18       	psrld  $0x18,%xmm3
    b732:	66 0f 72 f1 08       	pslld  $0x8,%xmm1
    b737:	66 0f eb cb          	por    %xmm3,%xmm1
    b73b:	66 41 0f ef d6       	pxor   %xmm14,%xmm2
    b740:	66 0f 6f da          	movdqa %xmm2,%xmm3
    b744:	66 0f 72 d3 18       	psrld  $0x18,%xmm3
    b749:	66 0f 72 f2 08       	pslld  $0x8,%xmm2
    b74e:	66 0f eb d3          	por    %xmm3,%xmm2
    b752:	66 45 0f ef c5       	pxor   %xmm13,%xmm8
    b757:	66 41 0f 6f d8       	movdqa %xmm8,%xmm3
    b75c:	66 0f 72 d3 18       	psrld  $0x18,%xmm3
    b761:	66 41 0f 72 f0 08    	pslld  $0x8,%xmm8
    b767:	66 44 0f eb c3       	por    %xmm3,%xmm8
    b76c:	66 44 0f fe cc       	paddd  %xmm4,%xmm9
    b771:	66 45 0f 6f d7       	movdqa %xmm15,%xmm10
    b776:	66 44 0f fe d1       	paddd  %xmm1,%xmm10
    b77b:	66 44 0f fe e2       	paddd  %xmm2,%xmm12
    b780:	66 44 0f 6f 3c 24    	movdqa (%rsp),%xmm15
    b786:	66 45 0f fe f8       	paddd  %xmm8,%xmm15
    b78b:	66 41 0f ef f1       	pxor   %xmm9,%xmm6
    b790:	66 41 0f ef fa       	pxor   %xmm10,%xmm7
    b795:	66 41 0f ef ec       	pxor   %xmm12,%xmm5
    b79a:	66 41 0f ef c7       	pxor   %xmm15,%xmm0
    b79f:	66 0f 6f de          	movdqa %xmm6,%xmm3
    b7a3:	66 0f 72 d3 19       	psrld  $0x19,%xmm3
    b7a8:	66 0f 72 f6 07       	pslld  $0x7,%xmm6
    b7ad:	66 0f eb f3          	por    %xmm3,%xmm6
    b7b1:	66 0f 6f df          	movdqa %xmm7,%xmm3
    b7b5:	66 0f 72 d3 19       	psrld  $0x19,%xmm3
    b7ba:	66 0f 72 f7 07       	pslld  $0x7,%xmm7
    b7bf:	66 0f eb fb          	por    %xmm3,%xmm7
    b7c3:	66 0f 6f dd          	movdqa %xmm5,%xmm3
    b7c7:	66 0f 72 d3 19       	psrld  $0x19,%xmm3
    b7cc:	66 0f 72 f5 07       	pslld  $0x7,%xmm5
    b7d1:	66 0f eb eb          	por    %xmm3,%xmm5
    b7d5:	66 0f 6f d8          	movdqa %xmm0,%xmm3
    b7d9:	66 0f 72 d3 19       	psrld  $0x19,%xmm3
    b7de:	66 0f 72 f0 07       	pslld  $0x7,%xmm0
    b7e3:	66 0f eb c3          	por    %xmm3,%xmm0
    b7e7:	66 0f 70 f6 93       	pshufd $0x93,%xmm6,%xmm6
    b7ec:	66 0f 70 ff 93       	pshufd $0x93,%xmm7,%xmm7
    b7f1:	66 0f 70 ed 93       	pshufd $0x93,%xmm5,%xmm5
    b7f6:	66 0f 70 d8 93       	pshufd $0x93,%xmm0,%xmm3
    b7fb:	66 41 0f 70 c1 4e    	pshufd $0x4e,%xmm9,%xmm0
    b801:	66 0f 7f 44 24 50    	movdqa %xmm0,0x50(%rsp)
    b807:	66 41 0f 70 c2 4e    	pshufd $0x4e,%xmm10,%xmm0
    b80d:	66 44 0f 6f cb       	movdqa %xmm3,%xmm9
    b812:	66 0f 7f 44 24 20    	movdqa %xmm0,0x20(%rsp)
    b818:	66 41 0f 70 c4 4e    	pshufd $0x4e,%xmm12,%xmm0
    b81e:	66 0f 7f 04 24       	movdqa %xmm0,(%rsp)
    b823:	66 41 0f 70 c7 4e    	pshufd $0x4e,%xmm15,%xmm0
    b829:	66 0f 7f 44 24 10    	movdqa %xmm0,0x10(%rsp)
    b82f:	66 0f 70 dc 39       	pshufd $0x39,%xmm4,%xmm3
    b834:	66 0f 70 c9 39       	pshufd $0x39,%xmm1,%xmm1
    b839:	66 0f 70 c2 39       	pshufd $0x39,%xmm2,%xmm0
    b83e:	66 41 0f 70 e0 39    	pshufd $0x39,%xmm8,%xmm4
    b844:	83 c3 ff             	add    $0xffffffff,%ebx
    b847:	0f 85 93 fb ff ff    	jne    b3e0 <_ZN9c2_chacha4guts11refill_wide13dispatch_init9impl_sse217h8295b311c543de62E.llvm.14015113955960590988+0x1b0>
    b84d:	eb 47                	jmp    b896 <_ZN9c2_chacha4guts11refill_wide13dispatch_init9impl_sse217h8295b311c543de62E.llvm.14015113955960590988+0x666>
    b84f:	66 44 0f 6f 4c 24 30 	movdqa 0x30(%rsp),%xmm9
    b856:	66 41 0f 6f f1       	movdqa %xmm9,%xmm6
    b85b:	66 41 0f 6f f9       	movdqa %xmm9,%xmm7
    b860:	66 41 0f 6f e9       	movdqa %xmm9,%xmm5
    b865:	66 44 0f 6f 54 24 10 	movdqa 0x10(%rsp),%xmm10
    b86c:	66 44 0f 7f 54 24 50 	movdqa %xmm10,0x50(%rsp)
    b873:	66 44 0f 7f 54 24 20 	movdqa %xmm10,0x20(%rsp)
    b87a:	66 44 0f 7f 14 24    	movdqa %xmm10,(%rsp)
    b880:	66 45 0f 6f ec       	movdqa %xmm12,%xmm13
    b885:	66 45 0f 6f f4       	movdqa %xmm12,%xmm14
    b88a:	66 45 0f 6f dc       	movdqa %xmm12,%xmm11
    b88f:	66 44 0f 7f 64 24 40 	movdqa %xmm12,0x40(%rsp)
    b896:	66 0f 7f 9c 24 20 01 	movdqa %xmm3,0x120(%rsp)
    b89d:	00 00 
    b89f:	66 44 0f 7f 4c 24 30 	movdqa %xmm9,0x30(%rsp)
    b8a6:	66 45 0f 6f 4e 20    	movdqa 0x20(%r14),%xmm9
    b8ac:	66 4c 0f 7e c8       	movq   %xmm9,%rax
    b8b1:	48 8d 48 01          	lea    0x1(%rax),%rcx
    b8b5:	48 89 ca             	mov    %rcx,%rdx
    b8b8:	48 c1 ea 20          	shr    $0x20,%rdx
    b8bc:	66 41 0f 70 d9 f8    	pshufd $0xf8,%xmm9,%xmm3
    b8c2:	66 0f 73 fb 04       	pslldq $0x4,%xmm3
    b8c7:	66 44 0f 6e c2       	movd   %edx,%xmm8
    b8cc:	66 44 0f eb c3       	por    %xmm3,%xmm8
    b8d1:	66 0f ef d2          	pxor   %xmm2,%xmm2
    b8d5:	41 0f c6 d0 00       	shufps $0x0,%xmm8,%xmm2
    b8da:	41 0f c6 d1 e8       	shufps $0xe8,%xmm9,%xmm2
    b8df:	66 44 0f 6e d1       	movd   %ecx,%xmm10
    b8e4:	66 44 0f eb d2       	por    %xmm2,%xmm10
    b8e9:	48 8d 48 02          	lea    0x2(%rax),%rcx
    b8ed:	48 89 ca             	mov    %rcx,%rdx
    b8f0:	48 c1 ea 20          	shr    $0x20,%rdx
    b8f4:	66 44 0f 6e c2       	movd   %edx,%xmm8
    b8f9:	66 44 0f eb c3       	por    %xmm3,%xmm8
    b8fe:	0f 57 d2             	xorps  %xmm2,%xmm2
    b901:	41 0f c6 d0 00       	shufps $0x0,%xmm8,%xmm2
    b906:	41 0f c6 d1 e8       	shufps $0xe8,%xmm9,%xmm2
    b90b:	66 44 0f 6e f9       	movd   %ecx,%xmm15
    b910:	66 44 0f eb fa       	por    %xmm2,%xmm15
    b915:	48 8d 48 03          	lea    0x3(%rax),%rcx
    b919:	48 89 ca             	mov    %rcx,%rdx
    b91c:	48 c1 ea 20          	shr    $0x20,%rdx
    b920:	66 0f 6e d2          	movd   %edx,%xmm2
    b924:	66 0f eb d3          	por    %xmm3,%xmm2
    b928:	45 0f 57 c0          	xorps  %xmm8,%xmm8
    b92c:	44 0f c6 c2 00       	shufps $0x0,%xmm2,%xmm8
    b931:	45 0f c6 c1 e8       	shufps $0xe8,%xmm9,%xmm8
    b936:	66 44 0f 6e e1       	movd   %ecx,%xmm12
    b93b:	66 45 0f eb e0       	por    %xmm8,%xmm12
    b940:	48 83 c0 04          	add    $0x4,%rax
    b944:	48 89 c1             	mov    %rax,%rcx
    b947:	48 c1 e9 20          	shr    $0x20,%rcx
    b94b:	66 0f 6e d1          	movd   %ecx,%xmm2
    b94f:	66 0f eb d3          	por    %xmm3,%xmm2
    b953:	66 0f ef db          	pxor   %xmm3,%xmm3
    b957:	0f c6 da 00          	shufps $0x0,%xmm2,%xmm3
    b95b:	41 0f c6 d9 e8       	shufps $0xe8,%xmm9,%xmm3
    b960:	66 44 0f 6e c0       	movd   %eax,%xmm8
    b965:	66 44 0f eb c3       	por    %xmm3,%xmm8
    b96a:	66 0f 6f 54 24 40    	movdqa 0x40(%rsp),%xmm2
    b970:	66 0f 7f 94 24 30 01 	movdqa %xmm2,0x130(%rsp)
    b977:	00 00 
    b979:	66 44 0f 7f 9c 24 40 	movdqa %xmm11,0x140(%rsp)
    b980:	01 00 00 
    b983:	66 44 0f 7f b4 24 50 	movdqa %xmm14,0x150(%rsp)
    b98a:	01 00 00 
    b98d:	66 44 0f 7f ac 24 60 	movdqa %xmm13,0x160(%rsp)
    b994:	01 00 00 
    b997:	66 0f 7f b4 24 70 01 	movdqa %xmm6,0x170(%rsp)
    b99e:	00 00 
    b9a0:	66 0f 7f bc 24 80 01 	movdqa %xmm7,0x180(%rsp)
    b9a7:	00 00 
    b9a9:	66 0f 7f ac 24 90 01 	movdqa %xmm5,0x190(%rsp)
    b9b0:	00 00 
    b9b2:	0f 28 5c 24 30       	movaps 0x30(%rsp),%xmm3
    b9b7:	0f 29 9c 24 a0 01 00 	movaps %xmm3,0x1a0(%rsp)
    b9be:	00 
    b9bf:	66 0f 6f 6c 24 50    	movdqa 0x50(%rsp),%xmm5
    b9c5:	66 0f 7f ac 24 a0 00 	movdqa %xmm5,0xa0(%rsp)
    b9cc:	00 00 
    b9ce:	0f 28 5c 24 20       	movaps 0x20(%rsp),%xmm3
    b9d3:	0f 29 9c 24 b0 00 00 	movaps %xmm3,0xb0(%rsp)
    b9da:	00 
    b9db:	0f 28 1c 24          	movaps (%rsp),%xmm3
    b9df:	0f 29 9c 24 c0 00 00 	movaps %xmm3,0xc0(%rsp)
    b9e6:	00 
    b9e7:	0f 28 5c 24 10       	movaps 0x10(%rsp),%xmm3
    b9ec:	0f 29 9c 24 d0 00 00 	movaps %xmm3,0xd0(%rsp)
    b9f3:	00 
    b9f4:	66 0f 6f 9c 24 20 01 	movdqa 0x120(%rsp),%xmm3
    b9fb:	00 00 
    b9fd:	66 0f 7f 9c 24 e0 00 	movdqa %xmm3,0xe0(%rsp)
    ba04:	00 00 
    ba06:	66 0f 7f 8c 24 f0 00 	movdqa %xmm1,0xf0(%rsp)
    ba0d:	00 00 
    ba0f:	66 0f 7f 84 24 00 01 	movdqa %xmm0,0x100(%rsp)
    ba16:	00 00 
    ba18:	66 0f 7f a4 24 10 01 	movdqa %xmm4,0x110(%rsp)
    ba1f:	00 00 
    ba21:	66 41 0f 6f 06       	movdqa (%r14),%xmm0
    ba26:	66 41 0f 6f 4e 10    	movdqa 0x10(%r14),%xmm1
    ba2c:	44 0f 29 4c 24 60    	movaps %xmm9,0x60(%rsp)
    ba32:	66 44 0f 7f 54 24 70 	movdqa %xmm10,0x70(%rsp)
    ba39:	66 44 0f 7f bc 24 80 	movdqa %xmm15,0x80(%rsp)
    ba40:	00 00 00 
    ba43:	66 44 0f 7f a4 24 90 	movdqa %xmm12,0x90(%rsp)
    ba4a:	00 00 00 
    ba4d:	66 45 0f 7f 46 20    	movdqa %xmm8,0x20(%r14)
    ba53:	66 0f 6f 3d 45 f0 01 	movdqa 0x1f045(%rip),%xmm7        # 2aaa0 <anon.0b2c823383dec51af8e2b43c78491c46.0.llvm.17017948224046636406+0x17b>
    ba5a:	00 
    ba5b:	66 0f fe d7          	paddd  %xmm7,%xmm2
    ba5f:	f3 41 0f 7f 17       	movdqu %xmm2,(%r15)
    ba64:	66 0f fe f0          	paddd  %xmm0,%xmm6
    ba68:	f3 41 0f 7f 77 10    	movdqu %xmm6,0x10(%r15)
    ba6e:	66 0f fe e9          	paddd  %xmm1,%xmm5
    ba72:	f3 41 0f 7f 6f 20    	movdqu %xmm5,0x20(%r15)
    ba78:	66 44 0f fe cb       	paddd  %xmm3,%xmm9
    ba7d:	f3 45 0f 7f 4f 30    	movdqu %xmm9,0x30(%r15)
    ba83:	66 0f 6f 54 24 70    	movdqa 0x70(%rsp),%xmm2
    ba89:	66 0f 6f 9c 24 40 01 	movdqa 0x140(%rsp),%xmm3
    ba90:	00 00 
    ba92:	66 0f fe df          	paddd  %xmm7,%xmm3
    ba96:	66 0f 6f a4 24 80 01 	movdqa 0x180(%rsp),%xmm4
    ba9d:	00 00 
    ba9f:	66 0f fe e0          	paddd  %xmm0,%xmm4
    baa3:	66 0f 6f ac 24 b0 00 	movdqa 0xb0(%rsp),%xmm5
    baaa:	00 00 
    baac:	66 0f fe e9          	paddd  %xmm1,%xmm5
    bab0:	66 0f fe 94 24 f0 00 	paddd  0xf0(%rsp),%xmm2
    bab7:	00 00 
    bab9:	f3 41 0f 7f 5f 40    	movdqu %xmm3,0x40(%r15)
    babf:	f3 41 0f 7f 67 50    	movdqu %xmm4,0x50(%r15)
    bac5:	f3 41 0f 7f 6f 60    	movdqu %xmm5,0x60(%r15)
    bacb:	f3 41 0f 7f 57 70    	movdqu %xmm2,0x70(%r15)
    bad1:	66 0f 6f 94 24 80 00 	movdqa 0x80(%rsp),%xmm2
    bad8:	00 00 
    bada:	66 0f 6f 9c 24 50 01 	movdqa 0x150(%rsp),%xmm3
    bae1:	00 00 
    bae3:	66 0f fe df          	paddd  %xmm7,%xmm3
    bae7:	66 0f 6f a4 24 90 01 	movdqa 0x190(%rsp),%xmm4
    baee:	00 00 
    baf0:	66 0f fe 94 24 00 01 	paddd  0x100(%rsp),%xmm2
    baf7:	00 00 
    baf9:	66 0f 6f ac 24 c0 00 	movdqa 0xc0(%rsp),%xmm5
    bb00:	00 00 
    bb02:	f3 41 0f 7f 9f 80 00 	movdqu %xmm3,0x80(%r15)
    bb09:	00 00 
    bb0b:	66 0f fe e0          	paddd  %xmm0,%xmm4
    bb0f:	f3 41 0f 7f a7 90 00 	movdqu %xmm4,0x90(%r15)
    bb16:	00 00 
    bb18:	66 0f fe e9          	paddd  %xmm1,%xmm5
    bb1c:	f3 41 0f 7f af a0 00 	movdqu %xmm5,0xa0(%r15)
    bb23:	00 00 
    bb25:	f3 41 0f 7f 97 b0 00 	movdqu %xmm2,0xb0(%r15)
    bb2c:	00 00 
    bb2e:	66 0f 6f 94 24 90 00 	movdqa 0x90(%rsp),%xmm2
    bb35:	00 00 
    bb37:	66 0f fe bc 24 60 01 	paddd  0x160(%rsp),%xmm7
    bb3e:	00 00 
    bb40:	66 0f fe 84 24 a0 01 	paddd  0x1a0(%rsp),%xmm0
    bb47:	00 00 
    bb49:	66 0f fe 8c 24 d0 00 	paddd  0xd0(%rsp),%xmm1
    bb50:	00 00 
    bb52:	66 0f fe 94 24 10 01 	paddd  0x110(%rsp),%xmm2
    bb59:	00 00 
    bb5b:	f3 41 0f 7f bf c0 00 	movdqu %xmm7,0xc0(%r15)
    bb62:	00 00 
    bb64:	f3 41 0f 7f 87 d0 00 	movdqu %xmm0,0xd0(%r15)
    bb6b:	00 00 
    bb6d:	f3 41 0f 7f 8f e0 00 	movdqu %xmm1,0xe0(%r15)
    bb74:	00 00 
    bb76:	f3 41 0f 7f 97 f0 00 	movdqu %xmm2,0xf0(%r15)
    bb7d:	00 00 
    bb7f:	48 8d 65 e8          	lea    -0x18(%rbp),%rsp
    bb83:	5b                   	pop    %rbx
    bb84:	41 5e                	pop    %r14
    bb86:	41 5f                	pop    %r15
    bb88:	5d                   	pop    %rbp
    bb89:	c3                   	retq   
    bb8a:	66 0f 1f 44 00 00    	nopw   0x0(%rax,%rax,1)

000000000000bb90 <_ZN78_$LT$c2_chacha..guts..refill_wide..IMPL$u20$as$u20$core..ops..deref..Deref$GT$5deref17he09626b4dd0a6a48E>:
    bb90:	48 8d 3d d9 d4 22 00 	lea    0x22d4d9(%rip),%rdi        # 239070 <_ZN78_$LT$c2_chacha..guts..refill_wide..IMPL$u20$as$u20$core..ops..deref..Deref$GT$5deref11__stability4LAZY17h3312d5815b0184d9E>
    bb97:	e9 f4 00 00 00       	jmpq   bc90 <_ZN34_$LT$spin..once..Once$LT$T$GT$$GT$9call_once17h5c2aa3bc0e4f9d9eE>
    bb9c:	0f 1f 40 00          	nopl   0x0(%rax)

000000000000bba0 <_ZN9c2_chacha4guts11init_chacha13dispatch_init8impl_avx17h8c3c49622bcfaa77E.llvm.14015113955960590988>:
    bba0:	50                   	push   %rax
    bba1:	48 89 f8             	mov    %rdi,%rax
    bba4:	45 31 c9             	xor    %r9d,%r9d
    bba7:	48 83 f9 0c          	cmp    $0xc,%rcx
    bbab:	75 03                	jne    bbb0 <_ZN9c2_chacha4guts11init_chacha13dispatch_init8impl_avx17h8c3c49622bcfaa77E.llvm.14015113955960590988+0x10>
    bbad:	44 8b 0a             	mov    (%rdx),%r9d
    bbb0:	48 8d 79 f8          	lea    -0x8(%rcx),%rdi
    bbb4:	4c 8d 41 fc          	lea    -0x4(%rcx),%r8
    bbb8:	49 39 f8             	cmp    %rdi,%r8
    bbbb:	72 2b                	jb     bbe8 <_ZN9c2_chacha4guts11init_chacha13dispatch_init8impl_avx17h8c3c49622bcfaa77E.llvm.14015113955960590988+0x48>
    bbbd:	48 83 f9 03          	cmp    $0x3,%rcx
    bbc1:	76 30                	jbe    bbf3 <_ZN9c2_chacha4guts11init_chacha13dispatch_init8impl_avx17h8c3c49622bcfaa77E.llvm.14015113955960590988+0x53>
    bbc3:	8b 0c 3a             	mov    (%rdx,%rdi,1),%ecx
    bbc6:	42 8b 14 02          	mov    (%rdx,%r8,1),%edx
    bbca:	c5 fc 10 06          	vmovups (%rsi),%ymm0
    bbce:	c5 fc 11 00          	vmovups %ymm0,(%rax)
    bbd2:	c7 40 20 00 00 00 00 	movl   $0x0,0x20(%rax)
    bbd9:	44 89 48 24          	mov    %r9d,0x24(%rax)
    bbdd:	89 48 28             	mov    %ecx,0x28(%rax)
    bbe0:	89 50 2c             	mov    %edx,0x2c(%rax)
    bbe3:	59                   	pop    %rcx
    bbe4:	c5 f8 77             	vzeroupper 
    bbe7:	c3                   	retq   
    bbe8:	4c 89 c6             	mov    %r8,%rsi
    bbeb:	ff 15 bf d1 22 00    	callq  *0x22d1bf(%rip)        # 238db0 <_GLOBAL_OFFSET_TABLE_+0x458>
    bbf1:	0f 0b                	ud2    
    bbf3:	4c 89 c7             	mov    %r8,%rdi
    bbf6:	48 89 ce             	mov    %rcx,%rsi
    bbf9:	ff 15 b1 d3 22 00    	callq  *0x22d3b1(%rip)        # 238fb0 <_GLOBAL_OFFSET_TABLE_+0x658>
    bbff:	0f 0b                	ud2    
    bc01:	66 2e 0f 1f 84 00 00 	nopw   %cs:0x0(%rax,%rax,1)
    bc08:	00 00 00 
    bc0b:	0f 1f 44 00 00       	nopl   0x0(%rax,%rax,1)

000000000000bc10 <_ZN9c2_chacha4guts11init_chacha13dispatch_init9impl_sse217h64933fd888345845E.llvm.14015113955960590988>:
    bc10:	50                   	push   %rax
    bc11:	48 89 f8             	mov    %rdi,%rax
    bc14:	45 31 c9             	xor    %r9d,%r9d
    bc17:	48 83 f9 0c          	cmp    $0xc,%rcx
    bc1b:	75 03                	jne    bc20 <_ZN9c2_chacha4guts11init_chacha13dispatch_init9impl_sse217h64933fd888345845E.llvm.14015113955960590988+0x10>
    bc1d:	44 8b 0a             	mov    (%rdx),%r9d
    bc20:	48 8d 79 f8          	lea    -0x8(%rcx),%rdi
    bc24:	4c 8d 41 fc          	lea    -0x4(%rcx),%r8
    bc28:	49 39 f8             	cmp    %rdi,%r8
    bc2b:	72 2e                	jb     bc5b <_ZN9c2_chacha4guts11init_chacha13dispatch_init9impl_sse217h64933fd888345845E.llvm.14015113955960590988+0x4b>
    bc2d:	48 83 f9 03          	cmp    $0x3,%rcx
    bc31:	76 33                	jbe    bc66 <_ZN9c2_chacha4guts11init_chacha13dispatch_init9impl_sse217h64933fd888345845E.llvm.14015113955960590988+0x56>
    bc33:	8b 0c 3a             	mov    (%rdx,%rdi,1),%ecx
    bc36:	42 8b 14 02          	mov    (%rdx,%r8,1),%edx
    bc3a:	0f 10 06             	movups (%rsi),%xmm0
    bc3d:	0f 10 4e 10          	movups 0x10(%rsi),%xmm1
    bc41:	0f 29 00             	movaps %xmm0,(%rax)
    bc44:	0f 29 48 10          	movaps %xmm1,0x10(%rax)
    bc48:	c7 40 20 00 00 00 00 	movl   $0x0,0x20(%rax)
    bc4f:	44 89 48 24          	mov    %r9d,0x24(%rax)
    bc53:	89 48 28             	mov    %ecx,0x28(%rax)
    bc56:	89 50 2c             	mov    %edx,0x2c(%rax)
    bc59:	59                   	pop    %rcx
    bc5a:	c3                   	retq   
    bc5b:	4c 89 c6             	mov    %r8,%rsi
    bc5e:	ff 15 4c d1 22 00    	callq  *0x22d14c(%rip)        # 238db0 <_GLOBAL_OFFSET_TABLE_+0x458>
    bc64:	0f 0b                	ud2    
    bc66:	4c 89 c7             	mov    %r8,%rdi
    bc69:	48 89 ce             	mov    %rcx,%rsi
    bc6c:	ff 15 3e d3 22 00    	callq  *0x22d33e(%rip)        # 238fb0 <_GLOBAL_OFFSET_TABLE_+0x658>
    bc72:	0f 0b                	ud2    
    bc74:	66 2e 0f 1f 84 00 00 	nopw   %cs:0x0(%rax,%rax,1)
    bc7b:	00 00 00 
    bc7e:	66 90                	xchg   %ax,%ax

000000000000bc80 <_ZN78_$LT$c2_chacha..guts..init_chacha..IMPL$u20$as$u20$core..ops..deref..Deref$GT$5deref17hd6390f880d545792E>:
    bc80:	48 8d 3d f9 d3 22 00 	lea    0x22d3f9(%rip),%rdi        # 239080 <_ZN78_$LT$c2_chacha..guts..init_chacha..IMPL$u20$as$u20$core..ops..deref..Deref$GT$5deref11__stability4LAZY17h9efd19a716c56ff7E>
    bc87:	e9 e4 00 00 00       	jmpq   bd70 <_ZN34_$LT$spin..once..Once$LT$T$GT$$GT$9call_once17hf23af1cf39822b41E>
    bc8c:	0f 1f 40 00          	nopl   0x0(%rax)

000000000000bc90 <_ZN34_$LT$spin..once..Once$LT$T$GT$$GT$9call_once17h5c2aa3bc0e4f9d9eE>:
    bc90:	41 56                	push   %r14
    bc92:	53                   	push   %rbx
    bc93:	48 83 ec 18          	sub    $0x18,%rsp
    bc97:	48 89 fb             	mov    %rdi,%rbx
    bc9a:	48 8b 07             	mov    (%rdi),%rax
    bc9d:	48 85 c0             	test   %rax,%rax
    bca0:	75 53                	jne    bcf5 <_ZN34_$LT$spin..once..Once$LT$T$GT$$GT$9call_once17h5c2aa3bc0e4f9d9eE+0x65>
    bca2:	b9 01 00 00 00       	mov    $0x1,%ecx
    bca7:	31 c0                	xor    %eax,%eax
    bca9:	f0 48 0f b1 0b       	lock cmpxchg %rcx,(%rbx)
    bcae:	75 45                	jne    bcf5 <_ZN34_$LT$spin..once..Once$LT$T$GT$$GT$9call_once17h5c2aa3bc0e4f9d9eE+0x65>
    bcb0:	48 89 5c 24 08       	mov    %rbx,0x8(%rsp)
    bcb5:	c6 44 24 10 01       	movb   $0x1,0x10(%rsp)
    bcba:	e8 31 d7 ff ff       	callq  93f0 <_ZN9c2_chacha4guts11refill_wide13dispatch_init17h374c7c172117aa2eE>
    bcbf:	48 89 43 08          	mov    %rax,0x8(%rbx)
    bcc3:	c6 44 24 10 00       	movb   $0x0,0x10(%rsp)
    bcc8:	b8 02 00 00 00       	mov    $0x2,%eax
    bccd:	48 87 03             	xchg   %rax,(%rbx)
    bcd0:	4c 8b 73 08          	mov    0x8(%rbx),%r14
    bcd4:	48 8d 7c 24 08       	lea    0x8(%rsp),%rdi
    bcd9:	ff 15 81 cd 22 00    	callq  *0x22cd81(%rip)        # 238a60 <_GLOBAL_OFFSET_TABLE_+0x108>
    bcdf:	48 83 c3 08          	add    $0x8,%rbx
    bce3:	4d 85 f6             	test   %r14,%r14
    bce6:	49 0f 44 de          	cmove  %r14,%rbx
    bcea:	eb 24                	jmp    bd10 <_ZN34_$LT$spin..once..Once$LT$T$GT$$GT$9call_once17h5c2aa3bc0e4f9d9eE+0x80>
    bcec:	0f 1f 40 00          	nopl   0x0(%rax)
    bcf0:	f3 90                	pause  
    bcf2:	48 8b 03             	mov    (%rbx),%rax
    bcf5:	48 83 f8 01          	cmp    $0x1,%rax
    bcf9:	74 f5                	je     bcf0 <_ZN34_$LT$spin..once..Once$LT$T$GT$$GT$9call_once17h5c2aa3bc0e4f9d9eE+0x60>
    bcfb:	48 83 f8 02          	cmp    $0x2,%rax
    bcff:	75 1a                	jne    bd1b <_ZN34_$LT$spin..once..Once$LT$T$GT$$GT$9call_once17h5c2aa3bc0e4f9d9eE+0x8b>
    bd01:	48 8b 43 08          	mov    0x8(%rbx),%rax
    bd05:	48 83 c3 08          	add    $0x8,%rbx
    bd09:	48 85 c0             	test   %rax,%rax
    bd0c:	48 0f 44 d8          	cmove  %rax,%rbx
    bd10:	48 89 d8             	mov    %rbx,%rax
    bd13:	48 83 c4 18          	add    $0x18,%rsp
    bd17:	5b                   	pop    %rbx
    bd18:	41 5e                	pop    %r14
    bd1a:	c3                   	retq   
    bd1b:	48 83 f8 03          	cmp    $0x3,%rax
    bd1f:	75 0f                	jne    bd30 <_ZN34_$LT$spin..once..Once$LT$T$GT$$GT$9call_once17h5c2aa3bc0e4f9d9eE+0xa0>
    bd21:	48 8d 3d 78 ae 22 00 	lea    0x22ae78(%rip),%rdi        # 236ba0 <anon.c6ea4e23a437af59cb2d25da46f590a8.2.llvm.8273080998484209698>
    bd28:	ff 15 9a d2 22 00    	callq  *0x22d29a(%rip)        # 238fc8 <_GLOBAL_OFFSET_TABLE_+0x670>
    bd2e:	eb 0d                	jmp    bd3d <_ZN34_$LT$spin..once..Once$LT$T$GT$$GT$9call_once17h5c2aa3bc0e4f9d9eE+0xad>
    bd30:	48 8d 3d 91 ae 22 00 	lea    0x22ae91(%rip),%rdi        # 236bc8 <anon.c6ea4e23a437af59cb2d25da46f590a8.4.llvm.8273080998484209698>
    bd37:	ff 15 8b d2 22 00    	callq  *0x22d28b(%rip)        # 238fc8 <_GLOBAL_OFFSET_TABLE_+0x670>
    bd3d:	0f 0b                	ud2    
    bd3f:	48 89 c3             	mov    %rax,%rbx
    bd42:	48 89 df             	mov    %rbx,%rdi
    bd45:	e8 1e be ff ff       	callq  7b68 <_init+0xf0>
    bd4a:	0f 0b                	ud2    
    bd4c:	48 89 c3             	mov    %rax,%rbx
    bd4f:	48 8d 7c 24 08       	lea    0x8(%rsp),%rdi
    bd54:	e8 27 01 00 00       	callq  be80 <_ZN4core3ptr18real_drop_in_place17hfba04b90c468f9aeE.llvm.8273080998484209698>
    bd59:	48 89 df             	mov    %rbx,%rdi
    bd5c:	e8 07 be ff ff       	callq  7b68 <_init+0xf0>
    bd61:	0f 0b                	ud2    
    bd63:	66 2e 0f 1f 84 00 00 	nopw   %cs:0x0(%rax,%rax,1)
    bd6a:	00 00 00 
    bd6d:	0f 1f 00             	nopl   (%rax)

000000000000bd70 <_ZN34_$LT$spin..once..Once$LT$T$GT$$GT$9call_once17hf23af1cf39822b41E>:
    bd70:	41 56                	push   %r14
    bd72:	53                   	push   %rbx
    bd73:	48 83 ec 18          	sub    $0x18,%rsp
    bd77:	48 89 fb             	mov    %rdi,%rbx
    bd7a:	48 8b 07             	mov    (%rdi),%rax
    bd7d:	48 85 c0             	test   %rax,%rax
    bd80:	0f 85 7f 00 00 00    	jne    be05 <_ZN34_$LT$spin..once..Once$LT$T$GT$$GT$9call_once17hf23af1cf39822b41E+0x95>
    bd86:	b9 01 00 00 00       	mov    $0x1,%ecx
    bd8b:	31 c0                	xor    %eax,%eax
    bd8d:	f0 48 0f b1 0b       	lock cmpxchg %rcx,(%rbx)
    bd92:	75 71                	jne    be05 <_ZN34_$LT$spin..once..Once$LT$T$GT$$GT$9call_once17hf23af1cf39822b41E+0x95>
    bd94:	48 89 5c 24 08       	mov    %rbx,0x8(%rsp)
    bd99:	c6 44 24 10 01       	movb   $0x1,0x10(%rsp)
    bd9e:	4c 8d 35 93 d2 22 00 	lea    0x22d293(%rip),%r14        # 239038 <_ZN3std10std_detect6detect5cache5CACHE17h183503d99ed0e829E>
    bda5:	49 8b 06             	mov    (%r14),%rax
    bda8:	48 83 f8 ff          	cmp    $0xffffffffffffffff,%rax
    bdac:	75 09                	jne    bdb7 <_ZN34_$LT$spin..once..Once$LT$T$GT$$GT$9call_once17hf23af1cf39822b41E+0x47>
    bdae:	ff 15 3c cd 22 00    	callq  *0x22cd3c(%rip)        # 238af0 <_GLOBAL_OFFSET_TABLE_+0x198>
    bdb4:	49 89 06             	mov    %rax,(%r14)
    bdb7:	49 8b 06             	mov    (%r14),%rax
    bdba:	a9 00 40 00 00       	test   $0x4000,%eax
    bdbf:	48 8d 05 4a fe ff ff 	lea    -0x1b6(%rip),%rax        # bc10 <_ZN9c2_chacha4guts11init_chacha13dispatch_init9impl_sse217h64933fd888345845E.llvm.14015113955960590988>
    bdc6:	48 8d 0d d3 fd ff ff 	lea    -0x22d(%rip),%rcx        # bba0 <_ZN9c2_chacha4guts11init_chacha13dispatch_init8impl_avx17h8c3c49622bcfaa77E.llvm.14015113955960590988>
    bdcd:	48 0f 44 c8          	cmove  %rax,%rcx
    bdd1:	48 89 4b 08          	mov    %rcx,0x8(%rbx)
    bdd5:	c6 44 24 10 00       	movb   $0x0,0x10(%rsp)
    bdda:	b8 02 00 00 00       	mov    $0x2,%eax
    bddf:	48 87 03             	xchg   %rax,(%rbx)
    bde2:	4c 8b 73 08          	mov    0x8(%rbx),%r14
    bde6:	48 8d 7c 24 08       	lea    0x8(%rsp),%rdi
    bdeb:	ff 15 6f cc 22 00    	callq  *0x22cc6f(%rip)        # 238a60 <_GLOBAL_OFFSET_TABLE_+0x108>
    bdf1:	48 83 c3 08          	add    $0x8,%rbx
    bdf5:	4d 85 f6             	test   %r14,%r14
    bdf8:	49 0f 44 de          	cmove  %r14,%rbx
    bdfc:	eb 22                	jmp    be20 <_ZN34_$LT$spin..once..Once$LT$T$GT$$GT$9call_once17hf23af1cf39822b41E+0xb0>
    bdfe:	66 90                	xchg   %ax,%ax
    be00:	f3 90                	pause  
    be02:	48 8b 03             	mov    (%rbx),%rax
    be05:	48 83 f8 01          	cmp    $0x1,%rax
    be09:	74 f5                	je     be00 <_ZN34_$LT$spin..once..Once$LT$T$GT$$GT$9call_once17hf23af1cf39822b41E+0x90>
    be0b:	48 83 f8 02          	cmp    $0x2,%rax
    be0f:	75 1a                	jne    be2b <_ZN34_$LT$spin..once..Once$LT$T$GT$$GT$9call_once17hf23af1cf39822b41E+0xbb>
    be11:	48 8b 43 08          	mov    0x8(%rbx),%rax
    be15:	48 83 c3 08          	add    $0x8,%rbx
    be19:	48 85 c0             	test   %rax,%rax
    be1c:	48 0f 44 d8          	cmove  %rax,%rbx
    be20:	48 89 d8             	mov    %rbx,%rax
    be23:	48 83 c4 18          	add    $0x18,%rsp
    be27:	5b                   	pop    %rbx
    be28:	41 5e                	pop    %r14
    be2a:	c3                   	retq   
    be2b:	48 83 f8 03          	cmp    $0x3,%rax
    be2f:	75 0f                	jne    be40 <_ZN34_$LT$spin..once..Once$LT$T$GT$$GT$9call_once17hf23af1cf39822b41E+0xd0>
    be31:	48 8d 3d 68 ad 22 00 	lea    0x22ad68(%rip),%rdi        # 236ba0 <anon.c6ea4e23a437af59cb2d25da46f590a8.2.llvm.8273080998484209698>
    be38:	ff 15 8a d1 22 00    	callq  *0x22d18a(%rip)        # 238fc8 <_GLOBAL_OFFSET_TABLE_+0x670>
    be3e:	eb 0d                	jmp    be4d <_ZN34_$LT$spin..once..Once$LT$T$GT$$GT$9call_once17hf23af1cf39822b41E+0xdd>
    be40:	48 8d 3d 81 ad 22 00 	lea    0x22ad81(%rip),%rdi        # 236bc8 <anon.c6ea4e23a437af59cb2d25da46f590a8.4.llvm.8273080998484209698>
    be47:	ff 15 7b d1 22 00    	callq  *0x22d17b(%rip)        # 238fc8 <_GLOBAL_OFFSET_TABLE_+0x670>
    be4d:	0f 0b                	ud2    
    be4f:	48 89 c3             	mov    %rax,%rbx
    be52:	48 8d 7c 24 08       	lea    0x8(%rsp),%rdi
    be57:	e8 24 00 00 00       	callq  be80 <_ZN4core3ptr18real_drop_in_place17hfba04b90c468f9aeE.llvm.8273080998484209698>
    be5c:	48 89 df             	mov    %rbx,%rdi
    be5f:	e8 04 bd ff ff       	callq  7b68 <_init+0xf0>
    be64:	0f 0b                	ud2    
    be66:	48 89 c3             	mov    %rax,%rbx
    be69:	48 89 df             	mov    %rbx,%rdi
    be6c:	e8 f7 bc ff ff       	callq  7b68 <_init+0xf0>
    be71:	0f 0b                	ud2    
    be73:	66 2e 0f 1f 84 00 00 	nopw   %cs:0x0(%rax,%rax,1)
    be7a:	00 00 00 
    be7d:	0f 1f 00             	nopl   (%rax)

000000000000be80 <_ZN4core3ptr18real_drop_in_place17hfba04b90c468f9aeE.llvm.8273080998484209698>:
    be80:	ff 25 da cb 22 00    	jmpq   *0x22cbda(%rip)        # 238a60 <_GLOBAL_OFFSET_TABLE_+0x108>
    be86:	66 2e 0f 1f 84 00 00 	nopw   %cs:0x0(%rax,%rax,1)
    be8d:	00 00 00 

000000000000be90 <_ZN10ppv_lite866x86_6414vec512_storage6new12817h8bbab5748ae28045E>:
    be90:	48 89 f8             	mov    %rdi,%rax
    be93:	0f 28 06             	movaps (%rsi),%xmm0
    be96:	0f 28 4e 10          	movaps 0x10(%rsi),%xmm1
    be9a:	0f 28 56 20          	movaps 0x20(%rsi),%xmm2
    be9e:	0f 28 5e 30          	movaps 0x30(%rsi),%xmm3
    bea2:	0f 29 5f 30          	movaps %xmm3,0x30(%rdi)
    bea6:	0f 29 57 20          	movaps %xmm2,0x20(%rdi)
    beaa:	0f 29 4f 10          	movaps %xmm1,0x10(%rdi)
    beae:	0f 29 07             	movaps %xmm0,(%rdi)
    beb1:	c3                   	retq   
    beb2:	66 2e 0f 1f 84 00 00 	nopw   %cs:0x0(%rax,%rax,1)
    beb9:	00 00 00 
    bebc:	0f 1f 40 00          	nopl   0x0(%rax)

000000000000bec0 <_ZN10ppv_lite866x86_6414vec512_storage8split12817h6e2910c0a44a77aaE>:
    bec0:	48 89 f8             	mov    %rdi,%rax
    bec3:	0f 28 06             	movaps (%rsi),%xmm0
    bec6:	0f 28 4e 10          	movaps 0x10(%rsi),%xmm1
    beca:	0f 28 56 20          	movaps 0x20(%rsi),%xmm2
    bece:	0f 28 5e 30          	movaps 0x30(%rsi),%xmm3
    bed2:	0f 29 5f 30          	movaps %xmm3,0x30(%rdi)
    bed6:	0f 29 57 20          	movaps %xmm2,0x20(%rdi)
    beda:	0f 29 4f 10          	movaps %xmm1,0x10(%rdi)
    bede:	0f 29 07             	movaps %xmm0,(%rdi)
    bee1:	c3                   	retq   
    bee2:	66 2e 0f 1f 84 00 00 	nopw   %cs:0x0(%rax,%rax,1)
    bee9:	00 00 00 
    beec:	0f 1f 40 00          	nopl   0x0(%rax)

000000000000bef0 <_ZN4core3ptr18real_drop_in_place17h85bcdd3ff60eaf06E>:
    bef0:	c3                   	retq   
    bef1:	66 2e 0f 1f 84 00 00 	nopw   %cs:0x0(%rax,%rax,1)
    bef8:	00 00 00 
    befb:	0f 1f 44 00 00       	nopl   0x0(%rax,%rax,1)

000000000000bf00 <_ZN62_$LT$rand_core..error..Error$u20$as$u20$core..fmt..Display$GT$3fmt17h166524b270cbae6aE>:
    bf00:	48 83 ec 48          	sub    $0x48,%rsp
    bf04:	48 89 f0             	mov    %rsi,%rax
    bf07:	48 89 7c 24 08       	mov    %rdi,0x8(%rsp)
    bf0c:	48 8d 0d 8d 00 00 00 	lea    0x8d(%rip),%rcx        # bfa0 <_ZN65_$LT$alloc..boxed..Box$LT$T$GT$$u20$as$u20$core..fmt..Display$GT$3fmt17h5ae514b0ee33a6cfE>
    bf13:	48 89 4c 24 10       	mov    %rcx,0x10(%rsp)
    bf18:	48 8d 0d d1 ac 22 00 	lea    0x22acd1(%rip),%rcx        # 236bf0 <anon.c6ea4e23a437af59cb2d25da46f590a8.4.llvm.8273080998484209698+0x28>
    bf1f:	48 89 4c 24 18       	mov    %rcx,0x18(%rsp)
    bf24:	48 c7 44 24 20 01 00 	movq   $0x1,0x20(%rsp)
    bf2b:	00 00 
    bf2d:	48 c7 44 24 28 00 00 	movq   $0x0,0x28(%rsp)
    bf34:	00 00 
    bf36:	48 8d 4c 24 08       	lea    0x8(%rsp),%rcx
    bf3b:	48 89 4c 24 38       	mov    %rcx,0x38(%rsp)
    bf40:	48 c7 44 24 40 01 00 	movq   $0x1,0x40(%rsp)
    bf47:	00 00 
    bf49:	48 8d 74 24 18       	lea    0x18(%rsp),%rsi
    bf4e:	48 89 c7             	mov    %rax,%rdi
    bf51:	ff 15 39 cd 22 00    	callq  *0x22cd39(%rip)        # 238c90 <_GLOBAL_OFFSET_TABLE_+0x338>
    bf57:	48 83 c4 48          	add    $0x48,%rsp
    bf5b:	c3                   	retq   
    bf5c:	0f 1f 40 00          	nopl   0x0(%rax)

000000000000bf60 <_ZN94_$LT$rand_core..error..Error$u20$as$u20$core..convert..From$LT$getrandom..error..Error$GT$$GT$4from17h0c46038fba2983b1E>:
    bf60:	53                   	push   %rbx
    bf61:	89 fb                	mov    %edi,%ebx
    bf63:	bf 04 00 00 00       	mov    $0x4,%edi
    bf68:	be 04 00 00 00       	mov    $0x4,%esi
    bf6d:	ff 15 c5 cd 22 00    	callq  *0x22cdc5(%rip)        # 238d38 <_GLOBAL_OFFSET_TABLE_+0x3e0>
    bf73:	48 85 c0             	test   %rax,%rax
    bf76:	74 0b                	je     bf83 <_ZN94_$LT$rand_core..error..Error$u20$as$u20$core..convert..From$LT$getrandom..error..Error$GT$$GT$4from17h0c46038fba2983b1E+0x23>
    bf78:	89 18                	mov    %ebx,(%rax)
    bf7a:	48 8d 15 7f ac 22 00 	lea    0x22ac7f(%rip),%rdx        # 236c00 <anon.c6ea4e23a437af59cb2d25da46f590a8.4.llvm.8273080998484209698+0x38>
    bf81:	5b                   	pop    %rbx
    bf82:	c3                   	retq   
    bf83:	bf 04 00 00 00       	mov    $0x4,%edi
    bf88:	be 04 00 00 00       	mov    $0x4,%esi
    bf8d:	ff 15 35 cc 22 00    	callq  *0x22cc35(%rip)        # 238bc8 <_GLOBAL_OFFSET_TABLE_+0x270>
    bf93:	0f 0b                	ud2    
    bf95:	66 2e 0f 1f 84 00 00 	nopw   %cs:0x0(%rax,%rax,1)
    bf9c:	00 00 00 
    bf9f:	90                   	nop

000000000000bfa0 <_ZN65_$LT$alloc..boxed..Box$LT$T$GT$$u20$as$u20$core..fmt..Display$GT$3fmt17h5ae514b0ee33a6cfE>:
    bfa0:	48 8b 07             	mov    (%rdi),%rax
    bfa3:	48 8b 4f 08          	mov    0x8(%rdi),%rcx
    bfa7:	48 8b 49 38          	mov    0x38(%rcx),%rcx
    bfab:	48 89 c7             	mov    %rax,%rdi
    bfae:	ff e1                	jmpq   *%rcx

000000000000bfb0 <_ZN3std5error5Error11description17h2f25256efed013c3E>:
    bfb0:	48 8d 05 94 eb 01 00 	lea    0x1eb94(%rip),%rax        # 2ab4b <_ZN9c2_chacha4guts11init_chacha4IMPL17h738abe021d6dc430E+0x8b>
    bfb7:	ba 28 00 00 00       	mov    $0x28,%edx
    bfbc:	c3                   	retq   
    bfbd:	0f 1f 00             	nopl   (%rax)

000000000000bfc0 <_ZN3std5error5Error5cause17he00ccf7e90ff1319E>:
    bfc0:	31 c0                	xor    %eax,%eax
    bfc2:	c3                   	retq   
    bfc3:	66 2e 0f 1f 84 00 00 	nopw   %cs:0x0(%rax,%rax,1)
    bfca:	00 00 00 
    bfcd:	0f 1f 00             	nopl   (%rax)

000000000000bfd0 <_ZN3std5error5Error7type_id17h81b2e3b9282781feE>:
    bfd0:	48 b8 06 5f 2f eb 65 	movabs $0x41875e65eb2f5f06,%rax
    bfd7:	5e 87 41 
    bfda:	c3                   	retq   
    bfdb:	0f 1f 44 00 00       	nopl   0x0(%rax,%rax,1)

000000000000bfe0 <_ZN4core3ptr18real_drop_in_place17h0ff4eb110fcc09eeE.llvm.7808917253769730504>:
    bfe0:	41 57                	push   %r15
    bfe2:	41 56                	push   %r14
    bfe4:	53                   	push   %rbx
    bfe5:	80 3f 02             	cmpb   $0x2,(%rdi)
    bfe8:	73 06                	jae    bff0 <_ZN4core3ptr18real_drop_in_place17h0ff4eb110fcc09eeE.llvm.7808917253769730504+0x10>
    bfea:	5b                   	pop    %rbx
    bfeb:	41 5e                	pop    %r14
    bfed:	41 5f                	pop    %r15
    bfef:	c3                   	retq   
    bff0:	49 89 ff             	mov    %rdi,%r15
    bff3:	48 8b 5f 08          	mov    0x8(%rdi),%rbx
    bff7:	48 8b 3b             	mov    (%rbx),%rdi
    bffa:	48 8b 43 08          	mov    0x8(%rbx),%rax
    bffe:	ff 10                	callq  *(%rax)
    c000:	48 8b 43 08          	mov    0x8(%rbx),%rax
    c004:	48 8b 70 08          	mov    0x8(%rax),%rsi
    c008:	48 85 f6             	test   %rsi,%rsi
    c00b:	74 0d                	je     c01a <_ZN4core3ptr18real_drop_in_place17h0ff4eb110fcc09eeE.llvm.7808917253769730504+0x3a>
    c00d:	48 8b 3b             	mov    (%rbx),%rdi
    c010:	48 8b 50 10          	mov    0x10(%rax),%rdx
    c014:	ff 15 2e cb 22 00    	callq  *0x22cb2e(%rip)        # 238b48 <_GLOBAL_OFFSET_TABLE_+0x1f0>
    c01a:	49 8b 7f 08          	mov    0x8(%r15),%rdi
    c01e:	be 18 00 00 00       	mov    $0x18,%esi
    c023:	ba 08 00 00 00       	mov    $0x8,%edx
    c028:	5b                   	pop    %rbx
    c029:	41 5e                	pop    %r14
    c02b:	41 5f                	pop    %r15
    c02d:	ff 25 15 cb 22 00    	jmpq   *0x22cb15(%rip)        # 238b48 <_GLOBAL_OFFSET_TABLE_+0x1f0>
    c033:	49 89 c6             	mov    %rax,%r14
    c036:	48 8b 3b             	mov    (%rbx),%rdi
    c039:	48 8b 73 08          	mov    0x8(%rbx),%rsi
    c03d:	e8 2e 00 00 00       	callq  c070 <_ZN5alloc5alloc8box_free17h700bd96a6be55447E.llvm.7808917253769730504>
    c042:	49 8b 7f 08          	mov    0x8(%r15),%rdi
    c046:	e8 15 00 00 00       	callq  c060 <_ZN5alloc5alloc8box_free17h4e902b6989786d69E.llvm.7808917253769730504>
    c04b:	4c 89 f7             	mov    %r14,%rdi
    c04e:	e8 15 bb ff ff       	callq  7b68 <_init+0xf0>
    c053:	0f 0b                	ud2    
    c055:	66 2e 0f 1f 84 00 00 	nopw   %cs:0x0(%rax,%rax,1)
    c05c:	00 00 00 
    c05f:	90                   	nop

000000000000c060 <_ZN5alloc5alloc8box_free17h4e902b6989786d69E.llvm.7808917253769730504>:
    c060:	be 18 00 00 00       	mov    $0x18,%esi
    c065:	ba 08 00 00 00       	mov    $0x8,%edx
    c06a:	ff 25 d8 ca 22 00    	jmpq   *0x22cad8(%rip)        # 238b48 <_GLOBAL_OFFSET_TABLE_+0x1f0>

000000000000c070 <_ZN5alloc5alloc8box_free17h700bd96a6be55447E.llvm.7808917253769730504>:
    c070:	48 89 f0             	mov    %rsi,%rax
    c073:	48 8b 76 08          	mov    0x8(%rsi),%rsi
    c077:	48 85 f6             	test   %rsi,%rsi
    c07a:	74 0a                	je     c086 <_ZN5alloc5alloc8box_free17h700bd96a6be55447E.llvm.7808917253769730504+0x16>
    c07c:	48 8b 50 10          	mov    0x10(%rax),%rdx
    c080:	ff 25 c2 ca 22 00    	jmpq   *0x22cac2(%rip)        # 238b48 <_GLOBAL_OFFSET_TABLE_+0x1f0>
    c086:	c3                   	retq   
    c087:	66 0f 1f 84 00 00 00 	nopw   0x0(%rax,%rax,1)
    c08e:	00 00 

000000000000c090 <_ZN61_$LT$core..num..NonZeroU32$u20$as$u20$core..fmt..UpperHex$GT$3fmt17h5e5bfad7c87b3cc2E>:
    c090:	50                   	push   %rax
    c091:	8b 07                	mov    (%rdi),%eax
    c093:	89 44 24 04          	mov    %eax,0x4(%rsp)
    c097:	48 8d 7c 24 04       	lea    0x4(%rsp),%rdi
    c09c:	ff 15 d6 c9 22 00    	callq  *0x22c9d6(%rip)        # 238a78 <_GLOBAL_OFFSET_TABLE_+0x120>
    c0a2:	59                   	pop    %rcx
    c0a3:	c3                   	retq   
    c0a4:	66 2e 0f 1f 84 00 00 	nopw   %cs:0x0(%rax,%rax,1)
    c0ab:	00 00 00 
    c0ae:	66 90                	xchg   %ax,%ax

000000000000c0b0 <_ZN60_$LT$getrandom..error..Error$u20$as$u20$core..fmt..Debug$GT$3fmt17h9635749dc2693294E>:
    c0b0:	48 83 ec 58          	sub    $0x58,%rsp
    c0b4:	48 89 f0             	mov    %rsi,%rax
    c0b7:	8b 0f                	mov    (%rdi),%ecx
    c0b9:	81 f9 00 c5 f4 57    	cmp    $0x57f4c500,%ecx
    c0bf:	74 16                	je     c0d7 <_ZN60_$LT$getrandom..error..Error$u20$as$u20$core..fmt..Debug$GT$3fmt17h9635749dc2693294E+0x27>
    c0c1:	81 f9 01 c5 f4 57    	cmp    $0x57f4c501,%ecx
    c0c7:	75 5a                	jne    c123 <_ZN60_$LT$getrandom..error..Error$u20$as$u20$core..fmt..Debug$GT$3fmt17h9635749dc2693294E+0x73>
    c0c9:	48 8d 0d a3 ea 01 00 	lea    0x1eaa3(%rip),%rcx        # 2ab73 <anon.6f825716965ed172df63c3d05e30aab0.0.llvm.7808917253769730504>
    c0d0:	ba 16 00 00 00       	mov    $0x16,%edx
    c0d5:	eb 0c                	jmp    c0e3 <_ZN60_$LT$getrandom..error..Error$u20$as$u20$core..fmt..Debug$GT$3fmt17h9635749dc2693294E+0x33>
    c0d7:	48 8d 0d ab ea 01 00 	lea    0x1eaab(%rip),%rcx        # 2ab89 <anon.6f825716965ed172df63c3d05e30aab0.1.llvm.7808917253769730504>
    c0de:	ba 18 00 00 00       	mov    $0x18,%edx
    c0e3:	48 8d 74 24 48       	lea    0x48(%rsp),%rsi
    c0e8:	48 89 4c 24 48       	mov    %rcx,0x48(%rsp)
    c0ed:	48 89 54 24 50       	mov    %rdx,0x50(%rsp)
    c0f2:	48 89 74 24 08       	mov    %rsi,0x8(%rsp)
    c0f7:	48 8d 0d 22 02 00 00 	lea    0x222(%rip),%rcx        # c320 <_ZN44_$LT$$RF$T$u20$as$u20$core..fmt..Display$GT$3fmt17he2a3223eaa89e08dE>
    c0fe:	48 89 4c 24 10       	mov    %rcx,0x10(%rsp)
    c103:	48 8d 0d 3e ab 22 00 	lea    0x22ab3e(%rip),%rcx        # 236c48 <anon.c6ea4e23a437af59cb2d25da46f590a8.4.llvm.8273080998484209698+0x80>
    c10a:	48 89 4c 24 18       	mov    %rcx,0x18(%rsp)
    c10f:	48 c7 44 24 20 02 00 	movq   $0x2,0x20(%rsp)
    c116:	00 00 
    c118:	48 c7 44 24 28 00 00 	movq   $0x0,0x28(%rsp)
    c11f:	00 00 
    c121:	eb 3b                	jmp    c15e <_ZN60_$LT$getrandom..error..Error$u20$as$u20$core..fmt..Debug$GT$3fmt17h9635749dc2693294E+0xae>
    c123:	48 89 7c 24 08       	mov    %rdi,0x8(%rsp)
    c128:	48 8d 0d 61 ff ff ff 	lea    -0x9f(%rip),%rcx        # c090 <_ZN61_$LT$core..num..NonZeroU32$u20$as$u20$core..fmt..UpperHex$GT$3fmt17h5e5bfad7c87b3cc2E>
    c12f:	48 89 4c 24 10       	mov    %rcx,0x10(%rsp)
    c134:	48 8d 0d 2d ab 22 00 	lea    0x22ab2d(%rip),%rcx        # 236c68 <anon.c6ea4e23a437af59cb2d25da46f590a8.4.llvm.8273080998484209698+0xa0>
    c13b:	48 89 4c 24 18       	mov    %rcx,0x18(%rsp)
    c140:	48 c7 44 24 20 02 00 	movq   $0x2,0x20(%rsp)
    c147:	00 00 
    c149:	48 8d 0d 68 ea 01 00 	lea    0x1ea68(%rip),%rcx        # 2abb8 <anon.6f825716965ed172df63c3d05e30aab0.1.llvm.7808917253769730504+0x2f>
    c150:	48 89 4c 24 28       	mov    %rcx,0x28(%rsp)
    c155:	48 c7 44 24 30 01 00 	movq   $0x1,0x30(%rsp)
    c15c:	00 00 
    c15e:	48 8d 4c 24 08       	lea    0x8(%rsp),%rcx
    c163:	48 89 4c 24 38       	mov    %rcx,0x38(%rsp)
    c168:	48 c7 44 24 40 01 00 	movq   $0x1,0x40(%rsp)
    c16f:	00 00 
    c171:	48 8d 74 24 18       	lea    0x18(%rsp),%rsi
    c176:	48 89 c7             	mov    %rax,%rdi
    c179:	ff 15 11 cb 22 00    	callq  *0x22cb11(%rip)        # 238c90 <_GLOBAL_OFFSET_TABLE_+0x338>
    c17f:	48 83 c4 58          	add    $0x58,%rsp
    c183:	c3                   	retq   
    c184:	66 2e 0f 1f 84 00 00 	nopw   %cs:0x0(%rax,%rax,1)
    c18b:	00 00 00 
    c18e:	66 90                	xchg   %ax,%ax

000000000000c190 <_ZN62_$LT$getrandom..error..Error$u20$as$u20$core..fmt..Display$GT$3fmt17h6e06ed1ad53bc659E>:
    c190:	48 83 ec 58          	sub    $0x58,%rsp
    c194:	48 89 f0             	mov    %rsi,%rax
    c197:	8b 0f                	mov    (%rdi),%ecx
    c199:	81 f9 00 c5 f4 57    	cmp    $0x57f4c500,%ecx
    c19f:	74 16                	je     c1b7 <_ZN62_$LT$getrandom..error..Error$u20$as$u20$core..fmt..Display$GT$3fmt17h6e06ed1ad53bc659E+0x27>
    c1a1:	81 f9 01 c5 f4 57    	cmp    $0x57f4c501,%ecx
    c1a7:	75 5a                	jne    c203 <_ZN62_$LT$getrandom..error..Error$u20$as$u20$core..fmt..Display$GT$3fmt17h6e06ed1ad53bc659E+0x73>
    c1a9:	48 8d 0d c3 e9 01 00 	lea    0x1e9c3(%rip),%rcx        # 2ab73 <anon.6f825716965ed172df63c3d05e30aab0.0.llvm.7808917253769730504>
    c1b0:	ba 16 00 00 00       	mov    $0x16,%edx
    c1b5:	eb 0c                	jmp    c1c3 <_ZN62_$LT$getrandom..error..Error$u20$as$u20$core..fmt..Display$GT$3fmt17h6e06ed1ad53bc659E+0x33>
    c1b7:	48 8d 0d cb e9 01 00 	lea    0x1e9cb(%rip),%rcx        # 2ab89 <anon.6f825716965ed172df63c3d05e30aab0.1.llvm.7808917253769730504>
    c1be:	ba 18 00 00 00       	mov    $0x18,%edx
    c1c3:	48 8d 74 24 48       	lea    0x48(%rsp),%rsi
    c1c8:	48 89 4c 24 48       	mov    %rcx,0x48(%rsp)
    c1cd:	48 89 54 24 50       	mov    %rdx,0x50(%rsp)
    c1d2:	48 89 74 24 08       	mov    %rsi,0x8(%rsp)
    c1d7:	48 8d 0d 42 01 00 00 	lea    0x142(%rip),%rcx        # c320 <_ZN44_$LT$$RF$T$u20$as$u20$core..fmt..Display$GT$3fmt17he2a3223eaa89e08dE>
    c1de:	48 89 4c 24 10       	mov    %rcx,0x10(%rsp)
    c1e3:	48 8d 0d 9e aa 22 00 	lea    0x22aa9e(%rip),%rcx        # 236c88 <anon.c6ea4e23a437af59cb2d25da46f590a8.4.llvm.8273080998484209698+0xc0>
    c1ea:	48 89 4c 24 18       	mov    %rcx,0x18(%rsp)
    c1ef:	48 c7 44 24 20 01 00 	movq   $0x1,0x20(%rsp)
    c1f6:	00 00 
    c1f8:	48 c7 44 24 28 00 00 	movq   $0x0,0x28(%rsp)
    c1ff:	00 00 
    c201:	eb 3b                	jmp    c23e <_ZN62_$LT$getrandom..error..Error$u20$as$u20$core..fmt..Display$GT$3fmt17h6e06ed1ad53bc659E+0xae>
    c203:	48 89 7c 24 08       	mov    %rdi,0x8(%rsp)
    c208:	48 8d 0d 81 fe ff ff 	lea    -0x17f(%rip),%rcx        # c090 <_ZN61_$LT$core..num..NonZeroU32$u20$as$u20$core..fmt..UpperHex$GT$3fmt17h5e5bfad7c87b3cc2E>
    c20f:	48 89 4c 24 10       	mov    %rcx,0x10(%rsp)
    c214:	48 8d 0d 7d aa 22 00 	lea    0x22aa7d(%rip),%rcx        # 236c98 <anon.c6ea4e23a437af59cb2d25da46f590a8.4.llvm.8273080998484209698+0xd0>
    c21b:	48 89 4c 24 18       	mov    %rcx,0x18(%rsp)
    c220:	48 c7 44 24 20 01 00 	movq   $0x1,0x20(%rsp)
    c227:	00 00 
    c229:	48 8d 0d 88 e9 01 00 	lea    0x1e988(%rip),%rcx        # 2abb8 <anon.6f825716965ed172df63c3d05e30aab0.1.llvm.7808917253769730504+0x2f>
    c230:	48 89 4c 24 28       	mov    %rcx,0x28(%rsp)
    c235:	48 c7 44 24 30 01 00 	movq   $0x1,0x30(%rsp)
    c23c:	00 00 
    c23e:	48 8d 4c 24 08       	lea    0x8(%rsp),%rcx
    c243:	48 89 4c 24 38       	mov    %rcx,0x38(%rsp)
    c248:	48 c7 44 24 40 01 00 	movq   $0x1,0x40(%rsp)
    c24f:	00 00 
    c251:	48 8d 74 24 18       	lea    0x18(%rsp),%rsi
    c256:	48 89 c7             	mov    %rax,%rdi
    c259:	ff 15 31 ca 22 00    	callq  *0x22ca31(%rip)        # 238c90 <_GLOBAL_OFFSET_TABLE_+0x338>
    c25f:	48 83 c4 58          	add    $0x58,%rsp
    c263:	c3                   	retq   
    c264:	66 2e 0f 1f 84 00 00 	nopw   %cs:0x0(%rax,%rax,1)
    c26b:	00 00 00 
    c26e:	66 90                	xchg   %ax,%ax

000000000000c270 <_ZN9getrandom11error_impls102_$LT$impl$u20$core..convert..From$LT$std..io..error..Error$GT$$u20$for$u20$getrandom..error..Error$GT$4from17ha10e73fa3addd058E>:
    c270:	55                   	push   %rbp
    c271:	41 56                	push   %r14
    c273:	53                   	push   %rbx
    c274:	49 89 fe             	mov    %rdi,%r14
    c277:	ff 15 03 c7 22 00    	callq  *0x22c703(%rip)        # 238980 <_GLOBAL_OFFSET_TABLE_+0x28>
    c27d:	85 c0                	test   %eax,%eax
    c27f:	0f 44 d0             	cmove  %eax,%edx
    c282:	85 d2                	test   %edx,%edx
    c284:	bd 00 c5 f4 57       	mov    $0x57f4c500,%ebp
    c289:	0f 45 ea             	cmovne %edx,%ebp
    c28c:	41 80 3e 02          	cmpb   $0x2,(%r14)
    c290:	72 3b                	jb     c2cd <_ZN9getrandom11error_impls102_$LT$impl$u20$core..convert..From$LT$std..io..error..Error$GT$$u20$for$u20$getrandom..error..Error$GT$4from17ha10e73fa3addd058E+0x5d>
    c292:	49 8b 5e 08          	mov    0x8(%r14),%rbx
    c296:	48 8b 3b             	mov    (%rbx),%rdi
    c299:	48 8b 43 08          	mov    0x8(%rbx),%rax
    c29d:	ff 10                	callq  *(%rax)
    c29f:	48 8b 43 08          	mov    0x8(%rbx),%rax
    c2a3:	48 8b 70 08          	mov    0x8(%rax),%rsi
    c2a7:	48 85 f6             	test   %rsi,%rsi
    c2aa:	74 0d                	je     c2b9 <_ZN9getrandom11error_impls102_$LT$impl$u20$core..convert..From$LT$std..io..error..Error$GT$$u20$for$u20$getrandom..error..Error$GT$4from17ha10e73fa3addd058E+0x49>
    c2ac:	48 8b 3b             	mov    (%rbx),%rdi
    c2af:	48 8b 50 10          	mov    0x10(%rax),%rdx
    c2b3:	ff 15 8f c8 22 00    	callq  *0x22c88f(%rip)        # 238b48 <_GLOBAL_OFFSET_TABLE_+0x1f0>
    c2b9:	49 8b 7e 08          	mov    0x8(%r14),%rdi
    c2bd:	be 18 00 00 00       	mov    $0x18,%esi
    c2c2:	ba 08 00 00 00       	mov    $0x8,%edx
    c2c7:	ff 15 7b c8 22 00    	callq  *0x22c87b(%rip)        # 238b48 <_GLOBAL_OFFSET_TABLE_+0x1f0>
    c2cd:	89 e8                	mov    %ebp,%eax
    c2cf:	5b                   	pop    %rbx
    c2d0:	41 5e                	pop    %r14
    c2d2:	5d                   	pop    %rbp
    c2d3:	c3                   	retq   
    c2d4:	48 89 c5             	mov    %rax,%rbp
    c2d7:	48 8b 3b             	mov    (%rbx),%rdi
    c2da:	48 8b 73 08          	mov    0x8(%rbx),%rsi
