
main:     file format elf64-x86-64


Disassembly of section .init:

0000000000006048 <_init>:
    6048:	48 83 ec 08          	sub    $0x8,%rsp
    604c:	48 8b 05 5d 8d 22 00 	mov    0x228d5d(%rip),%rax        # 22edb0 <_GLOBAL_OFFSET_TABLE_+0x320>
    6053:	48 85 c0             	test   %rax,%rax
    6056:	74 05                	je     605d <_init+0x15>
    6058:	e8 ab 00 00 00       	callq  6108 <_init+0xc0>
    605d:	48 83 c4 08          	add    $0x8,%rsp
    6061:	c3                   	retq   

Disassembly of section .plt:

0000000000006070 <.plt>:
    6070:	ff 35 22 8a 22 00    	pushq  0x228a22(%rip)        # 22ea98 <_GLOBAL_OFFSET_TABLE_+0x8>
    6076:	ff 25 24 8a 22 00    	jmpq   *0x228a24(%rip)        # 22eaa0 <_GLOBAL_OFFSET_TABLE_+0x10>
    607c:	0f 1f 40 00          	nopl   0x0(%rax)

Disassembly of section .plt.got:

0000000000006080 <.plt.got>:
    6080:	ff 25 3a 8a 22 00    	jmpq   *0x228a3a(%rip)        # 22eac0 <_GLOBAL_OFFSET_TABLE_+0x30>
    6086:	66 90                	xchg   %ax,%ax
    6088:	ff 25 42 8a 22 00    	jmpq   *0x228a42(%rip)        # 22ead0 <_GLOBAL_OFFSET_TABLE_+0x40>
    608e:	66 90                	xchg   %ax,%ax
    6090:	ff 25 4a 8a 22 00    	jmpq   *0x228a4a(%rip)        # 22eae0 <_GLOBAL_OFFSET_TABLE_+0x50>
    6096:	66 90                	xchg   %ax,%ax
    6098:	ff 25 72 8a 22 00    	jmpq   *0x228a72(%rip)        # 22eb10 <_GLOBAL_OFFSET_TABLE_+0x80>
    609e:	66 90                	xchg   %ax,%ax
    60a0:	ff 25 7a 8a 22 00    	jmpq   *0x228a7a(%rip)        # 22eb20 <_GLOBAL_OFFSET_TABLE_+0x90>
    60a6:	66 90                	xchg   %ax,%ax
    60a8:	ff 25 ea 8a 22 00    	jmpq   *0x228aea(%rip)        # 22eb98 <_GLOBAL_OFFSET_TABLE_+0x108>
    60ae:	66 90                	xchg   %ax,%ax
    60b0:	ff 25 1a 8b 22 00    	jmpq   *0x228b1a(%rip)        # 22ebd0 <_GLOBAL_OFFSET_TABLE_+0x140>
    60b6:	66 90                	xchg   %ax,%ax
    60b8:	ff 25 32 8b 22 00    	jmpq   *0x228b32(%rip)        # 22ebf0 <_GLOBAL_OFFSET_TABLE_+0x160>
    60be:	66 90                	xchg   %ax,%ax
    60c0:	ff 25 7a 8b 22 00    	jmpq   *0x228b7a(%rip)        # 22ec40 <_GLOBAL_OFFSET_TABLE_+0x1b0>
    60c6:	66 90                	xchg   %ax,%ax
    60c8:	ff 25 7a 8b 22 00    	jmpq   *0x228b7a(%rip)        # 22ec48 <_GLOBAL_OFFSET_TABLE_+0x1b8>
    60ce:	66 90                	xchg   %ax,%ax
    60d0:	ff 25 aa 8b 22 00    	jmpq   *0x228baa(%rip)        # 22ec80 <_GLOBAL_OFFSET_TABLE_+0x1f0>
    60d6:	66 90                	xchg   %ax,%ax
    60d8:	ff 25 e2 8b 22 00    	jmpq   *0x228be2(%rip)        # 22ecc0 <_GLOBAL_OFFSET_TABLE_+0x230>
    60de:	66 90                	xchg   %ax,%ax
    60e0:	ff 25 3a 8c 22 00    	jmpq   *0x228c3a(%rip)        # 22ed20 <_GLOBAL_OFFSET_TABLE_+0x290>
    60e6:	66 90                	xchg   %ax,%ax
    60e8:	ff 25 3a 8c 22 00    	jmpq   *0x228c3a(%rip)        # 22ed28 <_GLOBAL_OFFSET_TABLE_+0x298>
    60ee:	66 90                	xchg   %ax,%ax
    60f0:	ff 25 3a 8c 22 00    	jmpq   *0x228c3a(%rip)        # 22ed30 <_GLOBAL_OFFSET_TABLE_+0x2a0>
    60f6:	66 90                	xchg   %ax,%ax
    60f8:	ff 25 4a 8c 22 00    	jmpq   *0x228c4a(%rip)        # 22ed48 <_GLOBAL_OFFSET_TABLE_+0x2b8>
    60fe:	66 90                	xchg   %ax,%ax
    6100:	ff 25 7a 8c 22 00    	jmpq   *0x228c7a(%rip)        # 22ed80 <_GLOBAL_OFFSET_TABLE_+0x2f0>
    6106:	66 90                	xchg   %ax,%ax
    6108:	ff 25 a2 8c 22 00    	jmpq   *0x228ca2(%rip)        # 22edb0 <_GLOBAL_OFFSET_TABLE_+0x320>
    610e:	66 90                	xchg   %ax,%ax
    6110:	ff 25 ba 8c 22 00    	jmpq   *0x228cba(%rip)        # 22edd0 <_GLOBAL_OFFSET_TABLE_+0x340>
    6116:	66 90                	xchg   %ax,%ax
    6118:	ff 25 02 8d 22 00    	jmpq   *0x228d02(%rip)        # 22ee20 <_GLOBAL_OFFSET_TABLE_+0x390>
    611e:	66 90                	xchg   %ax,%ax
    6120:	ff 25 02 8d 22 00    	jmpq   *0x228d02(%rip)        # 22ee28 <_GLOBAL_OFFSET_TABLE_+0x398>
    6126:	66 90                	xchg   %ax,%ax
    6128:	ff 25 32 8d 22 00    	jmpq   *0x228d32(%rip)        # 22ee60 <_GLOBAL_OFFSET_TABLE_+0x3d0>
    612e:	66 90                	xchg   %ax,%ax
    6130:	ff 25 92 8d 22 00    	jmpq   *0x228d92(%rip)        # 22eec8 <_GLOBAL_OFFSET_TABLE_+0x438>
    6136:	66 90                	xchg   %ax,%ax
    6138:	ff 25 62 8e 22 00    	jmpq   *0x228e62(%rip)        # 22efa0 <_GLOBAL_OFFSET_TABLE_+0x510>
    613e:	66 90                	xchg   %ax,%ax
    6140:	ff 25 72 8e 22 00    	jmpq   *0x228e72(%rip)        # 22efb8 <_GLOBAL_OFFSET_TABLE_+0x528>
    6146:	66 90                	xchg   %ax,%ax

Disassembly of section .text:

0000000000006150 <elf_try_debugfile>:
    6150:	55                   	push   %rbp
    6151:	48 89 e5             	mov    %rsp,%rbp
    6154:	41 57                	push   %r15
    6156:	41 56                	push   %r14
    6158:	41 55                	push   %r13
    615a:	41 54                	push   %r12
    615c:	4e 8d 24 02          	lea    (%rdx,%r8,1),%r12
    6160:	53                   	push   %rbx
    6161:	48 83 ec 58          	sub    $0x58,%rsp
    6165:	48 89 7d b0          	mov    %rdi,-0x50(%rbp)
    6169:	48 89 75 a8          	mov    %rsi,-0x58(%rbp)
    616d:	64 48 8b 04 25 28 00 	mov    %fs:0x28,%rax
    6174:	00 00 
    6176:	48 89 45 c8          	mov    %rax,-0x38(%rbp)
    617a:	31 c0                	xor    %eax,%eax
    617c:	48 89 4d a0          	mov    %rcx,-0x60(%rbp)
    6180:	4c 89 cf             	mov    %r9,%rdi
    6183:	48 83 c9 ff          	or     $0xffffffffffffffff,%rcx
    6187:	4c 89 4d 80          	mov    %r9,-0x80(%rbp)
    618b:	4c 8b 6d 10          	mov    0x10(%rbp),%r13
    618f:	f2 ae                	repnz scas %es:(%rdi),%al
    6191:	4c 8b 75 18          	mov    0x18(%rbp),%r14
    6195:	48 8b 7d b0          	mov    -0x50(%rbp),%rdi
    6199:	48 89 c8             	mov    %rcx,%rax
    619c:	48 89 55 90          	mov    %rdx,-0x70(%rbp)
    61a0:	4c 89 ea             	mov    %r13,%rdx
    61a3:	48 f7 d0             	not    %rax
    61a6:	4c 89 45 88          	mov    %r8,-0x78(%rbp)
    61aa:	48 ff c8             	dec    %rax
    61ad:	4c 89 f1             	mov    %r14,%rcx
    61b0:	4e 8d 1c 20          	lea    (%rax,%r12,1),%r11
    61b4:	48 89 45 b8          	mov    %rax,-0x48(%rbp)
    61b8:	4d 8d 7b 01          	lea    0x1(%r11),%r15
    61bc:	4c 89 5d 98          	mov    %r11,-0x68(%rbp)
    61c0:	4c 89 fe             	mov    %r15,%rsi
    61c3:	e8 18 01 01 00       	callq  162e0 <__rdos_backtrace_alloc>
    61c8:	48 89 c3             	mov    %rax,%rbx
    61cb:	83 c8 ff             	or     $0xffffffff,%eax
    61ce:	48 85 db             	test   %rbx,%rbx
    61d1:	74 66                	je     6239 <elf_try_debugfile+0xe9>
    61d3:	4c 8b 55 90          	mov    -0x70(%rbp),%r10
    61d7:	4c 8b 45 88          	mov    -0x78(%rbp),%r8
    61db:	48 89 df             	mov    %rbx,%rdi
    61de:	4c 8b 4d 80          	mov    -0x80(%rbp),%r9
    61e2:	48 8b 75 a8          	mov    -0x58(%rbp),%rsi
    61e6:	49 01 dc             	add    %rbx,%r12
    61e9:	4c 8b 5d 98          	mov    -0x68(%rbp),%r11
    61ed:	4c 89 f2             	mov    %r14,%rdx
    61f0:	4c 89 d1             	mov    %r10,%rcx
    61f3:	f3 a4                	rep movsb %ds:(%rsi),%es:(%rdi)
    61f5:	4c 89 c1             	mov    %r8,%rcx
    61f8:	48 8b 75 a0          	mov    -0x60(%rbp),%rsi
    61fc:	f3 a4                	rep movsb %ds:(%rsi),%es:(%rdi)
    61fe:	4c 89 ce             	mov    %r9,%rsi
    6201:	4c 89 e7             	mov    %r12,%rdi
    6204:	48 8b 4d b8          	mov    -0x48(%rbp),%rcx
    6208:	f3 a4                	rep movsb %ds:(%rsi),%es:(%rdi)
    620a:	48 8d 4d c4          	lea    -0x3c(%rbp),%rcx
    620e:	4c 89 ee             	mov    %r13,%rsi
    6211:	48 89 df             	mov    %rbx,%rdi
    6214:	42 c6 04 1b 00       	movb   $0x0,(%rbx,%r11,1)
    6219:	e8 72 cc 00 00       	callq  12e90 <__rdos_backtrace_open>
    621e:	48 8b 7d b0          	mov    -0x50(%rbp),%rdi
    6222:	41 89 c4             	mov    %eax,%r12d
    6225:	4d 89 f0             	mov    %r14,%r8
    6228:	4c 89 e9             	mov    %r13,%rcx
    622b:	4c 89 fa             	mov    %r15,%rdx
    622e:	48 89 de             	mov    %rbx,%rsi
    6231:	e8 fa 00 01 00       	callq  16330 <__rdos_backtrace_free>
    6236:	44 89 e0             	mov    %r12d,%eax
    6239:	48 8b 55 c8          	mov    -0x38(%rbp),%rdx
    623d:	64 48 33 14 25 28 00 	xor    %fs:0x28,%rdx
    6244:	00 00 
    6246:	74 05                	je     624d <elf_try_debugfile+0xfd>
    6248:	e8 6b fe ff ff       	callq  60b8 <_init+0x70>
    624d:	48 83 c4 58          	add    $0x58,%rsp
    6251:	5b                   	pop    %rbx
    6252:	41 5c                	pop    %r12
    6254:	41 5d                	pop    %r13
    6256:	41 5e                	pop    %r14
    6258:	41 5f                	pop    %r15
    625a:	5d                   	pop    %rbp
    625b:	c3                   	retq   
    625c:	0f 1f 40 00          	nopl   0x0(%rax)

0000000000006260 <_start>:
    6260:	31 ed                	xor    %ebp,%ebp
    6262:	49 89 d1             	mov    %rdx,%r9
    6265:	5e                   	pop    %rsi
    6266:	48 89 e2             	mov    %rsp,%rdx
    6269:	48 83 e4 f0          	and    $0xfffffffffffffff0,%rsp
    626d:	50                   	push   %rax
    626e:	54                   	push   %rsp
    626f:	4c 8d 05 8a c5 01 00 	lea    0x1c58a(%rip),%r8        # 22800 <__libc_csu_fini>
    6276:	48 8d 0d 13 c5 01 00 	lea    0x1c513(%rip),%rcx        # 22790 <__libc_csu_init>
    627d:	48 8d 3d 4c 02 00 00 	lea    0x24c(%rip),%rdi        # 64d0 <main>
    6284:	e8 5f fe ff ff       	callq  60e8 <_init+0xa0>
    6289:	f4                   	hlt    
    628a:	66 0f 1f 44 00 00    	nopw   0x0(%rax,%rax,1)

0000000000006290 <deregister_tm_clones>:
    6290:	48 8d 3d 99 8d 22 00 	lea    0x228d99(%rip),%rdi        # 22f030 <__TMC_END__>
    6297:	48 8d 05 99 8d 22 00 	lea    0x228d99(%rip),%rax        # 22f037 <__TMC_END__+0x7>
    629e:	55                   	push   %rbp
    629f:	48 29 f8             	sub    %rdi,%rax
    62a2:	48 89 e5             	mov    %rsp,%rbp
    62a5:	48 83 f8 0e          	cmp    $0xe,%rax
    62a9:	76 15                	jbe    62c0 <deregister_tm_clones+0x30>
    62ab:	48 8b 05 86 88 22 00 	mov    0x228886(%rip),%rax        # 22eb38 <_GLOBAL_OFFSET_TABLE_+0xa8>
    62b2:	48 85 c0             	test   %rax,%rax
    62b5:	74 09                	je     62c0 <deregister_tm_clones+0x30>
    62b7:	5d                   	pop    %rbp
    62b8:	ff e0                	jmpq   *%rax
    62ba:	66 0f 1f 44 00 00    	nopw   0x0(%rax,%rax,1)
    62c0:	5d                   	pop    %rbp
    62c1:	c3                   	retq   
    62c2:	0f 1f 40 00          	nopl   0x0(%rax)
    62c6:	66 2e 0f 1f 84 00 00 	nopw   %cs:0x0(%rax,%rax,1)
    62cd:	00 00 00 

00000000000062d0 <register_tm_clones>:
    62d0:	48 8d 3d 59 8d 22 00 	lea    0x228d59(%rip),%rdi        # 22f030 <__TMC_END__>
    62d7:	48 8d 35 52 8d 22 00 	lea    0x228d52(%rip),%rsi        # 22f030 <__TMC_END__>
    62de:	55                   	push   %rbp
    62df:	48 29 fe             	sub    %rdi,%rsi
    62e2:	48 89 e5             	mov    %rsp,%rbp
    62e5:	48 c1 fe 03          	sar    $0x3,%rsi
    62e9:	48 89 f0             	mov    %rsi,%rax
    62ec:	48 c1 e8 3f          	shr    $0x3f,%rax
    62f0:	48 01 c6             	add    %rax,%rsi
    62f3:	48 d1 fe             	sar    %rsi
    62f6:	74 18                	je     6310 <register_tm_clones+0x40>
    62f8:	48 8b 05 71 8c 22 00 	mov    0x228c71(%rip),%rax        # 22ef70 <_GLOBAL_OFFSET_TABLE_+0x4e0>
    62ff:	48 85 c0             	test   %rax,%rax
    6302:	74 0c                	je     6310 <register_tm_clones+0x40>
    6304:	5d                   	pop    %rbp
    6305:	ff e0                	jmpq   *%rax
    6307:	66 0f 1f 84 00 00 00 	nopw   0x0(%rax,%rax,1)
    630e:	00 00 
    6310:	5d                   	pop    %rbp
    6311:	c3                   	retq   
    6312:	0f 1f 40 00          	nopl   0x0(%rax)
    6316:	66 2e 0f 1f 84 00 00 	nopw   %cs:0x0(%rax,%rax,1)
    631d:	00 00 00 

0000000000006320 <__do_global_dtors_aux>:
    6320:	80 3d 09 8d 22 00 00 	cmpb   $0x0,0x228d09(%rip)        # 22f030 <__TMC_END__>
    6327:	75 27                	jne    6350 <__do_global_dtors_aux+0x30>
    6329:	48 83 3d 87 8c 22 00 	cmpq   $0x0,0x228c87(%rip)        # 22efb8 <_GLOBAL_OFFSET_TABLE_+0x528>
    6330:	00 
    6331:	55                   	push   %rbp
    6332:	48 89 e5             	mov    %rsp,%rbp
    6335:	74 0c                	je     6343 <__do_global_dtors_aux+0x23>
    6337:	48 8b 3d c2 8c 22 00 	mov    0x228cc2(%rip),%rdi        # 22f000 <__dso_handle>
    633e:	e8 fd fd ff ff       	callq  6140 <_init+0xf8>
    6343:	e8 48 ff ff ff       	callq  6290 <deregister_tm_clones>
    6348:	5d                   	pop    %rbp
    6349:	c6 05 e0 8c 22 00 01 	movb   $0x1,0x228ce0(%rip)        # 22f030 <__TMC_END__>
    6350:	f3 c3                	repz retq 
    6352:	0f 1f 40 00          	nopl   0x0(%rax)
    6356:	66 2e 0f 1f 84 00 00 	nopw   %cs:0x0(%rax,%rax,1)
    635d:	00 00 00 

0000000000006360 <frame_dummy>:
    6360:	48 8d 3d b1 6b 22 00 	lea    0x226bb1(%rip),%rdi        # 22cf18 <__JCR_END__>
    6367:	48 83 3f 00          	cmpq   $0x0,(%rdi)
    636b:	75 0b                	jne    6378 <frame_dummy+0x18>
    636d:	e9 5e ff ff ff       	jmpq   62d0 <register_tm_clones>
    6372:	66 0f 1f 44 00 00    	nopw   0x0(%rax,%rax,1)
    6378:	48 8b 05 a9 8b 22 00 	mov    0x228ba9(%rip),%rax        # 22ef28 <_GLOBAL_OFFSET_TABLE_+0x498>
    637f:	48 85 c0             	test   %rax,%rax
    6382:	74 e9                	je     636d <frame_dummy+0xd>
    6384:	55                   	push   %rbp
    6385:	48 89 e5             	mov    %rsp,%rbp
    6388:	ff d0                	callq  *%rax
    638a:	5d                   	pop    %rbp
    638b:	e9 40 ff ff ff       	jmpq   62d0 <register_tm_clones>

0000000000006390 <_ZN54_$LT$$LP$$RP$$u20$as$u20$std..process..Termination$GT$6report17hbceb9b4c0400681fE>:
    6390:	50                   	push   %rax
    6391:	31 ff                	xor    %edi,%edi
    6393:	e8 18 00 00 00       	callq  63b0 <_ZN68_$LT$std..process..ExitCode$u20$as$u20$std..process..Termination$GT$6report17h9d1f866073237123E>
    6398:	89 44 24 04          	mov    %eax,0x4(%rsp)
    639c:	8b 44 24 04          	mov    0x4(%rsp),%eax
    63a0:	59                   	pop    %rcx
    63a1:	c3                   	retq   
    63a2:	66 2e 0f 1f 84 00 00 	nopw   %cs:0x0(%rax,%rax,1)
    63a9:	00 00 00 
    63ac:	0f 1f 40 00          	nopl   0x0(%rax)

00000000000063b0 <_ZN68_$LT$std..process..ExitCode$u20$as$u20$std..process..Termination$GT$6report17h9d1f866073237123E>:
    63b0:	50                   	push   %rax
    63b1:	40 88 f8             	mov    %dil,%al
    63b4:	88 44 24 07          	mov    %al,0x7(%rsp)
    63b8:	48 8d 7c 24 07       	lea    0x7(%rsp),%rdi
    63bd:	e8 be 00 00 00       	callq  6480 <_ZN3std3sys4unix7process14process_common8ExitCode6as_i3217hca3ff1df78f4b35bE>
    63c2:	89 04 24             	mov    %eax,(%rsp)
    63c5:	8b 04 24             	mov    (%rsp),%eax
    63c8:	59                   	pop    %rcx
    63c9:	c3                   	retq   
    63ca:	66 0f 1f 44 00 00    	nopw   0x0(%rax,%rax,1)

00000000000063d0 <_ZN3std2rt10lang_start17h91a27a58bbf56d60E>:
    63d0:	48 83 ec 28          	sub    $0x28,%rsp
    63d4:	48 8d 05 95 6b 22 00 	lea    0x226b95(%rip),%rax        # 22cf70 <debug_section_names+0x50>
    63db:	48 89 7c 24 20       	mov    %rdi,0x20(%rsp)
    63e0:	48 8d 7c 24 20       	lea    0x20(%rsp),%rdi
    63e5:	48 89 74 24 18       	mov    %rsi,0x18(%rsp)
    63ea:	48 89 c6             	mov    %rax,%rsi
    63ed:	48 8b 44 24 18       	mov    0x18(%rsp),%rax
    63f2:	48 89 54 24 10       	mov    %rdx,0x10(%rsp)
    63f7:	48 89 c2             	mov    %rax,%rdx
    63fa:	48 8b 4c 24 10       	mov    0x10(%rsp),%rcx
    63ff:	ff 15 f3 8a 22 00    	callq  *0x228af3(%rip)        # 22eef8 <_GLOBAL_OFFSET_TABLE_+0x468>
    6405:	48 89 44 24 08       	mov    %rax,0x8(%rsp)
    640a:	48 8b 44 24 08       	mov    0x8(%rsp),%rax
    640f:	48 83 c4 28          	add    $0x28,%rsp
    6413:	c3                   	retq   
    6414:	66 2e 0f 1f 84 00 00 	nopw   %cs:0x0(%rax,%rax,1)
    641b:	00 00 00 
    641e:	66 90                	xchg   %ax,%ax

0000000000006420 <_ZN3std2rt10lang_start28_$u7b$$u7b$closure$u7d$$u7d$17hcd802297b8a5f946E>:
    6420:	50                   	push   %rax
    6421:	ff 17                	callq  *(%rdi)
    6423:	e8 68 ff ff ff       	callq  6390 <_ZN54_$LT$$LP$$RP$$u20$as$u20$std..process..Termination$GT$6report17hbceb9b4c0400681fE>
    6428:	89 44 24 04          	mov    %eax,0x4(%rsp)
    642c:	8b 44 24 04          	mov    0x4(%rsp),%eax
    6430:	59                   	pop    %rcx
    6431:	c3                   	retq   
    6432:	66 2e 0f 1f 84 00 00 	nopw   %cs:0x0(%rax,%rax,1)
    6439:	00 00 00 
    643c:	0f 1f 40 00          	nopl   0x0(%rax)

0000000000006440 <_ZN4core3fmt9Arguments6new_v117h0ff29b8efc35162dE>:
    6440:	48 83 ec 10          	sub    $0x10,%rsp
    6444:	48 89 f8             	mov    %rdi,%rax
    6447:	48 c7 04 24 00 00 00 	movq   $0x0,(%rsp)
    644e:	00 
    644f:	48 89 37             	mov    %rsi,(%rdi)
    6452:	48 89 57 08          	mov    %rdx,0x8(%rdi)
    6456:	48 8b 14 24          	mov    (%rsp),%rdx
    645a:	48 8b 74 24 08       	mov    0x8(%rsp),%rsi
    645f:	48 89 57 10          	mov    %rdx,0x10(%rdi)
    6463:	48 89 77 18          	mov    %rsi,0x18(%rdi)
    6467:	48 89 4f 20          	mov    %rcx,0x20(%rdi)
    646b:	4c 89 47 28          	mov    %r8,0x28(%rdi)
    646f:	48 83 c4 10          	add    $0x10,%rsp
    6473:	c3                   	retq   
    6474:	66 2e 0f 1f 84 00 00 	nopw   %cs:0x0(%rax,%rax,1)
    647b:	00 00 00 
    647e:	66 90                	xchg   %ax,%ax

0000000000006480 <_ZN3std3sys4unix7process14process_common8ExitCode6as_i3217hca3ff1df78f4b35bE>:
    6480:	0f b6 07             	movzbl (%rdi),%eax
    6483:	c3                   	retq   
    6484:	66 2e 0f 1f 84 00 00 	nopw   %cs:0x0(%rax,%rax,1)
    648b:	00 00 00 
    648e:	66 90                	xchg   %ax,%ax

0000000000006490 <_ZN4main4main17hfe98083a4c87500fE>:
    6490:	48 83 ec 38          	sub    $0x38,%rsp
    6494:	48 8d 05 05 6b 22 00 	lea    0x226b05(%rip),%rax        # 22cfa0 <debug_section_names+0x80>
    649b:	48 8d 0d 8e c3 01 00 	lea    0x1c38e(%rip),%rcx        # 22830 <_fini+0x2c>
    64a2:	31 d2                	xor    %edx,%edx
    64a4:	41 89 d0             	mov    %edx,%r8d
    64a7:	48 8d 7c 24 08       	lea    0x8(%rsp),%rdi
    64ac:	48 89 c6             	mov    %rax,%rsi
    64af:	ba 01 00 00 00       	mov    $0x1,%edx
    64b4:	e8 87 ff ff ff       	callq  6440 <_ZN4core3fmt9Arguments6new_v117h0ff29b8efc35162dE>
    64b9:	48 8d 7c 24 08       	lea    0x8(%rsp),%rdi
    64be:	ff 15 74 89 22 00    	callq  *0x228974(%rip)        # 22ee38 <_GLOBAL_OFFSET_TABLE_+0x3a8>
    64c4:	48 83 c4 38          	add    $0x38,%rsp
    64c8:	c3                   	retq   
    64c9:	0f 1f 80 00 00 00 00 	nopl   0x0(%rax)

00000000000064d0 <main>:
    64d0:	50                   	push   %rax
    64d1:	48 63 c7             	movslq %edi,%rax
    64d4:	48 8d 3d b5 ff ff ff 	lea    -0x4b(%rip),%rdi        # 6490 <_ZN4main4main17hfe98083a4c87500fE>
    64db:	48 89 34 24          	mov    %rsi,(%rsp)
    64df:	48 89 c6             	mov    %rax,%rsi
    64e2:	48 8b 14 24          	mov    (%rsp),%rdx
    64e6:	e8 e5 fe ff ff       	callq  63d0 <_ZN3std2rt10lang_start17h91a27a58bbf56d60E>
    64eb:	89 c1                	mov    %eax,%ecx
    64ed:	89 c8                	mov    %ecx,%eax
    64ef:	59                   	pop    %rcx
    64f0:	c3                   	retq   
    64f1:	66 2e 0f 1f 84 00 00 	nopw   %cs:0x0(%rax,%rax,1)
    64f8:	00 00 00 
    64fb:	0f 1f 44 00 00       	nopl   0x0(%rax,%rax,1)

0000000000006500 <_ZN4core3ops8function6FnOnce9call_once17hc11a4aee50d92842E>:
    6500:	48 83 ec 28          	sub    $0x28,%rsp
    6504:	48 89 7c 24 08       	mov    %rdi,0x8(%rsp)
    6509:	48 8d 7c 24 08       	lea    0x8(%rsp),%rdi
    650e:	e8 0d ff ff ff       	callq  6420 <_ZN3std2rt10lang_start28_$u7b$$u7b$closure$u7d$$u7d$17hcd802297b8a5f946E>
    6513:	89 44 24 04          	mov    %eax,0x4(%rsp)
    6517:	eb 00                	jmp    6519 <_ZN4core3ops8function6FnOnce9call_once17hc11a4aee50d92842E+0x19>
    6519:	eb 00                	jmp    651b <_ZN4core3ops8function6FnOnce9call_once17hc11a4aee50d92842E+0x1b>
    651b:	8b 44 24 04          	mov    0x4(%rsp),%eax
    651f:	48 83 c4 28          	add    $0x28,%rsp
    6523:	c3                   	retq   
    6524:	eb 00                	jmp    6526 <_ZN4core3ops8function6FnOnce9call_once17hc11a4aee50d92842E+0x26>
    6526:	48 8b 7c 24 18       	mov    0x18(%rsp),%rdi
    652b:	e8 08 fc ff ff       	callq  6138 <_init+0xf0>
    6530:	0f 0b                	ud2    
    6532:	89 d1                	mov    %edx,%ecx
    6534:	48 89 44 24 18       	mov    %rax,0x18(%rsp)
    6539:	89 4c 24 20          	mov    %ecx,0x20(%rsp)
    653d:	eb e5                	jmp    6524 <_ZN4core3ops8function6FnOnce9call_once17hc11a4aee50d92842E+0x24>
    653f:	90                   	nop

0000000000006540 <_ZN4core3ops8function6FnOnce9call_once32_$u7b$$u7b$vtable.shim$u7d$$u7d$17h30ccb3777a8fb105E>:
    6540:	48 83 ec 18          	sub    $0x18,%rsp
    6544:	48 8b 3f             	mov    (%rdi),%rdi
    6547:	e8 b4 ff ff ff       	callq  6500 <_ZN4core3ops8function6FnOnce9call_once17hc11a4aee50d92842E>
    654c:	89 44 24 0c          	mov    %eax,0xc(%rsp)
    6550:	8b 44 24 0c          	mov    0xc(%rsp),%eax
    6554:	48 83 c4 18          	add    $0x18,%rsp
    6558:	c3                   	retq   
    6559:	0f 1f 80 00 00 00 00 	nopl   0x0(%rax)

0000000000006560 <_ZN4core3ptr18real_drop_in_place17h972534eb1cc95cc5E>:
    6560:	50                   	push   %rax
    6561:	48 89 3c 24          	mov    %rdi,(%rsp)
    6565:	58                   	pop    %rax
    6566:	c3                   	retq   
    6567:	66 0f 1f 84 00 00 00 	nopw   0x0(%rax,%rax,1)
    656e:	00 00 

0000000000006570 <__rust_alloc>:
    6570:	e9 3b 5d 00 00       	jmpq   c2b0 <__rdl_alloc>
    6575:	66 2e 0f 1f 84 00 00 	nopw   %cs:0x0(%rax,%rax,1)
    657c:	00 00 00 
    657f:	90                   	nop

0000000000006580 <__rust_dealloc>:
    6580:	e9 6b 5d 00 00       	jmpq   c2f0 <__rdl_dealloc>
    6585:	66 2e 0f 1f 84 00 00 	nopw   %cs:0x0(%rax,%rax,1)
    658c:	00 00 00 
    658f:	90                   	nop

0000000000006590 <__rust_realloc>:
    6590:	e9 6b 5d 00 00       	jmpq   c300 <__rdl_realloc>
    6595:	66 2e 0f 1f 84 00 00 	nopw   %cs:0x0(%rax,%rax,1)
    659c:	00 00 00 
    659f:	90                   	nop

00000000000065a0 <_ZN34_$LT$alloc..sync..Arc$LT$T$GT$$GT$9drop_slow17h609eaa68712ad880E>:
    65a0:	41 56                	push   %r14
    65a2:	53                   	push   %rbx
    65a3:	50                   	push   %rax
    65a4:	49 89 fe             	mov    %rdi,%r14
    65a7:	48 8b 1f             	mov    (%rdi),%rbx
    65aa:	48 8b 7b 10          	mov    0x10(%rbx),%rdi
    65ae:	ff 15 6c 86 22 00    	callq  *0x22866c(%rip)        # 22ec20 <_GLOBAL_OFFSET_TABLE_+0x190>
    65b4:	48 8b 7b 10          	mov    0x10(%rbx),%rdi
    65b8:	be 28 00 00 00       	mov    $0x28,%esi
    65bd:	ba 08 00 00 00       	mov    $0x8,%edx
    65c2:	ff 15 b0 86 22 00    	callq  *0x2286b0(%rip)        # 22ec78 <_GLOBAL_OFFSET_TABLE_+0x1e8>
    65c8:	48 83 c3 18          	add    $0x18,%rbx
    65cc:	48 89 df             	mov    %rbx,%rdi
    65cf:	e8 fc 03 00 00       	callq  69d0 <_ZN4core3ptr18real_drop_in_place17h5bc0f63409ddcf84E>
    65d4:	49 8b 06             	mov    (%r14),%rax
    65d7:	f0 48 81 68 08 01 00 	lock subq $0x1,0x8(%rax)
    65de:	00 00 
    65e0:	75 1a                	jne    65fc <_ZN34_$LT$alloc..sync..Arc$LT$T$GT$$GT$9drop_slow17h609eaa68712ad880E+0x5c>
    65e2:	49 8b 3e             	mov    (%r14),%rdi
    65e5:	be 50 00 00 00       	mov    $0x50,%esi
    65ea:	ba 08 00 00 00       	mov    $0x8,%edx
    65ef:	48 83 c4 08          	add    $0x8,%rsp
    65f3:	5b                   	pop    %rbx
    65f4:	41 5e                	pop    %r14
    65f6:	ff 25 7c 86 22 00    	jmpq   *0x22867c(%rip)        # 22ec78 <_GLOBAL_OFFSET_TABLE_+0x1e8>
    65fc:	48 83 c4 08          	add    $0x8,%rsp
    6600:	5b                   	pop    %rbx
    6601:	41 5e                	pop    %r14
    6603:	c3                   	retq   
    6604:	66 2e 0f 1f 84 00 00 	nopw   %cs:0x0(%rax,%rax,1)
    660b:	00 00 00 
    660e:	66 90                	xchg   %ax,%ax

0000000000006610 <_ZN34_$LT$alloc..sync..Arc$LT$T$GT$$GT$9drop_slow17hf6e1f74c90802e9aE>:
    6610:	41 57                	push   %r15
    6612:	41 56                	push   %r14
    6614:	53                   	push   %rbx
    6615:	49 89 fe             	mov    %rdi,%r14
    6618:	48 8b 1f             	mov    (%rdi),%rbx
    661b:	48 8b 43 10          	mov    0x10(%rbx),%rax
    661f:	48 85 c0             	test   %rax,%rax
    6622:	74 1b                	je     663f <_ZN34_$LT$alloc..sync..Arc$LT$T$GT$$GT$9drop_slow17hf6e1f74c90802e9aE+0x2f>
    6624:	c6 00 00             	movb   $0x0,(%rax)
    6627:	48 8b 73 18          	mov    0x18(%rbx),%rsi
    662b:	48 85 f6             	test   %rsi,%rsi
    662e:	74 0f                	je     663f <_ZN34_$LT$alloc..sync..Arc$LT$T$GT$$GT$9drop_slow17hf6e1f74c90802e9aE+0x2f>
    6630:	48 8b 7b 10          	mov    0x10(%rbx),%rdi
    6634:	ba 01 00 00 00       	mov    $0x1,%edx
    6639:	ff 15 39 86 22 00    	callq  *0x228639(%rip)        # 22ec78 <_GLOBAL_OFFSET_TABLE_+0x1e8>
    663f:	48 8b 7b 30          	mov    0x30(%rbx),%rdi
    6643:	ff 15 d7 85 22 00    	callq  *0x2285d7(%rip)        # 22ec20 <_GLOBAL_OFFSET_TABLE_+0x190>
    6649:	48 8b 7b 30          	mov    0x30(%rbx),%rdi
    664d:	4c 8d 3d 2c ff ff ff 	lea    -0xd4(%rip),%r15        # 6580 <__rust_dealloc>
    6654:	be 28 00 00 00       	mov    $0x28,%esi
    6659:	ba 08 00 00 00       	mov    $0x8,%edx
    665e:	41 ff d7             	callq  *%r15
    6661:	48 8b 7b 40          	mov    0x40(%rbx),%rdi
    6665:	ff 15 55 88 22 00    	callq  *0x228855(%rip)        # 22eec0 <_GLOBAL_OFFSET_TABLE_+0x430>
    666b:	48 8b 7b 40          	mov    0x40(%rbx),%rdi
    666f:	be 30 00 00 00       	mov    $0x30,%esi
    6674:	ba 08 00 00 00       	mov    $0x8,%edx
    6679:	41 ff d7             	callq  *%r15
    667c:	49 8b 06             	mov    (%r14),%rax
    667f:	f0 48 81 68 08 01 00 	lock subq $0x1,0x8(%rax)
    6686:	00 00 
    6688:	75 18                	jne    66a2 <_ZN34_$LT$alloc..sync..Arc$LT$T$GT$$GT$9drop_slow17hf6e1f74c90802e9aE+0x92>
    668a:	49 8b 3e             	mov    (%r14),%rdi
    668d:	be 50 00 00 00       	mov    $0x50,%esi
    6692:	ba 08 00 00 00       	mov    $0x8,%edx
    6697:	5b                   	pop    %rbx
    6698:	41 5e                	pop    %r14
    669a:	41 5f                	pop    %r15
    669c:	ff 25 d6 85 22 00    	jmpq   *0x2285d6(%rip)        # 22ec78 <_GLOBAL_OFFSET_TABLE_+0x1e8>
    66a2:	5b                   	pop    %rbx
    66a3:	41 5e                	pop    %r14
    66a5:	41 5f                	pop    %r15
    66a7:	c3                   	retq   
    66a8:	0f 1f 84 00 00 00 00 	nopl   0x0(%rax,%rax,1)
    66af:	00 

00000000000066b0 <_ZN36_$LT$T$u20$as$u20$core..any..Any$GT$7type_id17h20ccdaddb0ae20c6E>:
    66b0:	48 b8 04 cb 36 d0 05 	movabs $0x68c68305d036cb04,%rax
    66b7:	83 c6 68 
    66ba:	c3                   	retq   
    66bb:	0f 1f 44 00 00       	nopl   0x0(%rax,%rax,1)

00000000000066c0 <_ZN36_$LT$T$u20$as$u20$core..any..Any$GT$7type_id17h4619386f6e1c04e0E>:
    66c0:	48 b8 64 97 b0 70 d9 	movabs $0x111094d970b09764,%rax
    66c7:	94 10 11 
    66ca:	c3                   	retq   
    66cb:	0f 1f 44 00 00       	nopl   0x0(%rax,%rax,1)

00000000000066d0 <_ZN36_$LT$T$u20$as$u20$core..any..Any$GT$7type_id17hd72a0dd73689c7f8E>:
    66d0:	48 b8 a7 de 67 2d 4c 	movabs $0x587f884c2d67dea7,%rax
    66d7:	88 7f 58 
    66da:	c3                   	retq   
    66db:	0f 1f 44 00 00       	nopl   0x0(%rax,%rax,1)

00000000000066e0 <_ZN42_$LT$$RF$T$u20$as$u20$core..fmt..Debug$GT$3fmt17h0ef4ec544343468cE>:
    66e0:	41 56                	push   %r14
    66e2:	53                   	push   %rbx
    66e3:	50                   	push   %rax
    66e4:	48 89 f3             	mov    %rsi,%rbx
    66e7:	4c 8b 37             	mov    (%rdi),%r14
    66ea:	48 89 f7             	mov    %rsi,%rdi
    66ed:	ff 15 ed 86 22 00    	callq  *0x2286ed(%rip)        # 22ede0 <_GLOBAL_OFFSET_TABLE_+0x350>
    66f3:	84 c0                	test   %al,%al
    66f5:	74 13                	je     670a <_ZN42_$LT$$RF$T$u20$as$u20$core..fmt..Debug$GT$3fmt17h0ef4ec544343468cE+0x2a>
    66f7:	4c 89 f7             	mov    %r14,%rdi
    66fa:	48 89 de             	mov    %rbx,%rsi
    66fd:	48 83 c4 08          	add    $0x8,%rsp
    6701:	5b                   	pop    %rbx
    6702:	41 5e                	pop    %r14
    6704:	ff 25 0e 88 22 00    	jmpq   *0x22880e(%rip)        # 22ef18 <_GLOBAL_OFFSET_TABLE_+0x488>
    670a:	48 89 df             	mov    %rbx,%rdi
    670d:	ff 15 f5 85 22 00    	callq  *0x2285f5(%rip)        # 22ed08 <_GLOBAL_OFFSET_TABLE_+0x278>
    6713:	4c 89 f7             	mov    %r14,%rdi
    6716:	48 89 de             	mov    %rbx,%rsi
    6719:	48 83 c4 08          	add    $0x8,%rsp
    671d:	84 c0                	test   %al,%al
    671f:	74 09                	je     672a <_ZN42_$LT$$RF$T$u20$as$u20$core..fmt..Debug$GT$3fmt17h0ef4ec544343468cE+0x4a>
    6721:	5b                   	pop    %rbx
    6722:	41 5e                	pop    %r14
    6724:	ff 25 ae 85 22 00    	jmpq   *0x2285ae(%rip)        # 22ecd8 <_GLOBAL_OFFSET_TABLE_+0x248>
    672a:	5b                   	pop    %rbx
    672b:	41 5e                	pop    %r14
    672d:	ff 25 4d 88 22 00    	jmpq   *0x22884d(%rip)        # 22ef80 <_GLOBAL_OFFSET_TABLE_+0x4f0>
    6733:	66 2e 0f 1f 84 00 00 	nopw   %cs:0x0(%rax,%rax,1)
    673a:	00 00 00 
    673d:	0f 1f 00             	nopl   (%rax)

0000000000006740 <_ZN42_$LT$$RF$T$u20$as$u20$core..fmt..Debug$GT$3fmt17h421bb8763141c2edE>:
    6740:	41 56                	push   %r14
    6742:	53                   	push   %rbx
    6743:	50                   	push   %rax
    6744:	48 89 f3             	mov    %rsi,%rbx
    6747:	4c 8b 37             	mov    (%rdi),%r14
    674a:	48 89 f7             	mov    %rsi,%rdi
    674d:	ff 15 8d 86 22 00    	callq  *0x22868d(%rip)        # 22ede0 <_GLOBAL_OFFSET_TABLE_+0x350>
    6753:	84 c0                	test   %al,%al
    6755:	74 13                	je     676a <_ZN42_$LT$$RF$T$u20$as$u20$core..fmt..Debug$GT$3fmt17h421bb8763141c2edE+0x2a>
    6757:	4c 89 f7             	mov    %r14,%rdi
    675a:	48 89 de             	mov    %rbx,%rsi
    675d:	48 83 c4 08          	add    $0x8,%rsp
    6761:	5b                   	pop    %rbx
    6762:	41 5e                	pop    %r14
    6764:	ff 25 de 87 22 00    	jmpq   *0x2287de(%rip)        # 22ef48 <_GLOBAL_OFFSET_TABLE_+0x4b8>
    676a:	48 89 df             	mov    %rbx,%rdi
    676d:	ff 15 95 85 22 00    	callq  *0x228595(%rip)        # 22ed08 <_GLOBAL_OFFSET_TABLE_+0x278>
    6773:	4c 89 f7             	mov    %r14,%rdi
    6776:	48 89 de             	mov    %rbx,%rsi
    6779:	48 83 c4 08          	add    $0x8,%rsp
    677d:	84 c0                	test   %al,%al
    677f:	74 09                	je     678a <_ZN42_$LT$$RF$T$u20$as$u20$core..fmt..Debug$GT$3fmt17h421bb8763141c2edE+0x4a>
    6781:	5b                   	pop    %rbx
    6782:	41 5e                	pop    %r14
    6784:	ff 25 5e 85 22 00    	jmpq   *0x22855e(%rip)        # 22ece8 <_GLOBAL_OFFSET_TABLE_+0x258>
    678a:	5b                   	pop    %rbx
    678b:	41 5e                	pop    %r14
    678d:	ff 25 55 87 22 00    	jmpq   *0x228755(%rip)        # 22eee8 <_GLOBAL_OFFSET_TABLE_+0x458>
    6793:	66 2e 0f 1f 84 00 00 	nopw   %cs:0x0(%rax,%rax,1)
    679a:	00 00 00 
    679d:	0f 1f 00             	nopl   (%rax)

00000000000067a0 <_ZN42_$LT$$RF$T$u20$as$u20$core..fmt..Debug$GT$3fmt17h9cb76fd0b157ef73E>:
    67a0:	41 56                	push   %r14
    67a2:	53                   	push   %rbx
    67a3:	50                   	push   %rax
    67a4:	48 89 f3             	mov    %rsi,%rbx
    67a7:	4c 8b 37             	mov    (%rdi),%r14
    67aa:	48 89 f7             	mov    %rsi,%rdi
    67ad:	ff 15 2d 86 22 00    	callq  *0x22862d(%rip)        # 22ede0 <_GLOBAL_OFFSET_TABLE_+0x350>
    67b3:	84 c0                	test   %al,%al
    67b5:	74 13                	je     67ca <_ZN42_$LT$$RF$T$u20$as$u20$core..fmt..Debug$GT$3fmt17h9cb76fd0b157ef73E+0x2a>
    67b7:	4c 89 f7             	mov    %r14,%rdi
    67ba:	48 89 de             	mov    %rbx,%rsi
    67bd:	48 83 c4 08          	add    $0x8,%rsp
    67c1:	5b                   	pop    %rbx
    67c2:	41 5e                	pop    %r14
    67c4:	ff 25 ee 86 22 00    	jmpq   *0x2286ee(%rip)        # 22eeb8 <_GLOBAL_OFFSET_TABLE_+0x428>
    67ca:	48 89 df             	mov    %rbx,%rdi
    67cd:	ff 15 35 85 22 00    	callq  *0x228535(%rip)        # 22ed08 <_GLOBAL_OFFSET_TABLE_+0x278>
    67d3:	4c 89 f7             	mov    %r14,%rdi
    67d6:	48 89 de             	mov    %rbx,%rsi
    67d9:	48 83 c4 08          	add    $0x8,%rsp
    67dd:	84 c0                	test   %al,%al
    67df:	74 09                	je     67ea <_ZN42_$LT$$RF$T$u20$as$u20$core..fmt..Debug$GT$3fmt17h9cb76fd0b157ef73E+0x4a>
    67e1:	5b                   	pop    %rbx
    67e2:	41 5e                	pop    %r14
    67e4:	ff 25 ee 83 22 00    	jmpq   *0x2283ee(%rip)        # 22ebd8 <_GLOBAL_OFFSET_TABLE_+0x148>
    67ea:	5b                   	pop    %rbx
    67eb:	41 5e                	pop    %r14
    67ed:	ff 25 f5 82 22 00    	jmpq   *0x2282f5(%rip)        # 22eae8 <_GLOBAL_OFFSET_TABLE_+0x58>
    67f3:	66 2e 0f 1f 84 00 00 	nopw   %cs:0x0(%rax,%rax,1)
    67fa:	00 00 00 
    67fd:	0f 1f 00             	nopl   (%rax)

0000000000006800 <_ZN42_$LT$$RF$T$u20$as$u20$core..fmt..Debug$GT$3fmt17ha9c4bcd4f9f11838E>:
    6800:	48 89 f2             	mov    %rsi,%rdx
    6803:	48 8b 07             	mov    (%rdi),%rax
    6806:	48 8b 38             	mov    (%rax),%rdi
    6809:	48 8b 70 10          	mov    0x10(%rax),%rsi
    680d:	ff 25 b5 87 22 00    	jmpq   *0x2287b5(%rip)        # 22efc8 <_GLOBAL_OFFSET_TABLE_+0x538>
    6813:	66 2e 0f 1f 84 00 00 	nopw   %cs:0x0(%rax,%rax,1)
    681a:	00 00 00 
    681d:	0f 1f 00             	nopl   (%rax)

0000000000006820 <_ZN44_$LT$$RF$T$u20$as$u20$core..fmt..Display$GT$3fmt17h262045c00756d9b4E>:
    6820:	48 89 f2             	mov    %rsi,%rdx
    6823:	48 8b 07             	mov    (%rdi),%rax
    6826:	48 8b 77 08          	mov    0x8(%rdi),%rsi
    682a:	48 89 c7             	mov    %rax,%rdi
    682d:	ff 25 dd 83 22 00    	jmpq   *0x2283dd(%rip)        # 22ec10 <_GLOBAL_OFFSET_TABLE_+0x180>
    6833:	66 2e 0f 1f 84 00 00 	nopw   %cs:0x0(%rax,%rax,1)
    683a:	00 00 00 
    683d:	0f 1f 00             	nopl   (%rax)

0000000000006840 <_ZN45_$LT$$RF$T$u20$as$u20$core..fmt..UpperHex$GT$3fmt17h7e34c2613621e4f4E>:
    6840:	48 8b 3f             	mov    (%rdi),%rdi
    6843:	ff 25 8f 83 22 00    	jmpq   *0x22838f(%rip)        # 22ebd8 <_GLOBAL_OFFSET_TABLE_+0x148>
    6849:	0f 1f 80 00 00 00 00 	nopl   0x0(%rax)

0000000000006850 <_ZN4core3ptr18real_drop_in_place17h01583a0cb659ecd9E>:
    6850:	c3                   	retq   
    6851:	66 2e 0f 1f 84 00 00 	nopw   %cs:0x0(%rax,%rax,1)
    6858:	00 00 00 
    685b:	0f 1f 44 00 00       	nopl   0x0(%rax,%rax,1)

0000000000006860 <_ZN4core3ptr18real_drop_in_place17h13b3d2149581e24eE>:
    6860:	41 56                	push   %r14
    6862:	53                   	push   %rbx
    6863:	50                   	push   %rax
    6864:	83 3f 00             	cmpl   $0x0,(%rdi)
    6867:	74 2f                	je     6898 <_ZN4core3ptr18real_drop_in_place17h13b3d2149581e24eE+0x38>
    6869:	48 89 fb             	mov    %rdi,%rbx
    686c:	48 8b 7f 08          	mov    0x8(%rdi),%rdi
    6870:	48 8b 43 10          	mov    0x10(%rbx),%rax
    6874:	ff 10                	callq  *(%rax)
    6876:	48 8b 43 10          	mov    0x10(%rbx),%rax
    687a:	48 8b 70 08          	mov    0x8(%rax),%rsi
    687e:	48 85 f6             	test   %rsi,%rsi
    6881:	74 15                	je     6898 <_ZN4core3ptr18real_drop_in_place17h13b3d2149581e24eE+0x38>
    6883:	48 8b 7b 08          	mov    0x8(%rbx),%rdi
    6887:	48 8b 50 10          	mov    0x10(%rax),%rdx
    688b:	48 83 c4 08          	add    $0x8,%rsp
    688f:	5b                   	pop    %rbx
    6890:	41 5e                	pop    %r14
    6892:	ff 25 e0 83 22 00    	jmpq   *0x2283e0(%rip)        # 22ec78 <_GLOBAL_OFFSET_TABLE_+0x1e8>
    6898:	48 83 c4 08          	add    $0x8,%rsp
    689c:	5b                   	pop    %rbx
    689d:	41 5e                	pop    %r14
    689f:	c3                   	retq   
    68a0:	49 89 c6             	mov    %rax,%r14
    68a3:	48 8b 7b 08          	mov    0x8(%rbx),%rdi
    68a7:	48 8b 73 10          	mov    0x10(%rbx),%rsi
    68ab:	e8 40 09 00 00       	callq  71f0 <_ZN5alloc5alloc8box_free17habb2f4e088dcf1b4E.llvm.9634770799887424769>
    68b0:	4c 89 f7             	mov    %r14,%rdi
    68b3:	e8 80 f8 ff ff       	callq  6138 <_init+0xf0>
    68b8:	0f 0b                	ud2    
    68ba:	66 0f 1f 44 00 00    	nopw   0x0(%rax,%rax,1)

00000000000068c0 <_ZN4core3ptr18real_drop_in_place17h192cfa9279653452E>:
    68c0:	41 57                	push   %r15
    68c2:	41 56                	push   %r14
    68c4:	53                   	push   %rbx
    68c5:	48 89 fb             	mov    %rdi,%rbx
    68c8:	80 7f 08 00          	cmpb   $0x0,0x8(%rdi)
    68cc:	75 49                	jne    6917 <_ZN4core3ptr18real_drop_in_place17h192cfa9279653452E+0x57>
    68ce:	4c 8b 3b             	mov    (%rbx),%r15
    68d1:	ff 15 01 6d 22 00    	callq  *0x226d01(%rip)        # 22d5d8 <anon.cb107c2d85549501cc25b5e94e33ad5a.49.llvm.5822095925024908728>
    68d7:	48 85 c0             	test   %rax,%rax
    68da:	74 4c                	je     6928 <_ZN4core3ptr18real_drop_in_place17h192cfa9279653452E+0x68>
    68dc:	49 89 c6             	mov    %rax,%r14
    68df:	48 83 38 01          	cmpq   $0x1,(%rax)
    68e3:	75 0d                	jne    68f2 <_ZN4core3ptr18real_drop_in_place17h192cfa9279653452E+0x32>
    68e5:	4c 89 f1             	mov    %r14,%rcx
    68e8:	48 83 c1 08          	add    $0x8,%rcx
    68ec:	49 8b 46 08          	mov    0x8(%r14),%rax
    68f0:	eb 18                	jmp    690a <_ZN4core3ptr18real_drop_in_place17h192cfa9279653452E+0x4a>
    68f2:	ff 15 e8 6c 22 00    	callq  *0x226ce8(%rip)        # 22d5e0 <anon.cb107c2d85549501cc25b5e94e33ad5a.49.llvm.5822095925024908728+0x8>
    68f8:	4c 89 f1             	mov    %r14,%rcx
    68fb:	48 83 c1 08          	add    $0x8,%rcx
    68ff:	49 c7 06 01 00 00 00 	movq   $0x1,(%r14)
    6906:	49 89 46 08          	mov    %rax,0x8(%r14)
    690a:	48 89 01             	mov    %rax,(%rcx)
    690d:	48 85 c0             	test   %rax,%rax
    6910:	74 05                	je     6917 <_ZN4core3ptr18real_drop_in_place17h192cfa9279653452E+0x57>
    6912:	41 c6 47 08 01       	movb   $0x1,0x8(%r15)
    6917:	48 8b 03             	mov    (%rbx),%rax
    691a:	48 8b 38             	mov    (%rax),%rdi
    691d:	5b                   	pop    %rbx
    691e:	41 5e                	pop    %r14
    6920:	41 5f                	pop    %r15
    6922:	ff 25 e8 84 22 00    	jmpq   *0x2284e8(%rip)        # 22ee10 <_GLOBAL_OFFSET_TABLE_+0x380>
    6928:	48 8d 3d 8c c4 01 00 	lea    0x1c48c(%rip),%rdi        # 22dbb <anon.9aff47cfc7bc0ab43bec4bdb2a8d583b.12.llvm.10827810749348899414>
    692f:	be 39 00 00 00       	mov    $0x39,%esi
    6934:	e8 07 05 00 00       	callq  6e40 <_ZN4core6result13unwrap_failed17h8dea4bb8d8776a71E>
    6939:	0f 0b                	ud2    
    693b:	0f 1f 44 00 00       	nopl   0x0(%rax,%rax,1)

0000000000006940 <_ZN4core3ptr18real_drop_in_place17h25785b15f6ade62bE>:
    6940:	48 8b 3f             	mov    (%rdi),%rdi
    6943:	ff 25 c7 84 22 00    	jmpq   *0x2284c7(%rip)        # 22ee10 <_GLOBAL_OFFSET_TABLE_+0x380>
    6949:	0f 1f 80 00 00 00 00 	nopl   0x0(%rax)

0000000000006950 <_ZN4core3ptr18real_drop_in_place17h27d0fd17d65341eeE.llvm.9634770799887424769>:
    6950:	41 57                	push   %r15
    6952:	41 56                	push   %r14
    6954:	53                   	push   %rbx
    6955:	80 3f 02             	cmpb   $0x2,(%rdi)
    6958:	73 06                	jae    6960 <_ZN4core3ptr18real_drop_in_place17h27d0fd17d65341eeE.llvm.9634770799887424769+0x10>
    695a:	5b                   	pop    %rbx
    695b:	41 5e                	pop    %r14
    695d:	41 5f                	pop    %r15
    695f:	c3                   	retq   
    6960:	49 89 ff             	mov    %rdi,%r15
    6963:	48 8b 5f 08          	mov    0x8(%rdi),%rbx
    6967:	48 8b 3b             	mov    (%rbx),%rdi
    696a:	48 8b 43 08          	mov    0x8(%rbx),%rax
    696e:	ff 10                	callq  *(%rax)
    6970:	48 8b 43 08          	mov    0x8(%rbx),%rax
    6974:	48 8b 70 08          	mov    0x8(%rax),%rsi
    6978:	48 85 f6             	test   %rsi,%rsi
    697b:	74 0d                	je     698a <_ZN4core3ptr18real_drop_in_place17h27d0fd17d65341eeE.llvm.9634770799887424769+0x3a>
    697d:	48 8b 3b             	mov    (%rbx),%rdi
    6980:	48 8b 50 10          	mov    0x10(%rax),%rdx
    6984:	ff 15 ee 82 22 00    	callq  *0x2282ee(%rip)        # 22ec78 <_GLOBAL_OFFSET_TABLE_+0x1e8>
    698a:	49 8b 7f 08          	mov    0x8(%r15),%rdi
    698e:	be 18 00 00 00       	mov    $0x18,%esi
    6993:	ba 08 00 00 00       	mov    $0x8,%edx
    6998:	5b                   	pop    %rbx
    6999:	41 5e                	pop    %r14
    699b:	41 5f                	pop    %r15
    699d:	ff 25 d5 82 22 00    	jmpq   *0x2282d5(%rip)        # 22ec78 <_GLOBAL_OFFSET_TABLE_+0x1e8>
    69a3:	49 89 c6             	mov    %rax,%r14
    69a6:	48 8b 3b             	mov    (%rbx),%rdi
    69a9:	48 8b 73 08          	mov    0x8(%rbx),%rsi
    69ad:	e8 3e 08 00 00       	callq  71f0 <_ZN5alloc5alloc8box_free17habb2f4e088dcf1b4E.llvm.9634770799887424769>
    69b2:	49 8b 7f 08          	mov    0x8(%r15),%rdi
    69b6:	e8 25 08 00 00       	callq  71e0 <_ZN5alloc5alloc8box_free17hd88e60c97e400217E.llvm.9634770799887424769>
    69bb:	4c 89 f7             	mov    %r14,%rdi
    69be:	e8 75 f7 ff ff       	callq  6138 <_init+0xf0>
    69c3:	0f 0b                	ud2    
    69c5:	66 2e 0f 1f 84 00 00 	nopw   %cs:0x0(%rax,%rax,1)
    69cc:	00 00 00 
    69cf:	90                   	nop

00000000000069d0 <_ZN4core3ptr18real_drop_in_place17h5bc0f63409ddcf84E>:
    69d0:	41 57                	push   %r15
    69d2:	41 56                	push   %r14
    69d4:	53                   	push   %rbx
    69d5:	48 83 ec 10          	sub    $0x10,%rsp
    69d9:	48 89 fb             	mov    %rdi,%rbx
    69dc:	4c 8d 77 08          	lea    0x8(%rdi),%r14
    69e0:	80 7f 20 02          	cmpb   $0x2,0x20(%rdi)
    69e4:	74 58                	je     6a3e <_ZN4core3ptr18real_drop_in_place17h5bc0f63409ddcf84E+0x6e>
    69e6:	8a 43 21             	mov    0x21(%rbx),%al
    69e9:	84 c0                	test   %al,%al
    69eb:	75 51                	jne    6a3e <_ZN4core3ptr18real_drop_in_place17h5bc0f63409ddcf84E+0x6e>
    69ed:	48 89 e7             	mov    %rsp,%rdi
    69f0:	4c 89 f6             	mov    %r14,%rsi
    69f3:	e8 f8 08 00 00       	callq  72f0 <_ZN46_$LT$std..io..buffered..BufWriter$LT$W$GT$$GT$9flush_buf17h63aa1d1c59571033E.llvm.9634770799887424769>
    69f8:	8a 04 24             	mov    (%rsp),%al
    69fb:	3c 03                	cmp    $0x3,%al
    69fd:	77 04                	ja     6a03 <_ZN4core3ptr18real_drop_in_place17h5bc0f63409ddcf84E+0x33>
    69ff:	3c 02                	cmp    $0x2,%al
    6a01:	75 3b                	jne    6a3e <_ZN4core3ptr18real_drop_in_place17h5bc0f63409ddcf84E+0x6e>
    6a03:	4c 8b 7c 24 08       	mov    0x8(%rsp),%r15
    6a08:	49 8b 3f             	mov    (%r15),%rdi
    6a0b:	49 8b 47 08          	mov    0x8(%r15),%rax
    6a0f:	ff 10                	callq  *(%rax)
    6a11:	49 8b 47 08          	mov    0x8(%r15),%rax
    6a15:	48 8b 70 08          	mov    0x8(%rax),%rsi
    6a19:	48 85 f6             	test   %rsi,%rsi
    6a1c:	74 0d                	je     6a2b <_ZN4core3ptr18real_drop_in_place17h5bc0f63409ddcf84E+0x5b>
    6a1e:	49 8b 3f             	mov    (%r15),%rdi
    6a21:	48 8b 50 10          	mov    0x10(%rax),%rdx
    6a25:	ff 15 4d 82 22 00    	callq  *0x22824d(%rip)        # 22ec78 <_GLOBAL_OFFSET_TABLE_+0x1e8>
    6a2b:	be 18 00 00 00       	mov    $0x18,%esi
    6a30:	ba 08 00 00 00       	mov    $0x8,%edx
    6a35:	4c 89 ff             	mov    %r15,%rdi
    6a38:	ff 15 3a 82 22 00    	callq  *0x22823a(%rip)        # 22ec78 <_GLOBAL_OFFSET_TABLE_+0x1e8>
    6a3e:	48 8b 73 10          	mov    0x10(%rbx),%rsi
    6a42:	48 85 f6             	test   %rsi,%rsi
    6a45:	74 17                	je     6a5e <_ZN4core3ptr18real_drop_in_place17h5bc0f63409ddcf84E+0x8e>
    6a47:	49 8b 3e             	mov    (%r14),%rdi
    6a4a:	ba 01 00 00 00       	mov    $0x1,%edx
    6a4f:	48 83 c4 10          	add    $0x10,%rsp
    6a53:	5b                   	pop    %rbx
    6a54:	41 5e                	pop    %r14
    6a56:	41 5f                	pop    %r15
    6a58:	ff 25 1a 82 22 00    	jmpq   *0x22821a(%rip)        # 22ec78 <_GLOBAL_OFFSET_TABLE_+0x1e8>
    6a5e:	48 83 c4 10          	add    $0x10,%rsp
    6a62:	5b                   	pop    %rbx
    6a63:	41 5e                	pop    %r14
    6a65:	41 5f                	pop    %r15
    6a67:	c3                   	retq   
    6a68:	48 89 c3             	mov    %rax,%rbx
    6a6b:	49 8b 3f             	mov    (%r15),%rdi
    6a6e:	49 8b 77 08          	mov    0x8(%r15),%rsi
    6a72:	e8 79 07 00 00       	callq  71f0 <_ZN5alloc5alloc8box_free17habb2f4e088dcf1b4E.llvm.9634770799887424769>
    6a77:	4c 89 ff             	mov    %r15,%rdi
    6a7a:	e8 61 07 00 00       	callq  71e0 <_ZN5alloc5alloc8box_free17hd88e60c97e400217E.llvm.9634770799887424769>
    6a7f:	eb 03                	jmp    6a84 <_ZN4core3ptr18real_drop_in_place17h5bc0f63409ddcf84E+0xb4>
    6a81:	48 89 c3             	mov    %rax,%rbx
    6a84:	4c 89 f7             	mov    %r14,%rdi
    6a87:	e8 34 00 00 00       	callq  6ac0 <_ZN4core3ptr18real_drop_in_place17h70005d6db3a49856E.llvm.9634770799887424769>
    6a8c:	48 89 df             	mov    %rbx,%rdi
    6a8f:	e8 a4 f6 ff ff       	callq  6138 <_init+0xf0>
    6a94:	0f 0b                	ud2    
    6a96:	66 2e 0f 1f 84 00 00 	nopw   %cs:0x0(%rax,%rax,1)
    6a9d:	00 00 00 

0000000000006aa0 <_ZN4core3ptr18real_drop_in_place17h617852494a707b8bE>:
    6aa0:	48 8b 07             	mov    (%rdi),%rax
    6aa3:	f0 48 81 28 01 00 00 	lock subq $0x1,(%rax)
    6aaa:	00 
    6aab:	75 05                	jne    6ab2 <_ZN4core3ptr18real_drop_in_place17h617852494a707b8bE+0x12>
    6aad:	e9 5e fb ff ff       	jmpq   6610 <_ZN34_$LT$alloc..sync..Arc$LT$T$GT$$GT$9drop_slow17hf6e1f74c90802e9aE>
    6ab2:	c3                   	retq   
    6ab3:	66 2e 0f 1f 84 00 00 	nopw   %cs:0x0(%rax,%rax,1)
    6aba:	00 00 00 
    6abd:	0f 1f 00             	nopl   (%rax)

0000000000006ac0 <_ZN4core3ptr18real_drop_in_place17h70005d6db3a49856E.llvm.9634770799887424769>:
    6ac0:	48 8b 77 08          	mov    0x8(%rdi),%rsi
    6ac4:	48 85 f6             	test   %rsi,%rsi
    6ac7:	74 0e                	je     6ad7 <_ZN4core3ptr18real_drop_in_place17h70005d6db3a49856E.llvm.9634770799887424769+0x17>
    6ac9:	48 8b 3f             	mov    (%rdi),%rdi
    6acc:	ba 01 00 00 00       	mov    $0x1,%edx
    6ad1:	ff 25 a1 81 22 00    	jmpq   *0x2281a1(%rip)        # 22ec78 <_GLOBAL_OFFSET_TABLE_+0x1e8>
    6ad7:	c3                   	retq   
    6ad8:	0f 1f 84 00 00 00 00 	nopl   0x0(%rax,%rax,1)
    6adf:	00 

0000000000006ae0 <_ZN4core3ptr18real_drop_in_place17h76993805732baf87E>:
    6ae0:	48 8b 77 10          	mov    0x10(%rdi),%rsi
    6ae4:	48 85 f6             	test   %rsi,%rsi
    6ae7:	74 0f                	je     6af8 <_ZN4core3ptr18real_drop_in_place17h76993805732baf87E+0x18>
    6ae9:	48 8b 7f 08          	mov    0x8(%rdi),%rdi
    6aed:	ba 01 00 00 00       	mov    $0x1,%edx
    6af2:	ff 25 80 81 22 00    	jmpq   *0x228180(%rip)        # 22ec78 <_GLOBAL_OFFSET_TABLE_+0x1e8>
    6af8:	c3                   	retq   
    6af9:	0f 1f 80 00 00 00 00 	nopl   0x0(%rax)

0000000000006b00 <_ZN4core3ptr18real_drop_in_place17h8a43fe1a5d73b2edE>:
    6b00:	41 56                	push   %r14
    6b02:	53                   	push   %rbx
    6b03:	50                   	push   %rax
    6b04:	48 89 fb             	mov    %rdi,%rbx
    6b07:	48 8b 3f             	mov    (%rdi),%rdi
    6b0a:	48 8b 43 08          	mov    0x8(%rbx),%rax
    6b0e:	ff 10                	callq  *(%rax)
    6b10:	48 8b 43 08          	mov    0x8(%rbx),%rax
    6b14:	48 8b 70 08          	mov    0x8(%rax),%rsi
    6b18:	48 85 f6             	test   %rsi,%rsi
    6b1b:	74 14                	je     6b31 <_ZN4core3ptr18real_drop_in_place17h8a43fe1a5d73b2edE+0x31>
    6b1d:	48 8b 3b             	mov    (%rbx),%rdi
    6b20:	48 8b 50 10          	mov    0x10(%rax),%rdx
    6b24:	48 83 c4 08          	add    $0x8,%rsp
    6b28:	5b                   	pop    %rbx
    6b29:	41 5e                	pop    %r14
    6b2b:	ff 25 47 81 22 00    	jmpq   *0x228147(%rip)        # 22ec78 <_GLOBAL_OFFSET_TABLE_+0x1e8>
    6b31:	48 83 c4 08          	add    $0x8,%rsp
    6b35:	5b                   	pop    %rbx
    6b36:	41 5e                	pop    %r14
    6b38:	c3                   	retq   
    6b39:	49 89 c6             	mov    %rax,%r14
    6b3c:	48 8b 3b             	mov    (%rbx),%rdi
    6b3f:	48 8b 73 08          	mov    0x8(%rbx),%rsi
    6b43:	e8 a8 06 00 00       	callq  71f0 <_ZN5alloc5alloc8box_free17habb2f4e088dcf1b4E.llvm.9634770799887424769>
    6b48:	4c 89 f7             	mov    %r14,%rdi
    6b4b:	e8 e8 f5 ff ff       	callq  6138 <_init+0xf0>
    6b50:	0f 0b                	ud2    
    6b52:	66 2e 0f 1f 84 00 00 	nopw   %cs:0x0(%rax,%rax,1)
    6b59:	00 00 00 
    6b5c:	0f 1f 40 00          	nopl   0x0(%rax)

0000000000006b60 <_ZN4core3ptr18real_drop_in_place17haa2ed5119323d2c3E.llvm.9634770799887424769>:
    6b60:	41 57                	push   %r15
    6b62:	41 56                	push   %r14
    6b64:	41 54                	push   %r12
    6b66:	53                   	push   %rbx
    6b67:	50                   	push   %rax
    6b68:	49 89 fe             	mov    %rdi,%r14
    6b6b:	48 8b 47 10          	mov    0x10(%rdi),%rax
    6b6f:	48 3b 47 18          	cmp    0x18(%rdi),%rax
    6b73:	74 3c                	je     6bb1 <_ZN4core3ptr18real_drop_in_place17haa2ed5119323d2c3E.llvm.9634770799887424769+0x51>
    6b75:	4c 8d 25 04 fa ff ff 	lea    -0x5fc(%rip),%r12        # 6580 <__rust_dealloc>
    6b7c:	0f 1f 40 00          	nopl   0x0(%rax)
    6b80:	48 8d 48 10          	lea    0x10(%rax),%rcx
    6b84:	49 89 4e 10          	mov    %rcx,0x10(%r14)
    6b88:	4c 8b 38             	mov    (%rax),%r15
    6b8b:	48 8b 58 08          	mov    0x8(%rax),%rbx
    6b8f:	4c 89 ff             	mov    %r15,%rdi
    6b92:	ff 13                	callq  *(%rbx)
    6b94:	48 8b 73 08          	mov    0x8(%rbx),%rsi
    6b98:	48 85 f6             	test   %rsi,%rsi
    6b9b:	74 0a                	je     6ba7 <_ZN4core3ptr18real_drop_in_place17haa2ed5119323d2c3E.llvm.9634770799887424769+0x47>
    6b9d:	48 8b 53 10          	mov    0x10(%rbx),%rdx
    6ba1:	4c 89 ff             	mov    %r15,%rdi
    6ba4:	41 ff d4             	callq  *%r12
    6ba7:	49 8b 46 10          	mov    0x10(%r14),%rax
    6bab:	49 3b 46 18          	cmp    0x18(%r14),%rax
    6baf:	75 cf                	jne    6b80 <_ZN4core3ptr18real_drop_in_place17haa2ed5119323d2c3E.llvm.9634770799887424769+0x20>
    6bb1:	49 8b 76 08          	mov    0x8(%r14),%rsi
    6bb5:	48 85 f6             	test   %rsi,%rsi
    6bb8:	74 1d                	je     6bd7 <_ZN4core3ptr18real_drop_in_place17haa2ed5119323d2c3E.llvm.9634770799887424769+0x77>
    6bba:	49 8b 3e             	mov    (%r14),%rdi
    6bbd:	48 c1 e6 04          	shl    $0x4,%rsi
    6bc1:	ba 08 00 00 00       	mov    $0x8,%edx
    6bc6:	48 83 c4 08          	add    $0x8,%rsp
    6bca:	5b                   	pop    %rbx
    6bcb:	41 5c                	pop    %r12
    6bcd:	41 5e                	pop    %r14
    6bcf:	41 5f                	pop    %r15
    6bd1:	ff 25 a1 80 22 00    	jmpq   *0x2280a1(%rip)        # 22ec78 <_GLOBAL_OFFSET_TABLE_+0x1e8>
    6bd7:	48 83 c4 08          	add    $0x8,%rsp
    6bdb:	5b                   	pop    %rbx
    6bdc:	41 5c                	pop    %r12
    6bde:	41 5e                	pop    %r14
    6be0:	41 5f                	pop    %r15
    6be2:	c3                   	retq   
    6be3:	49 89 c6             	mov    %rax,%r14
    6be6:	4c 89 ff             	mov    %r15,%rdi
    6be9:	48 89 de             	mov    %rbx,%rsi
    6bec:	e8 1f 94 00 00       	callq  10010 <_ZN5alloc5alloc8box_free17habb2f4e088dcf1b4E.llvm.12046821098248573319>
    6bf1:	4c 89 f7             	mov    %r14,%rdi
    6bf4:	e8 3f f5 ff ff       	callq  6138 <_init+0xf0>
    6bf9:	0f 0b                	ud2    
    6bfb:	0f 1f 44 00 00       	nopl   0x0(%rax,%rax,1)

0000000000006c00 <_ZN4core3ptr18real_drop_in_place17hacc9873e04d4ffe9E>:
    6c00:	48 83 3f 00          	cmpq   $0x0,(%rdi)
    6c04:	74 09                	je     6c0f <_ZN4core3ptr18real_drop_in_place17hacc9873e04d4ffe9E+0xf>
    6c06:	48 83 c7 08          	add    $0x8,%rdi
    6c0a:	e9 41 fd ff ff       	jmpq   6950 <_ZN4core3ptr18real_drop_in_place17h27d0fd17d65341eeE.llvm.9634770799887424769>
    6c0f:	c3                   	retq   

0000000000006c10 <_ZN4core3ptr18real_drop_in_place17hb1c70549fdd5687bE>:
    6c10:	80 3f 03             	cmpb   $0x3,(%rdi)
    6c13:	75 01                	jne    6c16 <_ZN4core3ptr18real_drop_in_place17hb1c70549fdd5687bE+0x6>
    6c15:	c3                   	retq   
    6c16:	e9 35 fd ff ff       	jmpq   6950 <_ZN4core3ptr18real_drop_in_place17h27d0fd17d65341eeE.llvm.9634770799887424769>
    6c1b:	0f 1f 44 00 00       	nopl   0x0(%rax,%rax,1)

0000000000006c20 <_ZN4core6result13unwrap_failed17h2d3198244e21b90dE>:
    6c20:	53                   	push   %rbx
    6c21:	48 83 ec 70          	sub    $0x70,%rsp
    6c25:	48 89 7c 24 10       	mov    %rdi,0x10(%rsp)
    6c2a:	48 89 74 24 18       	mov    %rsi,0x18(%rsp)
    6c2f:	48 89 14 24          	mov    %rdx,(%rsp)
    6c33:	88 4c 24 08          	mov    %cl,0x8(%rsp)
    6c37:	48 8d 44 24 10       	lea    0x10(%rsp),%rax
    6c3c:	48 89 44 24 20       	mov    %rax,0x20(%rsp)
    6c41:	48 8d 05 d8 fb ff ff 	lea    -0x428(%rip),%rax        # 6820 <_ZN44_$LT$$RF$T$u20$as$u20$core..fmt..Display$GT$3fmt17h262045c00756d9b4E>
    6c48:	48 89 44 24 28       	mov    %rax,0x28(%rsp)
    6c4d:	48 89 e0             	mov    %rsp,%rax
    6c50:	48 89 44 24 30       	mov    %rax,0x30(%rsp)
    6c55:	48 8d 05 a4 32 00 00 	lea    0x32a4(%rip),%rax        # 9f00 <_ZN82_$LT$std..sys_common..poison..PoisonError$LT$T$GT$$u20$as$u20$core..fmt..Debug$GT$3fmt17h646c987f228a1bebE>
    6c5c:	48 89 44 24 38       	mov    %rax,0x38(%rsp)
    6c61:	48 8d 05 a0 63 22 00 	lea    0x2263a0(%rip),%rax        # 22d008 <anon.ff2dd124ec5e25f1c1e32fbc2f3b208a.5.llvm.9634770799887424769+0x30>
    6c68:	48 89 44 24 40       	mov    %rax,0x40(%rsp)
    6c6d:	48 c7 44 24 48 02 00 	movq   $0x2,0x48(%rsp)
    6c74:	00 00 
    6c76:	48 c7 44 24 50 00 00 	movq   $0x0,0x50(%rsp)
    6c7d:	00 00 
    6c7f:	48 8d 44 24 20       	lea    0x20(%rsp),%rax
    6c84:	48 89 44 24 60       	mov    %rax,0x60(%rsp)
    6c89:	48 c7 44 24 68 02 00 	movq   $0x2,0x68(%rsp)
    6c90:	00 00 
    6c92:	48 8d 35 8f 63 22 00 	lea    0x22638f(%rip),%rsi        # 22d028 <anon.ff2dd124ec5e25f1c1e32fbc2f3b208a.5.llvm.9634770799887424769+0x50>
    6c99:	48 8d 7c 24 40       	lea    0x40(%rsp),%rdi
    6c9e:	ff 15 3c 80 22 00    	callq  *0x22803c(%rip)        # 22ece0 <_GLOBAL_OFFSET_TABLE_+0x250>
    6ca4:	0f 0b                	ud2    
    6ca6:	48 89 c3             	mov    %rax,%rbx
    6ca9:	48 89 e7             	mov    %rsp,%rdi
    6cac:	e8 0f fc ff ff       	callq  68c0 <_ZN4core3ptr18real_drop_in_place17h192cfa9279653452E>
    6cb1:	48 89 df             	mov    %rbx,%rdi
    6cb4:	e8 7f f4 ff ff       	callq  6138 <_init+0xf0>
    6cb9:	0f 0b                	ud2    
    6cbb:	0f 1f 44 00 00       	nopl   0x0(%rax,%rax,1)

0000000000006cc0 <_ZN4core6result13unwrap_failed17h364b1d28812d893aE>:
    6cc0:	48 83 ec 68          	sub    $0x68,%rsp
    6cc4:	48 89 7c 24 08       	mov    %rdi,0x8(%rsp)
    6cc9:	48 89 74 24 10       	mov    %rsi,0x10(%rsp)
    6cce:	48 8d 44 24 08       	lea    0x8(%rsp),%rax
    6cd3:	48 89 44 24 18       	mov    %rax,0x18(%rsp)
    6cd8:	48 8d 05 41 fb ff ff 	lea    -0x4bf(%rip),%rax        # 6820 <_ZN44_$LT$$RF$T$u20$as$u20$core..fmt..Display$GT$3fmt17h262045c00756d9b4E>
    6cdf:	48 89 44 24 20       	mov    %rax,0x20(%rsp)
    6ce4:	48 89 e0             	mov    %rsp,%rax
    6ce7:	48 89 44 24 28       	mov    %rax,0x28(%rsp)
    6cec:	48 8d 05 4d 9e 01 00 	lea    0x19e4d(%rip),%rax        # 20b40 <_ZN60_$LT$core..cell..BorrowError$u20$as$u20$core..fmt..Debug$GT$3fmt17h43c5c52814c878b2E>
    6cf3:	48 89 44 24 30       	mov    %rax,0x30(%rsp)
    6cf8:	48 8d 05 09 63 22 00 	lea    0x226309(%rip),%rax        # 22d008 <anon.ff2dd124ec5e25f1c1e32fbc2f3b208a.5.llvm.9634770799887424769+0x30>
    6cff:	48 89 44 24 38       	mov    %rax,0x38(%rsp)
    6d04:	48 c7 44 24 40 02 00 	movq   $0x2,0x40(%rsp)
    6d0b:	00 00 
    6d0d:	48 c7 44 24 48 00 00 	movq   $0x0,0x48(%rsp)
    6d14:	00 00 
    6d16:	48 8d 44 24 18       	lea    0x18(%rsp),%rax
    6d1b:	48 89 44 24 58       	mov    %rax,0x58(%rsp)
    6d20:	48 c7 44 24 60 02 00 	movq   $0x2,0x60(%rsp)
    6d27:	00 00 
    6d29:	48 8d 35 f8 62 22 00 	lea    0x2262f8(%rip),%rsi        # 22d028 <anon.ff2dd124ec5e25f1c1e32fbc2f3b208a.5.llvm.9634770799887424769+0x50>
    6d30:	48 8d 7c 24 38       	lea    0x38(%rsp),%rdi
    6d35:	ff 15 a5 7f 22 00    	callq  *0x227fa5(%rip)        # 22ece0 <_GLOBAL_OFFSET_TABLE_+0x250>
    6d3b:	0f 0b                	ud2    
    6d3d:	0f 1f 00             	nopl   (%rax)

0000000000006d40 <_ZN4core6result13unwrap_failed17h37b7f598016a18deE>:
    6d40:	48 83 ec 68          	sub    $0x68,%rsp
    6d44:	48 89 7c 24 08       	mov    %rdi,0x8(%rsp)
    6d49:	48 89 74 24 10       	mov    %rsi,0x10(%rsp)
    6d4e:	48 8d 44 24 08       	lea    0x8(%rsp),%rax
    6d53:	48 89 44 24 18       	mov    %rax,0x18(%rsp)
    6d58:	48 8d 05 c1 fa ff ff 	lea    -0x53f(%rip),%rax        # 6820 <_ZN44_$LT$$RF$T$u20$as$u20$core..fmt..Display$GT$3fmt17h262045c00756d9b4E>
    6d5f:	48 89 44 24 20       	mov    %rax,0x20(%rsp)
    6d64:	48 89 54 24 28       	mov    %rdx,0x28(%rsp)
    6d69:	48 8d 05 a0 7f 01 00 	lea    0x17fa0(%rip),%rax        # 1ed10 <_ZN57_$LT$core..str..Utf8Error$u20$as$u20$core..fmt..Debug$GT$3fmt17h877a0f519b63f8f9E>
    6d70:	48 89 44 24 30       	mov    %rax,0x30(%rsp)
    6d75:	48 8d 05 8c 62 22 00 	lea    0x22628c(%rip),%rax        # 22d008 <anon.ff2dd124ec5e25f1c1e32fbc2f3b208a.5.llvm.9634770799887424769+0x30>
    6d7c:	48 89 44 24 38       	mov    %rax,0x38(%rsp)
    6d81:	48 c7 44 24 40 02 00 	movq   $0x2,0x40(%rsp)
    6d88:	00 00 
    6d8a:	48 c7 44 24 48 00 00 	movq   $0x0,0x48(%rsp)
    6d91:	00 00 
    6d93:	48 8d 44 24 18       	lea    0x18(%rsp),%rax
    6d98:	48 89 44 24 58       	mov    %rax,0x58(%rsp)
    6d9d:	48 c7 44 24 60 02 00 	movq   $0x2,0x60(%rsp)
    6da4:	00 00 
    6da6:	48 8d 35 7b 62 22 00 	lea    0x22627b(%rip),%rsi        # 22d028 <anon.ff2dd124ec5e25f1c1e32fbc2f3b208a.5.llvm.9634770799887424769+0x50>
    6dad:	48 8d 7c 24 38       	lea    0x38(%rsp),%rdi
    6db2:	ff 15 28 7f 22 00    	callq  *0x227f28(%rip)        # 22ece0 <_GLOBAL_OFFSET_TABLE_+0x250>
    6db8:	0f 0b                	ud2    
    6dba:	66 0f 1f 44 00 00    	nopw   0x0(%rax,%rax,1)

0000000000006dc0 <_ZN4core6result13unwrap_failed17h7a6b485e230bad45E>:
    6dc0:	48 83 ec 68          	sub    $0x68,%rsp
    6dc4:	48 89 7c 24 08       	mov    %rdi,0x8(%rsp)
    6dc9:	48 89 74 24 10       	mov    %rsi,0x10(%rsp)
    6dce:	48 8d 44 24 08       	lea    0x8(%rsp),%rax
    6dd3:	48 89 44 24 18       	mov    %rax,0x18(%rsp)
    6dd8:	48 8d 05 41 fa ff ff 	lea    -0x5bf(%rip),%rax        # 6820 <_ZN44_$LT$$RF$T$u20$as$u20$core..fmt..Display$GT$3fmt17h262045c00756d9b4E>
    6ddf:	48 89 44 24 20       	mov    %rax,0x20(%rsp)
    6de4:	48 89 e0             	mov    %rsp,%rax
    6de7:	48 89 44 24 28       	mov    %rax,0x28(%rsp)
    6dec:	48 8d 05 6d 9d 01 00 	lea    0x19d6d(%rip),%rax        # 20b60 <_ZN63_$LT$core..cell..BorrowMutError$u20$as$u20$core..fmt..Debug$GT$3fmt17h9b79f99b5987e55dE>
    6df3:	48 89 44 24 30       	mov    %rax,0x30(%rsp)
    6df8:	48 8d 05 09 62 22 00 	lea    0x226209(%rip),%rax        # 22d008 <anon.ff2dd124ec5e25f1c1e32fbc2f3b208a.5.llvm.9634770799887424769+0x30>
    6dff:	48 89 44 24 38       	mov    %rax,0x38(%rsp)
    6e04:	48 c7 44 24 40 02 00 	movq   $0x2,0x40(%rsp)
    6e0b:	00 00 
    6e0d:	48 c7 44 24 48 00 00 	movq   $0x0,0x48(%rsp)
    6e14:	00 00 
    6e16:	48 8d 44 24 18       	lea    0x18(%rsp),%rax
    6e1b:	48 89 44 24 58       	mov    %rax,0x58(%rsp)
    6e20:	48 c7 44 24 60 02 00 	movq   $0x2,0x60(%rsp)
    6e27:	00 00 
    6e29:	48 8d 35 f8 61 22 00 	lea    0x2261f8(%rip),%rsi        # 22d028 <anon.ff2dd124ec5e25f1c1e32fbc2f3b208a.5.llvm.9634770799887424769+0x50>
    6e30:	48 8d 7c 24 38       	lea    0x38(%rsp),%rdi
    6e35:	ff 15 a5 7e 22 00    	callq  *0x227ea5(%rip)        # 22ece0 <_GLOBAL_OFFSET_TABLE_+0x250>
    6e3b:	0f 0b                	ud2    
    6e3d:	0f 1f 00             	nopl   (%rax)

0000000000006e40 <_ZN4core6result13unwrap_failed17h8dea4bb8d8776a71E>:
    6e40:	48 83 ec 68          	sub    $0x68,%rsp
    6e44:	48 89 7c 24 08       	mov    %rdi,0x8(%rsp)
    6e49:	48 89 74 24 10       	mov    %rsi,0x10(%rsp)
    6e4e:	48 8d 44 24 08       	lea    0x8(%rsp),%rax
    6e53:	48 89 44 24 18       	mov    %rax,0x18(%rsp)
    6e58:	48 8d 05 c1 f9 ff ff 	lea    -0x63f(%rip),%rax        # 6820 <_ZN44_$LT$$RF$T$u20$as$u20$core..fmt..Display$GT$3fmt17h262045c00756d9b4E>
    6e5f:	48 89 44 24 20       	mov    %rax,0x20(%rsp)
    6e64:	48 89 e0             	mov    %rsp,%rax
    6e67:	48 89 44 24 28       	mov    %rax,0x28(%rsp)
    6e6c:	48 8d 05 cd 24 00 00 	lea    0x24cd(%rip),%rax        # 9340 <_ZN68_$LT$std..thread..local..AccessError$u20$as$u20$core..fmt..Debug$GT$3fmt17hae34e16181521489E>
    6e73:	48 89 44 24 30       	mov    %rax,0x30(%rsp)
    6e78:	48 8d 05 89 61 22 00 	lea    0x226189(%rip),%rax        # 22d008 <anon.ff2dd124ec5e25f1c1e32fbc2f3b208a.5.llvm.9634770799887424769+0x30>
    6e7f:	48 89 44 24 38       	mov    %rax,0x38(%rsp)
    6e84:	48 c7 44 24 40 02 00 	movq   $0x2,0x40(%rsp)
    6e8b:	00 00 
    6e8d:	48 c7 44 24 48 00 00 	movq   $0x0,0x48(%rsp)
    6e94:	00 00 
    6e96:	48 8d 44 24 18       	lea    0x18(%rsp),%rax
    6e9b:	48 89 44 24 58       	mov    %rax,0x58(%rsp)
    6ea0:	48 c7 44 24 60 02 00 	movq   $0x2,0x60(%rsp)
    6ea7:	00 00 
    6ea9:	48 8d 35 78 61 22 00 	lea    0x226178(%rip),%rsi        # 22d028 <anon.ff2dd124ec5e25f1c1e32fbc2f3b208a.5.llvm.9634770799887424769+0x50>
    6eb0:	48 8d 7c 24 38       	lea    0x38(%rsp),%rdi
    6eb5:	ff 15 25 7e 22 00    	callq  *0x227e25(%rip)        # 22ece0 <_GLOBAL_OFFSET_TABLE_+0x250>
    6ebb:	0f 0b                	ud2    
    6ebd:	0f 1f 00             	nopl   (%rax)

0000000000006ec0 <_ZN4core6result13unwrap_failed17heaf7e244e3a9575fE>:
    6ec0:	41 56                	push   %r14
    6ec2:	53                   	push   %rbx
    6ec3:	48 83 ec 68          	sub    $0x68,%rsp
    6ec7:	48 89 d3             	mov    %rdx,%rbx
    6eca:	48 89 7c 24 08       	mov    %rdi,0x8(%rsp)
    6ecf:	48 89 74 24 10       	mov    %rsi,0x10(%rsp)
    6ed4:	48 8d 44 24 08       	lea    0x8(%rsp),%rax
    6ed9:	48 89 44 24 18       	mov    %rax,0x18(%rsp)
    6ede:	48 8d 05 3b f9 ff ff 	lea    -0x6c5(%rip),%rax        # 6820 <_ZN44_$LT$$RF$T$u20$as$u20$core..fmt..Display$GT$3fmt17h262045c00756d9b4E>
    6ee5:	48 89 44 24 20       	mov    %rax,0x20(%rsp)
    6eea:	48 89 54 24 28       	mov    %rdx,0x28(%rsp)
    6eef:	48 8d 05 ea 54 00 00 	lea    0x54ea(%rip),%rax        # c3e0 <_ZN62_$LT$std..ffi..c_str..NulError$u20$as$u20$core..fmt..Debug$GT$3fmt17ha2f12e3ba037480aE>
    6ef6:	48 89 44 24 30       	mov    %rax,0x30(%rsp)
    6efb:	48 8d 05 06 61 22 00 	lea    0x226106(%rip),%rax        # 22d008 <anon.ff2dd124ec5e25f1c1e32fbc2f3b208a.5.llvm.9634770799887424769+0x30>
    6f02:	48 89 44 24 38       	mov    %rax,0x38(%rsp)
    6f07:	48 c7 44 24 40 02 00 	movq   $0x2,0x40(%rsp)
    6f0e:	00 00 
    6f10:	48 c7 44 24 48 00 00 	movq   $0x0,0x48(%rsp)
    6f17:	00 00 
    6f19:	48 8d 44 24 18       	lea    0x18(%rsp),%rax
    6f1e:	48 89 44 24 58       	mov    %rax,0x58(%rsp)
    6f23:	48 c7 44 24 60 02 00 	movq   $0x2,0x60(%rsp)
    6f2a:	00 00 
    6f2c:	48 8d 35 f5 60 22 00 	lea    0x2260f5(%rip),%rsi        # 22d028 <anon.ff2dd124ec5e25f1c1e32fbc2f3b208a.5.llvm.9634770799887424769+0x50>
    6f33:	48 8d 7c 24 38       	lea    0x38(%rsp),%rdi
    6f38:	ff 15 a2 7d 22 00    	callq  *0x227da2(%rip)        # 22ece0 <_GLOBAL_OFFSET_TABLE_+0x250>
    6f3e:	0f 0b                	ud2    
    6f40:	49 89 c6             	mov    %rax,%r14
    6f43:	48 89 df             	mov    %rbx,%rdi
    6f46:	e8 95 fb ff ff       	callq  6ae0 <_ZN4core3ptr18real_drop_in_place17h76993805732baf87E>
    6f4b:	4c 89 f7             	mov    %r14,%rdi
    6f4e:	e8 e5 f1 ff ff       	callq  6138 <_init+0xf0>
    6f53:	0f 0b                	ud2    
    6f55:	66 2e 0f 1f 84 00 00 	nopw   %cs:0x0(%rax,%rax,1)
    6f5c:	00 00 00 
    6f5f:	90                   	nop

0000000000006f60 <_ZN50_$LT$$RF$mut$u20$W$u20$as$u20$core..fmt..Write$GT$10write_char17ha25cfe339b00cdc7E>:
    6f60:	55                   	push   %rbp
    6f61:	53                   	push   %rbx
    6f62:	50                   	push   %rax
    6f63:	89 f5                	mov    %esi,%ebp
    6f65:	48 8b 1f             	mov    (%rdi),%rbx
    6f68:	81 fe 80 00 00 00    	cmp    $0x80,%esi
    6f6e:	73 39                	jae    6fa9 <_ZN50_$LT$$RF$mut$u20$W$u20$as$u20$core..fmt..Write$GT$10write_char17ha25cfe339b00cdc7E+0x49>
    6f70:	48 8b 73 10          	mov    0x10(%rbx),%rsi
    6f74:	48 3b 73 08          	cmp    0x8(%rbx),%rsi
    6f78:	75 1e                	jne    6f98 <_ZN50_$LT$$RF$mut$u20$W$u20$as$u20$core..fmt..Write$GT$10write_char17ha25cfe339b00cdc7E+0x38>
    6f7a:	ba 01 00 00 00       	mov    $0x1,%edx
    6f7f:	48 89 df             	mov    %rbx,%rdi
    6f82:	b9 01 00 00 00       	mov    $0x1,%ecx
    6f87:	e8 f4 4f 00 00       	callq  bf80 <_ZN49_$LT$alloc..raw_vec..RawVec$LT$T$C$$u20$A$GT$$GT$16reserve_internal17he59e5d1fed30e2e2E.llvm.9576729369901318767>
    6f8c:	3c 02                	cmp    $0x2,%al
    6f8e:	0f 85 ed 00 00 00    	jne    7081 <_ZN50_$LT$$RF$mut$u20$W$u20$as$u20$core..fmt..Write$GT$10write_char17ha25cfe339b00cdc7E+0x121>
    6f94:	48 8b 73 10          	mov    0x10(%rbx),%rsi
    6f98:	48 8b 03             	mov    (%rbx),%rax
    6f9b:	40 88 2c 30          	mov    %bpl,(%rax,%rsi,1)
    6f9f:	48 83 43 10 01       	addq   $0x1,0x10(%rbx)
    6fa4:	e9 cf 00 00 00       	jmpq   7078 <_ZN50_$LT$$RF$mut$u20$W$u20$as$u20$core..fmt..Write$GT$10write_char17ha25cfe339b00cdc7E+0x118>
    6fa9:	c7 44 24 04 00 00 00 	movl   $0x0,0x4(%rsp)
    6fb0:	00 
    6fb1:	89 e8                	mov    %ebp,%eax
    6fb3:	81 fd 00 08 00 00    	cmp    $0x800,%ebp
    6fb9:	73 1f                	jae    6fda <_ZN50_$LT$$RF$mut$u20$W$u20$as$u20$core..fmt..Write$GT$10write_char17ha25cfe339b00cdc7E+0x7a>
    6fbb:	c1 e8 06             	shr    $0x6,%eax
    6fbe:	24 1f                	and    $0x1f,%al
    6fc0:	0c c0                	or     $0xc0,%al
    6fc2:	88 44 24 04          	mov    %al,0x4(%rsp)
    6fc6:	40 80 e5 3f          	and    $0x3f,%bpl
    6fca:	40 80 cd 80          	or     $0x80,%bpl
    6fce:	40 88 6c 24 05       	mov    %bpl,0x5(%rsp)
    6fd3:	bd 02 00 00 00       	mov    $0x2,%ebp
    6fd8:	eb 69                	jmp    7043 <_ZN50_$LT$$RF$mut$u20$W$u20$as$u20$core..fmt..Write$GT$10write_char17ha25cfe339b00cdc7E+0xe3>
    6fda:	81 fd ff ff 00 00    	cmp    $0xffff,%ebp
    6fe0:	77 2c                	ja     700e <_ZN50_$LT$$RF$mut$u20$W$u20$as$u20$core..fmt..Write$GT$10write_char17ha25cfe339b00cdc7E+0xae>
    6fe2:	c1 e8 0c             	shr    $0xc,%eax
    6fe5:	24 0f                	and    $0xf,%al
    6fe7:	0c e0                	or     $0xe0,%al
    6fe9:	88 44 24 04          	mov    %al,0x4(%rsp)
    6fed:	89 e8                	mov    %ebp,%eax
    6fef:	c1 e8 06             	shr    $0x6,%eax
    6ff2:	24 3f                	and    $0x3f,%al
    6ff4:	0c 80                	or     $0x80,%al
    6ff6:	88 44 24 05          	mov    %al,0x5(%rsp)
    6ffa:	40 80 e5 3f          	and    $0x3f,%bpl
    6ffe:	40 80 cd 80          	or     $0x80,%bpl
    7002:	40 88 6c 24 06       	mov    %bpl,0x6(%rsp)
    7007:	bd 03 00 00 00       	mov    $0x3,%ebp
    700c:	eb 35                	jmp    7043 <_ZN50_$LT$$RF$mut$u20$W$u20$as$u20$core..fmt..Write$GT$10write_char17ha25cfe339b00cdc7E+0xe3>
    700e:	c1 e8 12             	shr    $0x12,%eax
    7011:	0c f0                	or     $0xf0,%al
    7013:	88 44 24 04          	mov    %al,0x4(%rsp)
    7017:	89 e8                	mov    %ebp,%eax
    7019:	c1 e8 0c             	shr    $0xc,%eax
    701c:	24 3f                	and    $0x3f,%al
    701e:	0c 80                	or     $0x80,%al
    7020:	88 44 24 05          	mov    %al,0x5(%rsp)
    7024:	89 e8                	mov    %ebp,%eax
    7026:	c1 e8 06             	shr    $0x6,%eax
    7029:	24 3f                	and    $0x3f,%al
    702b:	0c 80                	or     $0x80,%al
    702d:	88 44 24 06          	mov    %al,0x6(%rsp)
    7031:	40 80 e5 3f          	and    $0x3f,%bpl
    7035:	40 80 cd 80          	or     $0x80,%bpl
    7039:	40 88 6c 24 07       	mov    %bpl,0x7(%rsp)
    703e:	bd 04 00 00 00       	mov    $0x4,%ebp
    7043:	48 8b 73 10          	mov    0x10(%rbx),%rsi
    7047:	48 89 df             	mov    %rbx,%rdi
    704a:	48 89 ea             	mov    %rbp,%rdx
    704d:	b9 01 00 00 00       	mov    $0x1,%ecx
    7052:	e8 29 4f 00 00       	callq  bf80 <_ZN49_$LT$alloc..raw_vec..RawVec$LT$T$C$$u20$A$GT$$GT$16reserve_internal17he59e5d1fed30e2e2E.llvm.9576729369901318767>
    7057:	3c 02                	cmp    $0x2,%al
    7059:	75 26                	jne    7081 <_ZN50_$LT$$RF$mut$u20$W$u20$as$u20$core..fmt..Write$GT$10write_char17ha25cfe339b00cdc7E+0x121>
    705b:	48 8b 7b 10          	mov    0x10(%rbx),%rdi
    705f:	48 8d 04 2f          	lea    (%rdi,%rbp,1),%rax
    7063:	48 89 43 10          	mov    %rax,0x10(%rbx)
    7067:	48 03 3b             	add    (%rbx),%rdi
    706a:	48 8d 74 24 04       	lea    0x4(%rsp),%rsi
    706f:	48 89 ea             	mov    %rbp,%rdx
    7072:	ff 15 58 7d 22 00    	callq  *0x227d58(%rip)        # 22edd0 <_GLOBAL_OFFSET_TABLE_+0x340>
    7078:	31 c0                	xor    %eax,%eax
    707a:	48 83 c4 08          	add    $0x8,%rsp
    707e:	5b                   	pop    %rbx
    707f:	5d                   	pop    %rbp
    7080:	c3                   	retq   
    7081:	a8 01                	test   $0x1,%al
    7083:	75 08                	jne    708d <_ZN50_$LT$$RF$mut$u20$W$u20$as$u20$core..fmt..Write$GT$10write_char17ha25cfe339b00cdc7E+0x12d>
    7085:	ff 15 45 7c 22 00    	callq  *0x227c45(%rip)        # 22ecd0 <_GLOBAL_OFFSET_TABLE_+0x240>
    708b:	0f 0b                	ud2    
    708d:	48 8d 3d a4 63 22 00 	lea    0x2263a4(%rip),%rdi        # 22d438 <anon.b162a46f5f2358d27c8857f2f13f63d3.5.llvm.9576729369901318767>
    7094:	ff 15 0e 7c 22 00    	callq  *0x227c0e(%rip)        # 22eca8 <_GLOBAL_OFFSET_TABLE_+0x218>
    709a:	0f 0b                	ud2    
    709c:	0f 1f 40 00          	nopl   0x0(%rax)

00000000000070a0 <_ZN50_$LT$$RF$mut$u20$W$u20$as$u20$core..fmt..Write$GT$9write_fmt17h9af83759b3d4ad1dE>:
    70a0:	48 83 ec 48          	sub    $0x48,%rsp
    70a4:	48 8b 07             	mov    (%rdi),%rax
    70a7:	48 89 44 24 08       	mov    %rax,0x8(%rsp)
    70ac:	0f 10 06             	movups (%rsi),%xmm0
    70af:	0f 10 4e 10          	movups 0x10(%rsi),%xmm1
    70b3:	0f 10 56 20          	movups 0x20(%rsi),%xmm2
    70b7:	0f 29 54 24 30       	movaps %xmm2,0x30(%rsp)
    70bc:	0f 29 4c 24 20       	movaps %xmm1,0x20(%rsp)
    70c1:	0f 29 44 24 10       	movaps %xmm0,0x10(%rsp)
    70c6:	48 8d 35 0b 5f 22 00 	lea    0x225f0b(%rip),%rsi        # 22cfd8 <anon.ff2dd124ec5e25f1c1e32fbc2f3b208a.5.llvm.9634770799887424769>
    70cd:	48 8d 7c 24 08       	lea    0x8(%rsp),%rdi
    70d2:	48 8d 54 24 10       	lea    0x10(%rsp),%rdx
    70d7:	ff 15 cb 79 22 00    	callq  *0x2279cb(%rip)        # 22eaa8 <_GLOBAL_OFFSET_TABLE_+0x18>
    70dd:	48 83 c4 48          	add    $0x48,%rsp
    70e1:	c3                   	retq   
    70e2:	66 2e 0f 1f 84 00 00 	nopw   %cs:0x0(%rax,%rax,1)
    70e9:	00 00 00 
    70ec:	0f 1f 40 00          	nopl   0x0(%rax)

00000000000070f0 <_ZN50_$LT$$RF$mut$u20$W$u20$as$u20$core..fmt..Write$GT$9write_str17hfac7cc773686c8f9E>:
    70f0:	41 57                	push   %r15
    70f2:	41 56                	push   %r14
    70f4:	53                   	push   %rbx
    70f5:	49 89 d7             	mov    %rdx,%r15
    70f8:	49 89 f6             	mov    %rsi,%r14
    70fb:	48 8b 1f             	mov    (%rdi),%rbx
    70fe:	48 8b 73 10          	mov    0x10(%rbx),%rsi
    7102:	48 89 df             	mov    %rbx,%rdi
    7105:	b9 01 00 00 00       	mov    $0x1,%ecx
    710a:	e8 71 4e 00 00       	callq  bf80 <_ZN49_$LT$alloc..raw_vec..RawVec$LT$T$C$$u20$A$GT$$GT$16reserve_internal17he59e5d1fed30e2e2E.llvm.9576729369901318767>
    710f:	3c 02                	cmp    $0x2,%al
    7111:	75 23                	jne    7136 <_ZN50_$LT$$RF$mut$u20$W$u20$as$u20$core..fmt..Write$GT$9write_str17hfac7cc773686c8f9E+0x46>
    7113:	48 8b 7b 10          	mov    0x10(%rbx),%rdi
    7117:	4a 8d 04 3f          	lea    (%rdi,%r15,1),%rax
    711b:	48 89 43 10          	mov    %rax,0x10(%rbx)
    711f:	48 03 3b             	add    (%rbx),%rdi
    7122:	4c 89 f6             	mov    %r14,%rsi
    7125:	4c 89 fa             	mov    %r15,%rdx
    7128:	ff 15 a2 7c 22 00    	callq  *0x227ca2(%rip)        # 22edd0 <_GLOBAL_OFFSET_TABLE_+0x340>
    712e:	31 c0                	xor    %eax,%eax
    7130:	5b                   	pop    %rbx
    7131:	41 5e                	pop    %r14
    7133:	41 5f                	pop    %r15
    7135:	c3                   	retq   
    7136:	a8 01                	test   $0x1,%al
    7138:	75 08                	jne    7142 <_ZN50_$LT$$RF$mut$u20$W$u20$as$u20$core..fmt..Write$GT$9write_str17hfac7cc773686c8f9E+0x52>
    713a:	ff 15 90 7b 22 00    	callq  *0x227b90(%rip)        # 22ecd0 <_GLOBAL_OFFSET_TABLE_+0x240>
    7140:	0f 0b                	ud2    
    7142:	48 8d 3d ef 62 22 00 	lea    0x2262ef(%rip),%rdi        # 22d438 <anon.b162a46f5f2358d27c8857f2f13f63d3.5.llvm.9576729369901318767>
    7149:	ff 15 59 7b 22 00    	callq  *0x227b59(%rip)        # 22eca8 <_GLOBAL_OFFSET_TABLE_+0x218>
    714f:	0f 0b                	ud2    
    7151:	66 2e 0f 1f 84 00 00 	nopw   %cs:0x0(%rax,%rax,1)
    7158:	00 00 00 
    715b:	0f 1f 44 00 00       	nopl   0x0(%rax,%rax,1)

0000000000007160 <_ZN52_$LT$$BP$const$u20$T$u20$as$u20$core..fmt..Debug$GT$3fmt17hb4a5888d631f357cE>:
    7160:	55                   	push   %rbp
    7161:	41 57                	push   %r15
    7163:	41 56                	push   %r14
    7165:	41 54                	push   %r12
    7167:	53                   	push   %rbx
    7168:	48 83 ec 10          	sub    $0x10,%rsp
    716c:	48 89 f3             	mov    %rsi,%rbx
    716f:	49 89 fe             	mov    %rdi,%r14
    7172:	4c 8b 3e             	mov    (%rsi),%r15
    7175:	4c 8b 66 08          	mov    0x8(%rsi),%r12
    7179:	8b 6e 50             	mov    0x50(%rsi),%ebp
    717c:	48 89 f7             	mov    %rsi,%rdi
    717f:	ff 15 ab 79 22 00    	callq  *0x2279ab(%rip)        # 22eb30 <_GLOBAL_OFFSET_TABLE_+0xa0>
    7185:	8b 4b 50             	mov    0x50(%rbx),%ecx
    7188:	84 c0                	test   %al,%al
    718a:	74 1b                	je     71a7 <_ZN52_$LT$$BP$const$u20$T$u20$as$u20$core..fmt..Debug$GT$3fmt17hb4a5888d631f357cE+0x47>
    718c:	83 c9 08             	or     $0x8,%ecx
    718f:	89 4b 50             	mov    %ecx,0x50(%rbx)
    7192:	48 83 3b 00          	cmpq   $0x0,(%rbx)
    7196:	75 0f                	jne    71a7 <_ZN52_$LT$$BP$const$u20$T$u20$as$u20$core..fmt..Debug$GT$3fmt17hb4a5888d631f357cE+0x47>
    7198:	48 c7 43 08 12 00 00 	movq   $0x12,0x8(%rbx)
    719f:	00 
    71a0:	48 c7 03 01 00 00 00 	movq   $0x1,(%rbx)
    71a7:	83 c9 04             	or     $0x4,%ecx
    71aa:	89 4b 50             	mov    %ecx,0x50(%rbx)
    71ad:	49 8b 06             	mov    (%r14),%rax
    71b0:	48 89 44 24 08       	mov    %rax,0x8(%rsp)
    71b5:	48 8d 7c 24 08       	lea    0x8(%rsp),%rdi
    71ba:	48 89 de             	mov    %rbx,%rsi
    71bd:	ff 15 85 7d 22 00    	callq  *0x227d85(%rip)        # 22ef48 <_GLOBAL_OFFSET_TABLE_+0x4b8>
    71c3:	4c 89 3b             	mov    %r15,(%rbx)
    71c6:	4c 89 63 08          	mov    %r12,0x8(%rbx)
    71ca:	89 6b 50             	mov    %ebp,0x50(%rbx)
    71cd:	48 83 c4 10          	add    $0x10,%rsp
    71d1:	5b                   	pop    %rbx
    71d2:	41 5c                	pop    %r12
    71d4:	41 5e                	pop    %r14
    71d6:	41 5f                	pop    %r15
    71d8:	5d                   	pop    %rbp
    71d9:	c3                   	retq   
    71da:	66 0f 1f 44 00 00    	nopw   0x0(%rax,%rax,1)

00000000000071e0 <_ZN5alloc5alloc8box_free17hd88e60c97e400217E.llvm.9634770799887424769>:
    71e0:	be 18 00 00 00       	mov    $0x18,%esi
    71e5:	ba 08 00 00 00       	mov    $0x8,%edx
    71ea:	ff 25 88 7a 22 00    	jmpq   *0x227a88(%rip)        # 22ec78 <_GLOBAL_OFFSET_TABLE_+0x1e8>

00000000000071f0 <_ZN5alloc5alloc8box_free17habb2f4e088dcf1b4E.llvm.9634770799887424769>:
    71f0:	48 89 f0             	mov    %rsi,%rax
    71f3:	48 8b 76 08          	mov    0x8(%rsi),%rsi
    71f7:	48 85 f6             	test   %rsi,%rsi
    71fa:	74 0a                	je     7206 <_ZN5alloc5alloc8box_free17habb2f4e088dcf1b4E.llvm.9634770799887424769+0x16>
    71fc:	48 8b 50 10          	mov    0x10(%rax),%rdx
    7200:	ff 25 72 7a 22 00    	jmpq   *0x227a72(%rip)        # 22ec78 <_GLOBAL_OFFSET_TABLE_+0x1e8>
    7206:	c3                   	retq   
    7207:	66 0f 1f 84 00 00 00 	nopw   0x0(%rax,%rax,1)
    720e:	00 00 

0000000000007210 <_ZN5alloc5slice64_$LT$impl$u20$alloc..borrow..ToOwned$u20$for$u20$$u5b$T$u5d$$GT$8to_owned17h0e6de4f3115e94f5E>:
    7210:	41 57                	push   %r15
    7212:	41 56                	push   %r14
    7214:	53                   	push   %rbx
    7215:	48 83 ec 20          	sub    $0x20,%rsp
    7219:	48 89 d3             	mov    %rdx,%rbx
    721c:	49 89 f7             	mov    %rsi,%r15
    721f:	49 89 fe             	mov    %rdi,%r14
    7222:	48 85 d2             	test   %rdx,%rdx
    7225:	74 23                	je     724a <_ZN5alloc5slice64_$LT$impl$u20$alloc..borrow..ToOwned$u20$for$u20$$u5b$T$u5d$$GT$8to_owned17h0e6de4f3115e94f5E+0x3a>
    7227:	be 01 00 00 00       	mov    $0x1,%esi
    722c:	48 89 df             	mov    %rbx,%rdi
    722f:	ff 15 d3 79 22 00    	callq  *0x2279d3(%rip)        # 22ec08 <_GLOBAL_OFFSET_TABLE_+0x178>
    7235:	48 85 c0             	test   %rax,%rax
    7238:	75 15                	jne    724f <_ZN5alloc5slice64_$LT$impl$u20$alloc..borrow..ToOwned$u20$for$u20$$u5b$T$u5d$$GT$8to_owned17h0e6de4f3115e94f5E+0x3f>
    723a:	be 01 00 00 00       	mov    $0x1,%esi
    723f:	48 89 df             	mov    %rbx,%rdi
    7242:	ff 15 e8 7c 22 00    	callq  *0x227ce8(%rip)        # 22ef30 <_GLOBAL_OFFSET_TABLE_+0x4a0>
    7248:	0f 0b                	ud2    
    724a:	b8 01 00 00 00       	mov    $0x1,%eax
    724f:	48 89 44 24 08       	mov    %rax,0x8(%rsp)
    7254:	48 89 5c 24 10       	mov    %rbx,0x10(%rsp)
    7259:	48 c7 44 24 18 00 00 	movq   $0x0,0x18(%rsp)
    7260:	00 00 
    7262:	48 8d 7c 24 08       	lea    0x8(%rsp),%rdi
    7267:	31 f6                	xor    %esi,%esi
    7269:	48 89 da             	mov    %rbx,%rdx
    726c:	b9 01 00 00 00       	mov    $0x1,%ecx
    7271:	e8 0a 4d 00 00       	callq  bf80 <_ZN49_$LT$alloc..raw_vec..RawVec$LT$T$C$$u20$A$GT$$GT$16reserve_internal17he59e5d1fed30e2e2E.llvm.9576729369901318767>
    7276:	3c 02                	cmp    $0x2,%al
    7278:	75 3e                	jne    72b8 <_ZN5alloc5slice64_$LT$impl$u20$alloc..borrow..ToOwned$u20$for$u20$$u5b$T$u5d$$GT$8to_owned17h0e6de4f3115e94f5E+0xa8>
    727a:	48 8b 7c 24 18       	mov    0x18(%rsp),%rdi
    727f:	48 8d 04 1f          	lea    (%rdi,%rbx,1),%rax
    7283:	48 89 44 24 18       	mov    %rax,0x18(%rsp)
    7288:	48 03 7c 24 08       	add    0x8(%rsp),%rdi
    728d:	4c 89 fe             	mov    %r15,%rsi
    7290:	48 89 da             	mov    %rbx,%rdx
    7293:	ff 15 37 7b 22 00    	callq  *0x227b37(%rip)        # 22edd0 <_GLOBAL_OFFSET_TABLE_+0x340>
    7299:	0f 10 44 24 08       	movups 0x8(%rsp),%xmm0
    729e:	41 0f 11 06          	movups %xmm0,(%r14)
    72a2:	48 8b 44 24 18       	mov    0x18(%rsp),%rax
    72a7:	49 89 46 10          	mov    %rax,0x10(%r14)
    72ab:	4c 89 f0             	mov    %r14,%rax
    72ae:	48 83 c4 20          	add    $0x20,%rsp
    72b2:	5b                   	pop    %rbx
    72b3:	41 5e                	pop    %r14
    72b5:	41 5f                	pop    %r15
    72b7:	c3                   	retq   
    72b8:	a8 01                	test   $0x1,%al
    72ba:	75 08                	jne    72c4 <_ZN5alloc5slice64_$LT$impl$u20$alloc..borrow..ToOwned$u20$for$u20$$u5b$T$u5d$$GT$8to_owned17h0e6de4f3115e94f5E+0xb4>
    72bc:	ff 15 0e 7a 22 00    	callq  *0x227a0e(%rip)        # 22ecd0 <_GLOBAL_OFFSET_TABLE_+0x240>
    72c2:	eb 0d                	jmp    72d1 <_ZN5alloc5slice64_$LT$impl$u20$alloc..borrow..ToOwned$u20$for$u20$$u5b$T$u5d$$GT$8to_owned17h0e6de4f3115e94f5E+0xc1>
    72c4:	48 8d 3d 6d 61 22 00 	lea    0x22616d(%rip),%rdi        # 22d438 <anon.b162a46f5f2358d27c8857f2f13f63d3.5.llvm.9576729369901318767>
    72cb:	ff 15 d7 79 22 00    	callq  *0x2279d7(%rip)        # 22eca8 <_GLOBAL_OFFSET_TABLE_+0x218>
    72d1:	0f 0b                	ud2    
    72d3:	48 89 c3             	mov    %rax,%rbx
    72d6:	48 8d 7c 24 08       	lea    0x8(%rsp),%rdi
    72db:	e8 e0 f7 ff ff       	callq  6ac0 <_ZN4core3ptr18real_drop_in_place17h70005d6db3a49856E.llvm.9634770799887424769>
    72e0:	48 89 df             	mov    %rbx,%rdi
    72e3:	e8 50 ee ff ff       	callq  6138 <_init+0xf0>
    72e8:	0f 0b                	ud2    
    72ea:	66 0f 1f 44 00 00    	nopw   0x0(%rax,%rax,1)

00000000000072f0 <_ZN46_$LT$std..io..buffered..BufWriter$LT$W$GT$$GT$9flush_buf17h63aa1d1c59571033E.llvm.9634770799887424769>:
    72f0:	55                   	push   %rbp
    72f1:	41 57                	push   %r15
    72f3:	41 56                	push   %r14
    72f5:	41 55                	push   %r13
    72f7:	41 54                	push   %r12
    72f9:	53                   	push   %rbx
    72fa:	48 83 ec 38          	sub    $0x38,%rsp
    72fe:	49 89 fe             	mov    %rdi,%r14
    7301:	4c 8b 66 10          	mov    0x10(%rsi),%r12
    7305:	c6 04 24 03          	movb   $0x3,(%rsp)
    7309:	4d 85 e4             	test   %r12,%r12
    730c:	0f 84 3c 01 00 00    	je     744e <_ZN46_$LT$std..io..buffered..BufWriter$LT$W$GT$$GT$9flush_buf17h63aa1d1c59571033E.llvm.9634770799887424769+0x15e>
    7312:	48 89 f3             	mov    %rsi,%rbx
    7315:	48 bd ff ff ff ff ff 	movabs $0x7fffffffffffffff,%rbp
    731c:	ff ff 7f 
    731f:	45 31 ff             	xor    %r15d,%r15d
    7322:	66 2e 0f 1f 84 00 00 	nopw   %cs:0x0(%rax,%rax,1)
    7329:	00 00 00 
    732c:	0f 1f 40 00          	nopl   0x0(%rax)
    7330:	c6 43 19 01          	movb   $0x1,0x19(%rbx)
    7334:	0f b6 43 18          	movzbl 0x18(%rbx),%eax
    7338:	3c 02                	cmp    $0x2,%al
    733a:	0f 84 49 01 00 00    	je     7489 <_ZN46_$LT$std..io..buffered..BufWriter$LT$W$GT$$GT$9flush_buf17h63aa1d1c59571033E.llvm.9634770799887424769+0x199>
    7340:	48 8b 73 10          	mov    0x10(%rbx),%rsi
    7344:	49 89 f5             	mov    %rsi,%r13
    7347:	4d 29 fd             	sub    %r15,%r13
    734a:	0f 82 48 01 00 00    	jb     7498 <_ZN46_$LT$std..io..buffered..BufWriter$LT$W$GT$$GT$9flush_buf17h63aa1d1c59571033E.llvm.9634770799887424769+0x1a8>
    7350:	3c 01                	cmp    $0x1,%al
    7352:	75 1c                	jne    7370 <_ZN46_$LT$std..io..buffered..BufWriter$LT$W$GT$$GT$9flush_buf17h63aa1d1c59571033E.llvm.9634770799887424769+0x80>
    7354:	4c 89 6c 24 18       	mov    %r13,0x18(%rsp)
    7359:	48 c7 44 24 10 00 00 	movq   $0x0,0x10(%rsp)
    7360:	00 00 
    7362:	eb 3e                	jmp    73a2 <_ZN46_$LT$std..io..buffered..BufWriter$LT$W$GT$$GT$9flush_buf17h63aa1d1c59571033E.llvm.9634770799887424769+0xb2>
    7364:	66 2e 0f 1f 84 00 00 	nopw   %cs:0x0(%rax,%rax,1)
    736b:	00 00 00 
    736e:	66 90                	xchg   %ax,%ax
    7370:	48 8b 33             	mov    (%rbx),%rsi
    7373:	4c 01 fe             	add    %r15,%rsi
    7376:	49 39 ed             	cmp    %rbp,%r13
    7379:	48 89 ea             	mov    %rbp,%rdx
    737c:	49 0f 42 d5          	cmovb  %r13,%rdx
    7380:	bf 01 00 00 00       	mov    $0x1,%edi
    7385:	ff 15 05 78 22 00    	callq  *0x227805(%rip)        # 22eb90 <_GLOBAL_OFFSET_TABLE_+0x100>
    738b:	48 83 f8 ff          	cmp    $0xffffffffffffffff,%rax
    738f:	74 28                	je     73b9 <_ZN46_$LT$std..io..buffered..BufWriter$LT$W$GT$$GT$9flush_buf17h63aa1d1c59571033E.llvm.9634770799887424769+0xc9>
    7391:	48 c7 44 24 10 00 00 	movq   $0x0,0x10(%rsp)
    7398:	00 00 
    739a:	48 89 44 24 18       	mov    %rax,0x18(%rsp)
    739f:	49 89 c5             	mov    %rax,%r13
    73a2:	c6 43 19 00          	movb   $0x0,0x19(%rbx)
    73a6:	4d 85 ed             	test   %r13,%r13
    73a9:	74 51                	je     73fc <_ZN46_$LT$std..io..buffered..BufWriter$LT$W$GT$$GT$9flush_buf17h63aa1d1c59571033E.llvm.9634770799887424769+0x10c>
    73ab:	4d 01 ef             	add    %r13,%r15
    73ae:	4d 39 e7             	cmp    %r12,%r15
    73b1:	0f 82 79 ff ff ff    	jb     7330 <_ZN46_$LT$std..io..buffered..BufWriter$LT$W$GT$$GT$9flush_buf17h63aa1d1c59571033E.llvm.9634770799887424769+0x40>
    73b7:	eb 67                	jmp    7420 <_ZN46_$LT$std..io..buffered..BufWriter$LT$W$GT$$GT$9flush_buf17h63aa1d1c59571033E.llvm.9634770799887424769+0x130>
    73b9:	ff 15 61 77 22 00    	callq  *0x227761(%rip)        # 22eb20 <_GLOBAL_OFFSET_TABLE_+0x90>
    73bf:	8b 38                	mov    (%rax),%edi
    73c1:	48 83 ff 09          	cmp    $0x9,%rdi
    73c5:	74 8d                	je     7354 <_ZN46_$LT$std..io..buffered..BufWriter$LT$W$GT$$GT$9flush_buf17h63aa1d1c59571033E.llvm.9634770799887424769+0x64>
    73c7:	48 89 f8             	mov    %rdi,%rax
    73ca:	48 c1 e0 20          	shl    $0x20,%rax
    73ce:	48 c7 44 24 10 01 00 	movq   $0x1,0x10(%rsp)
    73d5:	00 00 
    73d7:	48 89 44 24 18       	mov    %rax,0x18(%rsp)
    73dc:	c6 43 19 00          	movb   $0x0,0x19(%rbx)
    73e0:	e8 5b 0b 00 00       	callq  7f40 <_ZN3std3sys4unix17decode_error_kind17h0a2b52578105e158E>
    73e5:	3c 0f                	cmp    $0xf,%al
    73e7:	74 c5                	je     73ae <_ZN46_$LT$std..io..buffered..BufWriter$LT$W$GT$$GT$9flush_buf17h63aa1d1c59571033E.llvm.9634770799887424769+0xbe>
    73e9:	48 8d 44 24 18       	lea    0x18(%rsp),%rax
    73ee:	0f 10 00             	movups (%rax),%xmm0
    73f1:	0f 29 04 24          	movaps %xmm0,(%rsp)
    73f5:	4d 85 ff             	test   %r15,%r15
    73f8:	75 2b                	jne    7425 <_ZN46_$LT$std..io..buffered..BufWriter$LT$W$GT$$GT$9flush_buf17h63aa1d1c59571033E.llvm.9634770799887424769+0x135>
    73fa:	eb 52                	jmp    744e <_ZN46_$LT$std..io..buffered..BufWriter$LT$W$GT$$GT$9flush_buf17h63aa1d1c59571033E.llvm.9634770799887424769+0x15e>
    73fc:	48 8d 15 40 b6 01 00 	lea    0x1b640(%rip),%rdx        # 22a43 <_fini+0x23f>
    7403:	48 8d 7c 24 28       	lea    0x28(%rsp),%rdi
    7408:	b9 21 00 00 00       	mov    $0x21,%ecx
    740d:	be 0e 00 00 00       	mov    $0xe,%esi
    7412:	e8 59 ac 00 00       	callq  12070 <_ZN3std2io5error5Error3new17ha4021fef73d1e5f6E>
    7417:	0f 10 44 24 28       	movups 0x28(%rsp),%xmm0
    741c:	0f 29 04 24          	movaps %xmm0,(%rsp)
    7420:	4d 85 ff             	test   %r15,%r15
    7423:	74 29                	je     744e <_ZN46_$LT$std..io..buffered..BufWriter$LT$W$GT$$GT$9flush_buf17h63aa1d1c59571033E.llvm.9634770799887424769+0x15e>
    7425:	4c 8b 63 10          	mov    0x10(%rbx),%r12
    7429:	4d 29 fc             	sub    %r15,%r12
    742c:	72 75                	jb     74a3 <_ZN46_$LT$std..io..buffered..BufWriter$LT$W$GT$$GT$9flush_buf17h63aa1d1c59571033E.llvm.9634770799887424769+0x1b3>
    742e:	48 c7 43 10 00 00 00 	movq   $0x0,0x10(%rbx)
    7435:	00 
    7436:	74 16                	je     744e <_ZN46_$LT$std..io..buffered..BufWriter$LT$W$GT$$GT$9flush_buf17h63aa1d1c59571033E.llvm.9634770799887424769+0x15e>
    7438:	48 8b 3b             	mov    (%rbx),%rdi
    743b:	49 01 ff             	add    %rdi,%r15
    743e:	4c 89 fe             	mov    %r15,%rsi
    7441:	4c 89 e2             	mov    %r12,%rdx
    7444:	ff 15 56 7a 22 00    	callq  *0x227a56(%rip)        # 22eea0 <_GLOBAL_OFFSET_TABLE_+0x410>
    744a:	4c 89 63 10          	mov    %r12,0x10(%rbx)
    744e:	8a 04 24             	mov    (%rsp),%al
    7451:	41 88 06             	mov    %al,(%r14)
    7454:	48 8b 44 24 01       	mov    0x1(%rsp),%rax
    7459:	49 89 46 01          	mov    %rax,0x1(%r14)
    745d:	8b 44 24 09          	mov    0x9(%rsp),%eax
    7461:	41 89 46 09          	mov    %eax,0x9(%r14)
    7465:	0f b7 44 24 0d       	movzwl 0xd(%rsp),%eax
    746a:	66 41 89 46 0d       	mov    %ax,0xd(%r14)
    746f:	8a 44 24 0f          	mov    0xf(%rsp),%al
    7473:	41 88 46 0f          	mov    %al,0xf(%r14)
    7477:	4c 89 f0             	mov    %r14,%rax
    747a:	48 83 c4 38          	add    $0x38,%rsp
    747e:	5b                   	pop    %rbx
    747f:	41 5c                	pop    %r12
    7481:	41 5d                	pop    %r13
    7483:	41 5e                	pop    %r14
    7485:	41 5f                	pop    %r15
    7487:	5d                   	pop    %rbp
    7488:	c3                   	retq   
    7489:	48 8d 3d 20 5b 22 00 	lea    0x225b20(%rip),%rdi        # 22cfb0 <anon.ff2dd124ec5e25f1c1e32fbc2f3b208a.2.llvm.9634770799887424769>
    7490:	ff 15 12 78 22 00    	callq  *0x227812(%rip)        # 22eca8 <_GLOBAL_OFFSET_TABLE_+0x218>
    7496:	eb 09                	jmp    74a1 <_ZN46_$LT$std..io..buffered..BufWriter$LT$W$GT$$GT$9flush_buf17h63aa1d1c59571033E.llvm.9634770799887424769+0x1b1>
    7498:	4c 89 ff             	mov    %r15,%rdi
    749b:	ff 15 9f 7a 22 00    	callq  *0x227a9f(%rip)        # 22ef40 <_GLOBAL_OFFSET_TABLE_+0x4b0>
    74a1:	0f 0b                	ud2    
    74a3:	48 8d 3d 2e 64 22 00 	lea    0x22642e(%rip),%rdi        # 22d8d8 <anon.d8be94b5c152b0adf4252738cd31682b.4.llvm.12046821098248573319>
    74aa:	ff 15 f8 77 22 00    	callq  *0x2277f8(%rip)        # 22eca8 <_GLOBAL_OFFSET_TABLE_+0x218>
    74b0:	eb ef                	jmp    74a1 <_ZN46_$LT$std..io..buffered..BufWriter$LT$W$GT$$GT$9flush_buf17h63aa1d1c59571033E.llvm.9634770799887424769+0x1b1>
    74b2:	48 89 c3             	mov    %rax,%rbx
    74b5:	eb 0d                	jmp    74c4 <_ZN46_$LT$std..io..buffered..BufWriter$LT$W$GT$$GT$9flush_buf17h63aa1d1c59571033E.llvm.9634770799887424769+0x1d4>
    74b7:	48 89 c3             	mov    %rax,%rbx
    74ba:	48 8d 7c 24 10       	lea    0x10(%rsp),%rdi
    74bf:	e8 3c f7 ff ff       	callq  6c00 <_ZN4core3ptr18real_drop_in_place17hacc9873e04d4ffe9E>
    74c4:	48 89 e7             	mov    %rsp,%rdi
    74c7:	e8 44 f7 ff ff       	callq  6c10 <_ZN4core3ptr18real_drop_in_place17hb1c70549fdd5687bE>
    74cc:	48 89 df             	mov    %rbx,%rdi
    74cf:	e8 64 ec ff ff       	callq  6138 <_init+0xf0>
    74d4:	0f 0b                	ud2    
    74d6:	66 2e 0f 1f 84 00 00 	nopw   %cs:0x0(%rax,%rax,1)
    74dd:	00 00 00 

00000000000074e0 <_ZN72_$LT$std..io..buffered..BufWriter$LT$W$GT$$u20$as$u20$std..io..Write$GT$5write17hf6ff94dc3cea9887E>:
    74e0:	41 57                	push   %r15
    74e2:	41 56                	push   %r14
    74e4:	41 54                	push   %r12
    74e6:	53                   	push   %rbx
    74e7:	48 83 ec 18          	sub    $0x18,%rsp
    74eb:	49 89 cf             	mov    %rcx,%r15
    74ee:	49 89 d4             	mov    %rdx,%r12
    74f1:	48 89 f3             	mov    %rsi,%rbx
    74f4:	49 89 fe             	mov    %rdi,%r14
    74f7:	48 8b 4e 10          	mov    0x10(%rsi),%rcx
    74fb:	4c 01 f9             	add    %r15,%rcx
    74fe:	48 8b 46 08          	mov    0x8(%rsi),%rax
    7502:	48 39 c1             	cmp    %rax,%rcx
    7505:	76 1c                	jbe    7523 <_ZN72_$LT$std..io..buffered..BufWriter$LT$W$GT$$u20$as$u20$std..io..Write$GT$5write17hf6ff94dc3cea9887E+0x43>
    7507:	48 8d 7c 24 08       	lea    0x8(%rsp),%rdi
    750c:	48 89 de             	mov    %rbx,%rsi
    750f:	e8 dc fd ff ff       	callq  72f0 <_ZN46_$LT$std..io..buffered..BufWriter$LT$W$GT$$GT$9flush_buf17h63aa1d1c59571033E.llvm.9634770799887424769>
    7514:	80 7c 24 08 03       	cmpb   $0x3,0x8(%rsp)
    7519:	0f 85 85 00 00 00    	jne    75a4 <_ZN72_$LT$std..io..buffered..BufWriter$LT$W$GT$$u20$as$u20$std..io..Write$GT$5write17hf6ff94dc3cea9887E+0xc4>
    751f:	48 8b 43 08          	mov    0x8(%rbx),%rax
    7523:	4c 39 f8             	cmp    %r15,%rax
    7526:	76 44                	jbe    756c <_ZN72_$LT$std..io..buffered..BufWriter$LT$W$GT$$u20$as$u20$std..io..Write$GT$5write17hf6ff94dc3cea9887E+0x8c>
    7528:	48 8b 73 10          	mov    0x10(%rbx),%rsi
    752c:	48 89 df             	mov    %rbx,%rdi
    752f:	4c 89 fa             	mov    %r15,%rdx
    7532:	b9 01 00 00 00       	mov    $0x1,%ecx
    7537:	e8 44 4a 00 00       	callq  bf80 <_ZN49_$LT$alloc..raw_vec..RawVec$LT$T$C$$u20$A$GT$$GT$16reserve_internal17he59e5d1fed30e2e2E.llvm.9576729369901318767>
    753c:	3c 02                	cmp    $0x2,%al
    753e:	0f 85 b9 00 00 00    	jne    75fd <_ZN72_$LT$std..io..buffered..BufWriter$LT$W$GT$$u20$as$u20$std..io..Write$GT$5write17hf6ff94dc3cea9887E+0x11d>
    7544:	48 8b 7b 10          	mov    0x10(%rbx),%rdi
    7548:	4a 8d 04 3f          	lea    (%rdi,%r15,1),%rax
    754c:	48 89 43 10          	mov    %rax,0x10(%rbx)
    7550:	48 03 3b             	add    (%rbx),%rdi
    7553:	4c 89 e6             	mov    %r12,%rsi
    7556:	4c 89 fa             	mov    %r15,%rdx
    7559:	ff 15 71 78 22 00    	callq  *0x227871(%rip)        # 22edd0 <_GLOBAL_OFFSET_TABLE_+0x340>
    755f:	4d 89 7e 08          	mov    %r15,0x8(%r14)
    7563:	49 c7 06 00 00 00 00 	movq   $0x0,(%r14)
    756a:	eb 73                	jmp    75df <_ZN72_$LT$std..io..buffered..BufWriter$LT$W$GT$$u20$as$u20$std..io..Write$GT$5write17hf6ff94dc3cea9887E+0xff>
    756c:	c6 43 19 01          	movb   $0x1,0x19(%rbx)
    7570:	8a 43 18             	mov    0x18(%rbx),%al
    7573:	3c 01                	cmp    $0x1,%al
    7575:	74 4d                	je     75c4 <_ZN72_$LT$std..io..buffered..BufWriter$LT$W$GT$$u20$as$u20$std..io..Write$GT$5write17hf6ff94dc3cea9887E+0xe4>
    7577:	3c 02                	cmp    $0x2,%al
    7579:	74 73                	je     75ee <_ZN72_$LT$std..io..buffered..BufWriter$LT$W$GT$$u20$as$u20$std..io..Write$GT$5write17hf6ff94dc3cea9887E+0x10e>
    757b:	48 ba ff ff ff ff ff 	movabs $0x7fffffffffffffff,%rdx
    7582:	ff ff 7f 
    7585:	49 39 d7             	cmp    %rdx,%r15
    7588:	49 0f 42 d7          	cmovb  %r15,%rdx
    758c:	bf 01 00 00 00       	mov    $0x1,%edi
    7591:	4c 89 e6             	mov    %r12,%rsi
    7594:	ff 15 f6 75 22 00    	callq  *0x2275f6(%rip)        # 22eb90 <_GLOBAL_OFFSET_TABLE_+0x100>
    759a:	48 83 f8 ff          	cmp    $0xffffffffffffffff,%rax
    759e:	74 17                	je     75b7 <_ZN72_$LT$std..io..buffered..BufWriter$LT$W$GT$$u20$as$u20$std..io..Write$GT$5write17hf6ff94dc3cea9887E+0xd7>
    75a0:	31 c9                	xor    %ecx,%ecx
    75a2:	eb 2d                	jmp    75d1 <_ZN72_$LT$std..io..buffered..BufWriter$LT$W$GT$$u20$as$u20$std..io..Write$GT$5write17hf6ff94dc3cea9887E+0xf1>
    75a4:	0f 10 44 24 08       	movups 0x8(%rsp),%xmm0
    75a9:	41 0f 11 46 08       	movups %xmm0,0x8(%r14)
    75ae:	49 c7 06 01 00 00 00 	movq   $0x1,(%r14)
    75b5:	eb 28                	jmp    75df <_ZN72_$LT$std..io..buffered..BufWriter$LT$W$GT$$u20$as$u20$std..io..Write$GT$5write17hf6ff94dc3cea9887E+0xff>
    75b7:	ff 15 63 75 22 00    	callq  *0x227563(%rip)        # 22eb20 <_GLOBAL_OFFSET_TABLE_+0x90>
    75bd:	8b 00                	mov    (%rax),%eax
    75bf:	83 f8 09             	cmp    $0x9,%eax
    75c2:	75 04                	jne    75c8 <_ZN72_$LT$std..io..buffered..BufWriter$LT$W$GT$$u20$as$u20$std..io..Write$GT$5write17hf6ff94dc3cea9887E+0xe8>
    75c4:	31 c9                	xor    %ecx,%ecx
    75c6:	eb 0c                	jmp    75d4 <_ZN72_$LT$std..io..buffered..BufWriter$LT$W$GT$$u20$as$u20$std..io..Write$GT$5write17hf6ff94dc3cea9887E+0xf4>
    75c8:	48 c1 e0 20          	shl    $0x20,%rax
    75cc:	b9 01 00 00 00       	mov    $0x1,%ecx
    75d1:	49 89 c7             	mov    %rax,%r15
    75d4:	c6 43 19 00          	movb   $0x0,0x19(%rbx)
    75d8:	49 89 0e             	mov    %rcx,(%r14)
    75db:	4d 89 7e 08          	mov    %r15,0x8(%r14)
    75df:	4c 89 f0             	mov    %r14,%rax
    75e2:	48 83 c4 18          	add    $0x18,%rsp
    75e6:	5b                   	pop    %rbx
    75e7:	41 5c                	pop    %r12
    75e9:	41 5e                	pop    %r14
    75eb:	41 5f                	pop    %r15
    75ed:	c3                   	retq   
    75ee:	48 8d 3d bb 59 22 00 	lea    0x2259bb(%rip),%rdi        # 22cfb0 <anon.ff2dd124ec5e25f1c1e32fbc2f3b208a.2.llvm.9634770799887424769>
    75f5:	ff 15 ad 76 22 00    	callq  *0x2276ad(%rip)        # 22eca8 <_GLOBAL_OFFSET_TABLE_+0x218>
    75fb:	0f 0b                	ud2    
    75fd:	a8 01                	test   $0x1,%al
    75ff:	75 08                	jne    7609 <_ZN72_$LT$std..io..buffered..BufWriter$LT$W$GT$$u20$as$u20$std..io..Write$GT$5write17hf6ff94dc3cea9887E+0x129>
    7601:	ff 15 c9 76 22 00    	callq  *0x2276c9(%rip)        # 22ecd0 <_GLOBAL_OFFSET_TABLE_+0x240>
    7607:	0f 0b                	ud2    
    7609:	48 8d 3d 28 5e 22 00 	lea    0x225e28(%rip),%rdi        # 22d438 <anon.b162a46f5f2358d27c8857f2f13f63d3.5.llvm.9576729369901318767>
    7610:	ff 15 92 76 22 00    	callq  *0x227692(%rip)        # 22eca8 <_GLOBAL_OFFSET_TABLE_+0x218>
    7616:	0f 0b                	ud2    
    7618:	0f 1f 84 00 00 00 00 	nopl   0x0(%rax,%rax,1)
    761f:	00 

0000000000007620 <_ZN73_$LT$std..io..buffered..LineWriter$LT$W$GT$$u20$as$u20$std..io..Write$GT$5write17h6b181302de405c4aE>:
    7620:	55                   	push   %rbp
    7621:	41 57                	push   %r15
    7623:	41 56                	push   %r14
    7625:	41 55                	push   %r13
    7627:	41 54                	push   %r12
    7629:	53                   	push   %rbx
    762a:	48 83 ec 58          	sub    $0x58,%rsp
    762e:	49 89 cc             	mov    %rcx,%r12
    7631:	49 89 d7             	mov    %rdx,%r15
    7634:	48 89 f3             	mov    %rsi,%rbx
    7637:	49 89 fe             	mov    %rdi,%r14
    763a:	80 7e 20 00          	cmpb   $0x0,0x20(%rsi)
    763e:	74 24                	je     7664 <_ZN73_$LT$std..io..buffered..LineWriter$LT$W$GT$$u20$as$u20$std..io..Write$GT$5write17h6b181302de405c4aE+0x44>
    7640:	48 89 e7             	mov    %rsp,%rdi
    7643:	48 89 de             	mov    %rbx,%rsi
    7646:	e8 a5 fc ff ff       	callq  72f0 <_ZN46_$LT$std..io..buffered..BufWriter$LT$W$GT$$GT$9flush_buf17h63aa1d1c59571033E.llvm.9634770799887424769>
    764b:	8a 04 24             	mov    (%rsp),%al
    764e:	3c 03                	cmp    $0x3,%al
    7650:	0f 85 81 00 00 00    	jne    76d7 <_ZN73_$LT$std..io..buffered..LineWriter$LT$W$GT$$u20$as$u20$std..io..Write$GT$5write17h6b181302de405c4aE+0xb7>
    7656:	80 7b 18 02          	cmpb   $0x2,0x18(%rbx)
    765a:	0f 84 04 02 00 00    	je     7864 <_ZN73_$LT$std..io..buffered..LineWriter$LT$W$GT$$u20$as$u20$std..io..Write$GT$5write17h6b181302de405c4aE+0x244>
    7660:	c6 43 20 00          	movb   $0x0,0x20(%rbx)
    7664:	4d 85 e4             	test   %r12,%r12
    7667:	74 5b                	je     76c4 <_ZN73_$LT$std..io..buffered..LineWriter$LT$W$GT$$u20$as$u20$std..io..Write$GT$5write17h6b181302de405c4aE+0xa4>
    7669:	4c 89 ff             	mov    %r15,%rdi
    766c:	be 0a 00 00 00       	mov    $0xa,%esi
    7671:	4c 89 e2             	mov    %r12,%rdx
    7674:	ff 15 36 78 22 00    	callq  *0x227836(%rip)        # 22eeb0 <_GLOBAL_OFFSET_TABLE_+0x420>
    767a:	48 85 c0             	test   %rax,%rax
    767d:	74 45                	je     76c4 <_ZN73_$LT$std..io..buffered..LineWriter$LT$W$GT$$u20$as$u20$std..io..Write$GT$5write17h6b181302de405c4aE+0xa4>
    767f:	49 89 c5             	mov    %rax,%r13
    7682:	4d 29 fd             	sub    %r15,%r13
    7685:	49 83 fd ff          	cmp    $0xffffffffffffffff,%r13
    7689:	0f 84 e4 01 00 00    	je     7873 <_ZN73_$LT$std..io..buffered..LineWriter$LT$W$GT$$u20$as$u20$std..io..Write$GT$5write17h6b181302de405c4aE+0x253>
    768f:	49 83 c5 01          	add    $0x1,%r13
    7693:	4d 39 e5             	cmp    %r12,%r13
    7696:	0f 87 df 01 00 00    	ja     787b <_ZN73_$LT$std..io..buffered..LineWriter$LT$W$GT$$u20$as$u20$std..io..Write$GT$5write17h6b181302de405c4aE+0x25b>
    769c:	48 89 e7             	mov    %rsp,%rdi
    769f:	48 89 de             	mov    %rbx,%rsi
    76a2:	4c 89 fa             	mov    %r15,%rdx
    76a5:	4c 89 e9             	mov    %r13,%rcx
    76a8:	e8 33 fe ff ff       	callq  74e0 <_ZN72_$LT$std..io..buffered..BufWriter$LT$W$GT$$u20$as$u20$std..io..Write$GT$5write17hf6ff94dc3cea9887E>
    76ad:	48 83 3c 24 01       	cmpq   $0x1,(%rsp)
    76b2:	0f 85 9e 00 00 00    	jne    7756 <_ZN73_$LT$std..io..buffered..LineWriter$LT$W$GT$$u20$as$u20$std..io..Write$GT$5write17h6b181302de405c4aE+0x136>
    76b8:	0f 10 44 24 08       	movups 0x8(%rsp),%xmm0
    76bd:	41 0f 11 46 08       	movups %xmm0,0x8(%r14)
    76c2:	eb 79                	jmp    773d <_ZN73_$LT$std..io..buffered..LineWriter$LT$W$GT$$u20$as$u20$std..io..Write$GT$5write17h6b181302de405c4aE+0x11d>
    76c4:	4c 89 f7             	mov    %r14,%rdi
    76c7:	48 89 de             	mov    %rbx,%rsi
    76ca:	4c 89 fa             	mov    %r15,%rdx
    76cd:	4c 89 e1             	mov    %r12,%rcx
    76d0:	e8 0b fe ff ff       	callq  74e0 <_ZN72_$LT$std..io..buffered..BufWriter$LT$W$GT$$u20$as$u20$std..io..Write$GT$5write17hf6ff94dc3cea9887E>
    76d5:	eb 6d                	jmp    7744 <_ZN73_$LT$std..io..buffered..LineWriter$LT$W$GT$$u20$as$u20$std..io..Write$GT$5write17h6b181302de405c4aE+0x124>
    76d7:	48 8b 4c 24 01       	mov    0x1(%rsp),%rcx
    76dc:	48 8b 54 24 08       	mov    0x8(%rsp),%rdx
    76e1:	48 89 54 24 4f       	mov    %rdx,0x4f(%rsp)
    76e6:	48 89 4c 24 48       	mov    %rcx,0x48(%rsp)
    76eb:	48 8b 4c 24 48       	mov    0x48(%rsp),%rcx
    76f0:	48 8b 54 24 4f       	mov    0x4f(%rsp),%rdx
    76f5:	48 89 54 24 3f       	mov    %rdx,0x3f(%rsp)
    76fa:	48 89 4c 24 38       	mov    %rcx,0x38(%rsp)
    76ff:	48 8b 4c 24 38       	mov    0x38(%rsp),%rcx
    7704:	48 8b 54 24 3f       	mov    0x3f(%rsp),%rdx
    7709:	48 89 54 24 2f       	mov    %rdx,0x2f(%rsp)
    770e:	48 89 4c 24 28       	mov    %rcx,0x28(%rsp)
    7713:	48 8b 4c 24 28       	mov    0x28(%rsp),%rcx
    7718:	48 8b 54 24 2f       	mov    0x2f(%rsp),%rdx
    771d:	48 89 54 24 1f       	mov    %rdx,0x1f(%rsp)
    7722:	48 89 4c 24 18       	mov    %rcx,0x18(%rsp)
    7727:	41 88 46 08          	mov    %al,0x8(%r14)
    772b:	48 8b 44 24 18       	mov    0x18(%rsp),%rax
    7730:	48 8b 4c 24 1f       	mov    0x1f(%rsp),%rcx
    7735:	49 89 4e 10          	mov    %rcx,0x10(%r14)
    7739:	49 89 46 09          	mov    %rax,0x9(%r14)
    773d:	49 c7 06 01 00 00 00 	movq   $0x1,(%r14)
    7744:	4c 89 f0             	mov    %r14,%rax
    7747:	48 83 c4 58          	add    $0x58,%rsp
    774b:	5b                   	pop    %rbx
    774c:	41 5c                	pop    %r12
    774e:	41 5d                	pop    %r13
    7750:	41 5e                	pop    %r14
    7752:	41 5f                	pop    %r15
    7754:	5d                   	pop    %rbp
    7755:	c3                   	retq   
    7756:	48 8b 6c 24 08       	mov    0x8(%rsp),%rbp
    775b:	c6 43 20 01          	movb   $0x1,0x20(%rbx)
    775f:	48 89 e7             	mov    %rsp,%rdi
    7762:	48 89 de             	mov    %rbx,%rsi
    7765:	e8 86 fb ff ff       	callq  72f0 <_ZN46_$LT$std..io..buffered..BufWriter$LT$W$GT$$GT$9flush_buf17h63aa1d1c59571033E.llvm.9634770799887424769>
    776a:	8a 04 24             	mov    (%rsp),%al
    776d:	3c 03                	cmp    $0x3,%al
    776f:	0f 85 8b 00 00 00    	jne    7800 <_ZN73_$LT$std..io..buffered..LineWriter$LT$W$GT$$u20$as$u20$std..io..Write$GT$5write17h6b181302de405c4aE+0x1e0>
    7775:	80 7b 18 02          	cmpb   $0x2,0x18(%rbx)
    7779:	0f 84 e5 00 00 00    	je     7864 <_ZN73_$LT$std..io..buffered..LineWriter$LT$W$GT$$u20$as$u20$std..io..Write$GT$5write17h6b181302de405c4aE+0x244>
    777f:	c6 43 20 00          	movb   $0x0,0x20(%rbx)
    7783:	4c 39 ed             	cmp    %r13,%rbp
    7786:	0f 85 b3 00 00 00    	jne    783f <_ZN73_$LT$std..io..buffered..LineWriter$LT$W$GT$$u20$as$u20$std..io..Write$GT$5write17h6b181302de405c4aE+0x21f>
    778c:	4d 01 ef             	add    %r13,%r15
    778f:	4d 29 ec             	sub    %r13,%r12
    7792:	48 89 e7             	mov    %rsp,%rdi
    7795:	48 89 de             	mov    %rbx,%rsi
    7798:	4c 89 fa             	mov    %r15,%rdx
    779b:	4c 89 e1             	mov    %r12,%rcx
    779e:	e8 3d fd ff ff       	callq  74e0 <_ZN72_$LT$std..io..buffered..BufWriter$LT$W$GT$$u20$as$u20$std..io..Write$GT$5write17hf6ff94dc3cea9887E>
    77a3:	48 83 3c 24 01       	cmpq   $0x1,(%rsp)
    77a8:	0f 85 a1 00 00 00    	jne    784f <_ZN73_$LT$std..io..buffered..LineWriter$LT$W$GT$$u20$as$u20$std..io..Write$GT$5write17h6b181302de405c4aE+0x22f>
    77ae:	4d 89 6e 08          	mov    %r13,0x8(%r14)
    77b2:	49 c7 06 00 00 00 00 	movq   $0x0,(%r14)
    77b9:	80 7c 24 08 02       	cmpb   $0x2,0x8(%rsp)
    77be:	72 84                	jb     7744 <_ZN73_$LT$std..io..buffered..LineWriter$LT$W$GT$$u20$as$u20$std..io..Write$GT$5write17h6b181302de405c4aE+0x124>
    77c0:	48 8b 5c 24 10       	mov    0x10(%rsp),%rbx
    77c5:	48 8b 3b             	mov    (%rbx),%rdi
    77c8:	48 8b 43 08          	mov    0x8(%rbx),%rax
    77cc:	ff 10                	callq  *(%rax)
    77ce:	48 8b 43 08          	mov    0x8(%rbx),%rax
    77d2:	48 8b 70 08          	mov    0x8(%rax),%rsi
    77d6:	48 85 f6             	test   %rsi,%rsi
    77d9:	74 0d                	je     77e8 <_ZN73_$LT$std..io..buffered..LineWriter$LT$W$GT$$u20$as$u20$std..io..Write$GT$5write17h6b181302de405c4aE+0x1c8>
    77db:	48 8b 3b             	mov    (%rbx),%rdi
    77de:	48 8b 50 10          	mov    0x10(%rax),%rdx
    77e2:	ff 15 90 74 22 00    	callq  *0x227490(%rip)        # 22ec78 <_GLOBAL_OFFSET_TABLE_+0x1e8>
    77e8:	be 18 00 00 00       	mov    $0x18,%esi
    77ed:	ba 08 00 00 00       	mov    $0x8,%edx
    77f2:	48 89 df             	mov    %rbx,%rdi
    77f5:	ff 15 7d 74 22 00    	callq  *0x22747d(%rip)        # 22ec78 <_GLOBAL_OFFSET_TABLE_+0x1e8>
    77fb:	e9 44 ff ff ff       	jmpq   7744 <_ZN73_$LT$std..io..buffered..LineWriter$LT$W$GT$$u20$as$u20$std..io..Write$GT$5write17h6b181302de405c4aE+0x124>
    7800:	3c 02                	cmp    $0x2,%al
    7802:	72 3b                	jb     783f <_ZN73_$LT$std..io..buffered..LineWriter$LT$W$GT$$u20$as$u20$std..io..Write$GT$5write17h6b181302de405c4aE+0x21f>
    7804:	48 8b 5c 24 08       	mov    0x8(%rsp),%rbx
    7809:	48 8b 3b             	mov    (%rbx),%rdi
    780c:	48 8b 43 08          	mov    0x8(%rbx),%rax
    7810:	ff 10                	callq  *(%rax)
    7812:	48 8b 43 08          	mov    0x8(%rbx),%rax
    7816:	48 8b 70 08          	mov    0x8(%rax),%rsi
    781a:	48 85 f6             	test   %rsi,%rsi
    781d:	74 0d                	je     782c <_ZN73_$LT$std..io..buffered..LineWriter$LT$W$GT$$u20$as$u20$std..io..Write$GT$5write17h6b181302de405c4aE+0x20c>
    781f:	48 8b 3b             	mov    (%rbx),%rdi
    7822:	48 8b 50 10          	mov    0x10(%rax),%rdx
    7826:	ff 15 4c 74 22 00    	callq  *0x22744c(%rip)        # 22ec78 <_GLOBAL_OFFSET_TABLE_+0x1e8>
    782c:	be 18 00 00 00       	mov    $0x18,%esi
    7831:	ba 08 00 00 00       	mov    $0x8,%edx
    7836:	48 89 df             	mov    %rbx,%rdi
    7839:	ff 15 39 74 22 00    	callq  *0x227439(%rip)        # 22ec78 <_GLOBAL_OFFSET_TABLE_+0x1e8>
    783f:	49 89 6e 08          	mov    %rbp,0x8(%r14)
    7843:	49 c7 06 00 00 00 00 	movq   $0x0,(%r14)
    784a:	e9 f5 fe ff ff       	jmpq   7744 <_ZN73_$LT$std..io..buffered..LineWriter$LT$W$GT$$u20$as$u20$std..io..Write$GT$5write17h6b181302de405c4aE+0x124>
    784f:	4c 03 6c 24 08       	add    0x8(%rsp),%r13
    7854:	4d 89 6e 08          	mov    %r13,0x8(%r14)
    7858:	49 c7 06 00 00 00 00 	movq   $0x0,(%r14)
    785f:	e9 e0 fe ff ff       	jmpq   7744 <_ZN73_$LT$std..io..buffered..LineWriter$LT$W$GT$$u20$as$u20$std..io..Write$GT$5write17h6b181302de405c4aE+0x124>
    7864:	48 8d 3d 45 57 22 00 	lea    0x225745(%rip),%rdi        # 22cfb0 <anon.ff2dd124ec5e25f1c1e32fbc2f3b208a.2.llvm.9634770799887424769>
    786b:	ff 15 37 74 22 00    	callq  *0x227437(%rip)        # 22eca8 <_GLOBAL_OFFSET_TABLE_+0x218>
    7871:	0f 0b                	ud2    
    7873:	ff 15 4f 73 22 00    	callq  *0x22734f(%rip)        # 22ebc8 <_GLOBAL_OFFSET_TABLE_+0x138>
    7879:	0f 0b                	ud2    
    787b:	4c 89 ef             	mov    %r13,%rdi
    787e:	4c 89 e6             	mov    %r12,%rsi
    7881:	ff 15 39 77 22 00    	callq  *0x227739(%rip)        # 22efc0 <_GLOBAL_OFFSET_TABLE_+0x530>
    7887:	0f 0b                	ud2    
    7889:	eb 00                	jmp    788b <_ZN73_$LT$std..io..buffered..LineWriter$LT$W$GT$$u20$as$u20$std..io..Write$GT$5write17h6b181302de405c4aE+0x26b>
    788b:	49 89 c6             	mov    %rax,%r14
    788e:	48 8b 3b             	mov    (%rbx),%rdi
    7891:	48 8b 73 08          	mov    0x8(%rbx),%rsi
    7895:	e8 56 f9 ff ff       	callq  71f0 <_ZN5alloc5alloc8box_free17habb2f4e088dcf1b4E.llvm.9634770799887424769>
    789a:	48 89 df             	mov    %rbx,%rdi
    789d:	e8 3e f9 ff ff       	callq  71e0 <_ZN5alloc5alloc8box_free17hd88e60c97e400217E.llvm.9634770799887424769>
    78a2:	4c 89 f7             	mov    %r14,%rdi
    78a5:	e8 8e e8 ff ff       	callq  6138 <_init+0xf0>
    78aa:	0f 0b                	ud2    
    78ac:	0f 1f 40 00          	nopl   0x0(%rax)

00000000000078b0 <_ZN3std10sys_common11at_exit_imp7cleanup17h93c55723b3182e5dE>:
    78b0:	55                   	push   %rbp
    78b1:	41 57                	push   %r15
    78b3:	41 56                	push   %r14
    78b5:	41 55                	push   %r13
    78b7:	41 54                	push   %r12
    78b9:	53                   	push   %rbx
    78ba:	48 83 ec 28          	sub    $0x28,%rsp
    78be:	41 bf 01 00 00 00    	mov    $0x1,%r15d
    78c4:	48 8d 2d 6d 77 22 00 	lea    0x22776d(%rip),%rbp        # 22f038 <_ZN3std10sys_common11at_exit_imp4LOCK17hdac8e689002e84dcE.llvm.9634770799887424769>
    78cb:	4c 8b 35 fe 76 22 00 	mov    0x2276fe(%rip),%r14        # 22efd0 <_GLOBAL_OFFSET_TABLE_+0x540>
    78d2:	4c 8b 2d 37 75 22 00 	mov    0x227537(%rip),%r13        # 22ee10 <_GLOBAL_OFFSET_TABLE_+0x380>
    78d9:	0f 1f 80 00 00 00 00 	nopl   0x0(%rax)
    78e0:	49 83 ff 09          	cmp    $0x9,%r15
    78e4:	77 1a                	ja     7900 <_ZN3std10sys_common11at_exit_imp7cleanup17h93c55723b3182e5dE+0x50>
    78e6:	49 8d 5f 01          	lea    0x1(%r15),%rbx
    78ea:	48 89 ef             	mov    %rbp,%rdi
    78ed:	41 ff d6             	callq  *%r14
    78f0:	eb 2e                	jmp    7920 <_ZN3std10sys_common11at_exit_imp7cleanup17h93c55723b3182e5dE+0x70>
    78f2:	66 2e 0f 1f 84 00 00 	nopw   %cs:0x0(%rax,%rax,1)
    78f9:	00 00 00 
    78fc:	0f 1f 40 00          	nopl   0x0(%rax)
    7900:	48 89 ef             	mov    %rbp,%rdi
    7903:	41 ff d6             	callq  *%r14
    7906:	4c 89 fb             	mov    %r15,%rbx
    7909:	49 83 ff 0a          	cmp    $0xa,%r15
    790d:	75 11                	jne    7920 <_ZN3std10sys_common11at_exit_imp7cleanup17h93c55723b3182e5dE+0x70>
    790f:	b8 01 00 00 00       	mov    $0x1,%eax
    7914:	bb 0a 00 00 00       	mov    $0xa,%ebx
    7919:	eb 07                	jmp    7922 <_ZN3std10sys_common11at_exit_imp7cleanup17h93c55723b3182e5dE+0x72>
    791b:	0f 1f 44 00 00       	nopl   0x0(%rax,%rax,1)
    7920:	31 c0                	xor    %eax,%eax
    7922:	4c 8b 25 37 77 22 00 	mov    0x227737(%rip),%r12        # 22f060 <_ZN3std10sys_common11at_exit_imp5QUEUE17h9271f3f0f06d665bE.llvm.9634770799887424769>
    7929:	48 89 05 30 77 22 00 	mov    %rax,0x227730(%rip)        # 22f060 <_ZN3std10sys_common11at_exit_imp5QUEUE17h9271f3f0f06d665bE.llvm.9634770799887424769>
    7930:	48 89 ef             	mov    %rbp,%rdi
    7933:	41 ff d5             	callq  *%r13
    7936:	4d 85 e4             	test   %r12,%r12
    7939:	0f 84 ca 00 00 00    	je     7a09 <_ZN3std10sys_common11at_exit_imp7cleanup17h93c55723b3182e5dE+0x159>
    793f:	48 89 5c 24 20       	mov    %rbx,0x20(%rsp)
    7944:	49 83 fc 01          	cmp    $0x1,%r12
    7948:	0f 84 d7 00 00 00    	je     7a25 <_ZN3std10sys_common11at_exit_imp7cleanup17h93c55723b3182e5dE+0x175>
    794e:	41 0f 10 04 24       	movups (%r12),%xmm0
    7953:	0f 29 04 24          	movaps %xmm0,(%rsp)
    7957:	4d 8b 74 24 10       	mov    0x10(%r12),%r14
    795c:	4c 89 74 24 10       	mov    %r14,0x10(%rsp)
    7961:	4c 8b 2c 24          	mov    (%rsp),%r13
    7965:	48 8b 5c 24 08       	mov    0x8(%rsp),%rbx
    796a:	49 c1 e6 04          	shl    $0x4,%r14
    796e:	4b 8d 04 2e          	lea    (%r14,%r13,1),%rax
    7972:	4c 89 2c 24          	mov    %r13,(%rsp)
    7976:	48 89 5c 24 08       	mov    %rbx,0x8(%rsp)
    797b:	4c 89 6c 24 10       	mov    %r13,0x10(%rsp)
    7980:	48 89 44 24 18       	mov    %rax,0x18(%rsp)
    7985:	4c 89 e8             	mov    %r13,%rax
    7988:	0f 1f 84 00 00 00 00 	nopl   0x0(%rax,%rax,1)
    798f:	00 
    7990:	4d 85 f6             	test   %r14,%r14
    7993:	74 2b                	je     79c0 <_ZN3std10sys_common11at_exit_imp7cleanup17h93c55723b3182e5dE+0x110>
    7995:	48 8d 68 10          	lea    0x10(%rax),%rbp
    7999:	48 89 6c 24 10       	mov    %rbp,0x10(%rsp)
    799e:	48 8b 38             	mov    (%rax),%rdi
    79a1:	48 8b 40 08          	mov    0x8(%rax),%rax
    79a5:	49 83 c6 f0          	add    $0xfffffffffffffff0,%r14
    79a9:	ff 50 18             	callq  *0x18(%rax)
    79ac:	48 89 e8             	mov    %rbp,%rax
    79af:	eb df                	jmp    7990 <_ZN3std10sys_common11at_exit_imp7cleanup17h93c55723b3182e5dE+0xe0>
    79b1:	66 2e 0f 1f 84 00 00 	nopw   %cs:0x0(%rax,%rax,1)
    79b8:	00 00 00 
    79bb:	0f 1f 44 00 00       	nopl   0x0(%rax,%rax,1)
    79c0:	48 85 db             	test   %rbx,%rbx
    79c3:	48 8d 2d b6 eb ff ff 	lea    -0x144a(%rip),%rbp        # 6580 <__rust_dealloc>
    79ca:	74 11                	je     79dd <_ZN3std10sys_common11at_exit_imp7cleanup17h93c55723b3182e5dE+0x12d>
    79cc:	48 c1 e3 04          	shl    $0x4,%rbx
    79d0:	ba 08 00 00 00       	mov    $0x8,%edx
    79d5:	4c 89 ef             	mov    %r13,%rdi
    79d8:	48 89 de             	mov    %rbx,%rsi
    79db:	ff d5                	callq  *%rbp
    79dd:	be 18 00 00 00       	mov    $0x18,%esi
    79e2:	ba 08 00 00 00       	mov    $0x8,%edx
    79e7:	4c 89 e7             	mov    %r12,%rdi
    79ea:	ff d5                	callq  *%rbp
    79ec:	48 8d 2d 45 76 22 00 	lea    0x227645(%rip),%rbp        # 22f038 <_ZN3std10sys_common11at_exit_imp4LOCK17hdac8e689002e84dcE.llvm.9634770799887424769>
    79f3:	4c 8b 35 d6 75 22 00 	mov    0x2275d6(%rip),%r14        # 22efd0 <_GLOBAL_OFFSET_TABLE_+0x540>
    79fa:	4c 8b 25 0f 74 22 00 	mov    0x22740f(%rip),%r12        # 22ee10 <_GLOBAL_OFFSET_TABLE_+0x380>
    7a01:	4d 89 e5             	mov    %r12,%r13
    7a04:	48 8b 5c 24 20       	mov    0x20(%rsp),%rbx
    7a09:	49 83 ff 0a          	cmp    $0xa,%r15
    7a0d:	49 89 df             	mov    %rbx,%r15
    7a10:	0f 82 ca fe ff ff    	jb     78e0 <_ZN3std10sys_common11at_exit_imp7cleanup17h93c55723b3182e5dE+0x30>
    7a16:	48 83 c4 28          	add    $0x28,%rsp
    7a1a:	5b                   	pop    %rbx
    7a1b:	41 5c                	pop    %r12
    7a1d:	41 5d                	pop    %r13
    7a1f:	41 5e                	pop    %r14
    7a21:	41 5f                	pop    %r15
    7a23:	5d                   	pop    %rbp
    7a24:	c3                   	retq   
    7a25:	48 8d 3d 5c b0 01 00 	lea    0x1b05c(%rip),%rdi        # 22a88 <anon.ff2dd124ec5e25f1c1e32fbc2f3b208a.37.llvm.9634770799887424769>
    7a2c:	48 8d 15 0d 56 22 00 	lea    0x22560d(%rip),%rdx        # 22d040 <anon.ff2dd124ec5e25f1c1e32fbc2f3b208a.36.llvm.9634770799887424769>
    7a33:	be 1f 00 00 00       	mov    $0x1f,%esi
    7a38:	e8 63 56 00 00       	callq  d0a0 <_ZN3std9panicking11begin_panic17h81010564e9ebbbe1E>
    7a3d:	0f 0b                	ud2    
    7a3f:	48 89 c3             	mov    %rax,%rbx
    7a42:	48 89 e7             	mov    %rsp,%rdi
    7a45:	e8 16 f1 ff ff       	callq  6b60 <_ZN4core3ptr18real_drop_in_place17haa2ed5119323d2c3E.llvm.9634770799887424769>
    7a4a:	4c 89 e7             	mov    %r12,%rdi
    7a4d:	e8 8e f7 ff ff       	callq  71e0 <_ZN5alloc5alloc8box_free17hd88e60c97e400217E.llvm.9634770799887424769>
    7a52:	48 89 df             	mov    %rbx,%rdi
    7a55:	e8 de e6 ff ff       	callq  6138 <_init+0xf0>
    7a5a:	0f 0b                	ud2    
    7a5c:	0f 1f 40 00          	nopl   0x0(%rax)

0000000000007a60 <_ZN3std10sys_common11at_exit_imp4push17h2356dcdb0b7f190cE>:
    7a60:	41 57                	push   %r15
    7a62:	41 56                	push   %r14
    7a64:	41 54                	push   %r12
    7a66:	53                   	push   %rbx
    7a67:	48 83 ec 18          	sub    $0x18,%rsp
    7a6b:	49 89 f7             	mov    %rsi,%r15
    7a6e:	49 89 fe             	mov    %rdi,%r14
    7a71:	4c 8d 25 c0 75 22 00 	lea    0x2275c0(%rip),%r12        # 22f038 <_ZN3std10sys_common11at_exit_imp4LOCK17hdac8e689002e84dcE.llvm.9634770799887424769>
    7a78:	4c 89 e7             	mov    %r12,%rdi
    7a7b:	ff 15 4f 75 22 00    	callq  *0x22754f(%rip)        # 22efd0 <_GLOBAL_OFFSET_TABLE_+0x540>
    7a81:	4c 89 24 24          	mov    %r12,(%rsp)
    7a85:	48 8b 1d d4 75 22 00 	mov    0x2275d4(%rip),%rbx        # 22f060 <_ZN3std10sys_common11at_exit_imp5QUEUE17h9271f3f0f06d665bE.llvm.9634770799887424769>
    7a8c:	48 85 db             	test   %rbx,%rbx
    7a8f:	74 33                	je     7ac4 <_ZN3std10sys_common11at_exit_imp4push17h2356dcdb0b7f190cE+0x64>
    7a91:	48 83 fb 01          	cmp    $0x1,%rbx
    7a95:	75 5a                	jne    7af1 <_ZN3std10sys_common11at_exit_imp4push17h2356dcdb0b7f190cE+0x91>
    7a97:	48 8d 3d 9a 75 22 00 	lea    0x22759a(%rip),%rdi        # 22f038 <_ZN3std10sys_common11at_exit_imp4LOCK17hdac8e689002e84dcE.llvm.9634770799887424769>
    7a9e:	ff 15 6c 73 22 00    	callq  *0x22736c(%rip)        # 22ee10 <_GLOBAL_OFFSET_TABLE_+0x380>
    7aa4:	4c 89 f7             	mov    %r14,%rdi
    7aa7:	41 ff 17             	callq  *(%r15)
    7aaa:	49 8b 77 08          	mov    0x8(%r15),%rsi
    7aae:	48 85 f6             	test   %rsi,%rsi
    7ab1:	74 0d                	je     7ac0 <_ZN3std10sys_common11at_exit_imp4push17h2356dcdb0b7f190cE+0x60>
    7ab3:	49 8b 57 10          	mov    0x10(%r15),%rdx
    7ab7:	4c 89 f7             	mov    %r14,%rdi
    7aba:	ff 15 b8 71 22 00    	callq  *0x2271b8(%rip)        # 22ec78 <_GLOBAL_OFFSET_TABLE_+0x1e8>
    7ac0:	31 c9                	xor    %ecx,%ecx
    7ac2:	eb 76                	jmp    7b3a <_ZN3std10sys_common11at_exit_imp4push17h2356dcdb0b7f190cE+0xda>
    7ac4:	bf 18 00 00 00       	mov    $0x18,%edi
    7ac9:	be 08 00 00 00       	mov    $0x8,%esi
    7ace:	ff 15 34 71 22 00    	callq  *0x227134(%rip)        # 22ec08 <_GLOBAL_OFFSET_TABLE_+0x178>
    7ad4:	48 85 c0             	test   %rax,%rax
    7ad7:	74 6f                	je     7b48 <_ZN3std10sys_common11at_exit_imp4push17h2356dcdb0b7f190cE+0xe8>
    7ad9:	48 89 c3             	mov    %rax,%rbx
    7adc:	48 c7 00 08 00 00 00 	movq   $0x8,(%rax)
    7ae3:	0f 57 c0             	xorps  %xmm0,%xmm0
    7ae6:	0f 11 40 08          	movups %xmm0,0x8(%rax)
    7aea:	48 89 05 6f 75 22 00 	mov    %rax,0x22756f(%rip)        # 22f060 <_ZN3std10sys_common11at_exit_imp5QUEUE17h9271f3f0f06d665bE.llvm.9634770799887424769>
    7af1:	4c 89 74 24 08       	mov    %r14,0x8(%rsp)
    7af6:	4c 89 7c 24 10       	mov    %r15,0x10(%rsp)
    7afb:	48 8b 73 10          	mov    0x10(%rbx),%rsi
    7aff:	48 3b 73 08          	cmp    0x8(%rbx),%rsi
    7b03:	75 15                	jne    7b1a <_ZN3std10sys_common11at_exit_imp4push17h2356dcdb0b7f190cE+0xba>
    7b05:	ba 01 00 00 00       	mov    $0x1,%edx
    7b0a:	48 89 df             	mov    %rbx,%rdi
    7b0d:	e8 fe 44 00 00       	callq  c010 <_ZN49_$LT$alloc..raw_vec..RawVec$LT$T$C$$u20$A$GT$$GT$7reserve17h1397ae18dd4d638dE>
    7b12:	48 8b 73 10          	mov    0x10(%rbx),%rsi
    7b16:	4c 8b 24 24          	mov    (%rsp),%r12
    7b1a:	48 8b 03             	mov    (%rbx),%rax
    7b1d:	48 c1 e6 04          	shl    $0x4,%rsi
    7b21:	4c 89 34 30          	mov    %r14,(%rax,%rsi,1)
    7b25:	4c 89 7c 30 08       	mov    %r15,0x8(%rax,%rsi,1)
    7b2a:	48 83 43 10 01       	addq   $0x1,0x10(%rbx)
    7b2f:	4c 89 e7             	mov    %r12,%rdi
    7b32:	ff 15 d8 72 22 00    	callq  *0x2272d8(%rip)        # 22ee10 <_GLOBAL_OFFSET_TABLE_+0x380>
    7b38:	b1 01                	mov    $0x1,%cl
    7b3a:	89 c8                	mov    %ecx,%eax
    7b3c:	48 83 c4 18          	add    $0x18,%rsp
    7b40:	5b                   	pop    %rbx
    7b41:	41 5c                	pop    %r12
    7b43:	41 5e                	pop    %r14
    7b45:	41 5f                	pop    %r15
    7b47:	c3                   	retq   
    7b48:	bf 18 00 00 00       	mov    $0x18,%edi
    7b4d:	be 08 00 00 00       	mov    $0x8,%esi
    7b52:	ff 15 d8 73 22 00    	callq  *0x2273d8(%rip)        # 22ef30 <_GLOBAL_OFFSET_TABLE_+0x4a0>
    7b58:	0f 0b                	ud2    
    7b5a:	48 89 c3             	mov    %rax,%rbx
    7b5d:	48 8d 7c 24 08       	lea    0x8(%rsp),%rdi
    7b62:	e8 99 ef ff ff       	callq  6b00 <_ZN4core3ptr18real_drop_in_place17h8a43fe1a5d73b2edE>
    7b67:	48 89 e7             	mov    %rsp,%rdi
    7b6a:	e8 d1 ed ff ff       	callq  6940 <_ZN4core3ptr18real_drop_in_place17h25785b15f6ade62bE>
    7b6f:	eb 13                	jmp    7b84 <_ZN3std10sys_common11at_exit_imp4push17h2356dcdb0b7f190cE+0x124>
    7b71:	48 89 c3             	mov    %rax,%rbx
    7b74:	eb f1                	jmp    7b67 <_ZN3std10sys_common11at_exit_imp4push17h2356dcdb0b7f190cE+0x107>
    7b76:	48 89 c3             	mov    %rax,%rbx
    7b79:	4c 89 f7             	mov    %r14,%rdi
    7b7c:	4c 89 fe             	mov    %r15,%rsi
    7b7f:	e8 6c f6 ff ff       	callq  71f0 <_ZN5alloc5alloc8box_free17habb2f4e088dcf1b4E.llvm.9634770799887424769>
    7b84:	48 89 df             	mov    %rbx,%rdi
    7b87:	e8 ac e5 ff ff       	callq  6138 <_init+0xf0>
    7b8c:	0f 0b                	ud2    
    7b8e:	66 90                	xchg   %ax,%ax

0000000000007b90 <_ZN3std2rt19lang_start_internal17h43324a075da6e95fE>:
    7b90:	55                   	push   %rbp
    7b91:	41 57                	push   %r15
    7b93:	41 56                	push   %r14
    7b95:	53                   	push   %rbx
    7b96:	48 83 ec 78          	sub    $0x78,%rsp
    7b9a:	49 89 ce             	mov    %rcx,%r14
    7b9d:	49 89 d7             	mov    %rdx,%r15
    7ba0:	48 89 7c 24 50       	mov    %rdi,0x50(%rsp)
    7ba5:	48 89 74 24 58       	mov    %rsi,0x58(%rsp)
    7baa:	be 01 00 00 00       	mov    $0x1,%esi
    7baf:	bf 0d 00 00 00       	mov    $0xd,%edi
    7bb4:	ff 15 d6 71 22 00    	callq  *0x2271d6(%rip)        # 22ed90 <_GLOBAL_OFFSET_TABLE_+0x300>
    7bba:	48 83 f8 ff          	cmp    $0xffffffffffffffff,%rax
    7bbe:	0f 84 36 02 00 00    	je     7dfa <_ZN3std2rt19lang_start_internal17h43324a075da6e95fE+0x26a>
    7bc4:	48 8d 7c 24 60       	lea    0x60(%rsp),%rdi
    7bc9:	e8 82 40 00 00       	callq  bc50 <_ZN3std3sys4unix6thread5guard4init17h5d446e3ee1df56dbE>
    7bce:	e8 5d 49 00 00       	callq  c530 <_ZN3std3sys4unix14stack_overflow3imp4init17heb09412b6bcc9400E>
    7bd3:	bf 04 00 00 00       	mov    $0x4,%edi
    7bd8:	be 01 00 00 00       	mov    $0x1,%esi
    7bdd:	ff 15 25 70 22 00    	callq  *0x227025(%rip)        # 22ec08 <_GLOBAL_OFFSET_TABLE_+0x178>
    7be3:	48 85 c0             	test   %rax,%rax
    7be6:	0f 84 28 02 00 00    	je     7e14 <_ZN3std2rt19lang_start_internal17h43324a075da6e95fE+0x284>
    7bec:	48 89 44 24 10       	mov    %rax,0x10(%rsp)
    7bf1:	48 c7 44 24 18 04 00 	movq   $0x4,0x18(%rsp)
    7bf8:	00 00 
    7bfa:	48 c7 44 24 20 00 00 	movq   $0x0,0x20(%rsp)
    7c01:	00 00 
    7c03:	48 8d 7c 24 10       	lea    0x10(%rsp),%rdi
    7c08:	ba 04 00 00 00       	mov    $0x4,%edx
    7c0d:	31 f6                	xor    %esi,%esi
    7c0f:	b9 01 00 00 00       	mov    $0x1,%ecx
    7c14:	e8 67 43 00 00       	callq  bf80 <_ZN49_$LT$alloc..raw_vec..RawVec$LT$T$C$$u20$A$GT$$GT$16reserve_internal17he59e5d1fed30e2e2E.llvm.9576729369901318767>
    7c19:	3c 02                	cmp    $0x2,%al
    7c1b:	0f 85 05 02 00 00    	jne    7e26 <_ZN3std2rt19lang_start_internal17h43324a075da6e95fE+0x296>
    7c21:	48 8b 44 24 10       	mov    0x10(%rsp),%rax
    7c26:	48 8b 4c 24 20       	mov    0x20(%rsp),%rcx
    7c2b:	48 8d 51 04          	lea    0x4(%rcx),%rdx
    7c2f:	48 89 54 24 20       	mov    %rdx,0x20(%rsp)
    7c34:	c7 04 08 6d 61 69 6e 	movl   $0x6e69616d,(%rax,%rcx,1)
    7c3b:	48 8b 44 24 20       	mov    0x20(%rsp),%rax
    7c40:	48 89 44 24 40       	mov    %rax,0x40(%rsp)
    7c45:	0f 10 44 24 10       	movups 0x10(%rsp),%xmm0
    7c4a:	0f 29 44 24 30       	movaps %xmm0,0x30(%rsp)
    7c4f:	48 8d 7c 24 30       	lea    0x30(%rsp),%rdi
    7c54:	ff 15 0e 70 22 00    	callq  *0x22700e(%rip)        # 22ec68 <_GLOBAL_OFFSET_TABLE_+0x1d8>
    7c5a:	48 89 c3             	mov    %rax,%rbx
    7c5d:	48 8b 44 24 70       	mov    0x70(%rsp),%rax
    7c62:	48 89 44 24 40       	mov    %rax,0x40(%rsp)
    7c67:	0f 10 44 24 60       	movups 0x60(%rsp),%xmm0
    7c6c:	0f 29 44 24 30       	movaps %xmm0,0x30(%rsp)
    7c71:	48 89 5c 24 08       	mov    %rbx,0x8(%rsp)
    7c76:	48 8d 3d db 53 22 00 	lea    0x2253db(%rip),%rdi        # 22d058 <anon.ff2dd124ec5e25f1c1e32fbc2f3b208a.38.llvm.9634770799887424769>
    7c7d:	e8 be 19 00 00       	callq  9640 <_ZN46_$LT$std..thread..local..LocalKey$LT$T$GT$$GT$4with17he34eca6efb162c78E>
    7c82:	48 8b 44 24 40       	mov    0x40(%rsp),%rax
    7c87:	48 89 44 24 20       	mov    %rax,0x20(%rsp)
    7c8c:	0f 28 44 24 30       	movaps 0x30(%rsp),%xmm0
    7c91:	0f 29 44 24 10       	movaps %xmm0,0x10(%rsp)
    7c96:	48 89 5c 24 28       	mov    %rbx,0x28(%rsp)
    7c9b:	48 8d 3d b6 53 22 00 	lea    0x2253b6(%rip),%rdi        # 22d058 <anon.ff2dd124ec5e25f1c1e32fbc2f3b208a.38.llvm.9634770799887424769>
    7ca2:	48 8d 74 24 10       	lea    0x10(%rsp),%rsi
    7ca7:	e8 c4 16 00 00       	callq  9370 <_ZN46_$LT$std..thread..local..LocalKey$LT$T$GT$$GT$4with17hc2d6bfcbec85772eE>
    7cac:	48 8d 1d fd 74 22 00 	lea    0x2274fd(%rip),%rbx        # 22f1b0 <_ZN3std3sys4unix4args3imp4LOCK17h77edc4664b42ba5cE.llvm.3637670619784138920>
    7cb3:	48 89 df             	mov    %rbx,%rdi
    7cb6:	ff 15 14 73 22 00    	callq  *0x227314(%rip)        # 22efd0 <_GLOBAL_OFFSET_TABLE_+0x540>
    7cbc:	4c 89 3d dd 74 22 00 	mov    %r15,0x2274dd(%rip)        # 22f1a0 <_ZN3std3sys4unix4args3imp4ARGC17h37a284b78d6b2c8aE.llvm.3637670619784138920>
    7cc3:	4c 89 35 de 74 22 00 	mov    %r14,0x2274de(%rip)        # 22f1a8 <_ZN3std3sys4unix4args3imp4ARGV17h97edd7b1985bf8cdE>
    7cca:	48 89 df             	mov    %rbx,%rdi
    7ccd:	ff 15 3d 71 22 00    	callq  *0x22713d(%rip)        # 22ee10 <_GLOBAL_OFFSET_TABLE_+0x380>
    7cd3:	48 c7 44 24 48 00 00 	movq   $0x0,0x48(%rsp)
    7cda:	00 00 
    7cdc:	48 c7 44 24 08 00 00 	movq   $0x0,0x8(%rsp)
    7ce3:	00 00 
    7ce5:	48 8d 44 24 50       	lea    0x50(%rsp),%rax
    7cea:	48 89 44 24 30       	mov    %rax,0x30(%rsp)
    7cef:	48 8d 3d 5a 50 00 00 	lea    0x505a(%rip),%rdi        # cd50 <_ZN3std9panicking3try7do_call17h9c8815c13aef9cf5E.llvm.5822095925024908728>
    7cf6:	48 8d 74 24 30       	lea    0x30(%rsp),%rsi
    7cfb:	48 8d 54 24 48       	lea    0x48(%rsp),%rdx
    7d00:	4c 8d 74 24 08       	lea    0x8(%rsp),%r14
    7d05:	4c 89 f1             	mov    %r14,%rcx
    7d08:	ff 15 42 71 22 00    	callq  *0x227142(%rip)        # 22ee50 <_GLOBAL_OFFSET_TABLE_+0x3c0>
    7d0e:	85 c0                	test   %eax,%eax
    7d10:	74 25                	je     7d37 <_ZN3std2rt19lang_start_internal17h43324a075da6e95fE+0x1a7>
    7d12:	ff 15 c0 58 22 00    	callq  *0x2258c0(%rip)        # 22d5d8 <anon.cb107c2d85549501cc25b5e94e33ad5a.49.llvm.5822095925024908728>
    7d18:	48 85 c0             	test   %rax,%rax
    7d1b:	0f 84 11 01 00 00    	je     7e32 <_ZN3std2rt19lang_start_internal17h43324a075da6e95fE+0x2a2>
    7d21:	48 89 c3             	mov    %rax,%rbx
    7d24:	48 83 38 01          	cmpq   $0x1,(%rax)
    7d28:	75 19                	jne    7d43 <_ZN3std2rt19lang_start_internal17h43324a075da6e95fE+0x1b3>
    7d2a:	48 89 d9             	mov    %rbx,%rcx
    7d2d:	48 83 c1 08          	add    $0x8,%rcx
    7d31:	48 8b 43 08          	mov    0x8(%rbx),%rax
    7d35:	eb 24                	jmp    7d5b <_ZN3std2rt19lang_start_internal17h43324a075da6e95fE+0x1cb>
    7d37:	8b 44 24 30          	mov    0x30(%rsp),%eax
    7d3b:	89 44 24 14          	mov    %eax,0x14(%rsp)
    7d3f:	31 c0                	xor    %eax,%eax
    7d41:	eb 38                	jmp    7d7b <_ZN3std2rt19lang_start_internal17h43324a075da6e95fE+0x1eb>
    7d43:	ff 15 97 58 22 00    	callq  *0x225897(%rip)        # 22d5e0 <anon.cb107c2d85549501cc25b5e94e33ad5a.49.llvm.5822095925024908728+0x8>
    7d49:	48 89 d9             	mov    %rbx,%rcx
    7d4c:	48 83 c1 08          	add    $0x8,%rcx
    7d50:	48 c7 03 01 00 00 00 	movq   $0x1,(%rbx)
    7d57:	48 89 43 08          	mov    %rax,0x8(%rbx)
    7d5b:	48 83 c0 ff          	add    $0xffffffffffffffff,%rax
    7d5f:	48 89 01             	mov    %rax,(%rcx)
    7d62:	48 8b 44 24 48       	mov    0x48(%rsp),%rax
    7d67:	48 8b 4c 24 08       	mov    0x8(%rsp),%rcx
    7d6c:	48 89 44 24 18       	mov    %rax,0x18(%rsp)
    7d71:	48 89 4c 24 20       	mov    %rcx,0x20(%rsp)
    7d76:	b8 01 00 00 00       	mov    $0x1,%eax
    7d7b:	89 44 24 10          	mov    %eax,0x10(%rsp)
    7d7f:	48 8b 05 0a 74 22 00 	mov    0x22740a(%rip),%rax        # 22f190 <_ZN3std10sys_common7cleanup7CLEANUP17h05cb7f5773faa7b2E.llvm.12046821098248573319>
    7d86:	48 83 f8 03          	cmp    $0x3,%rax
    7d8a:	74 25                	je     7db1 <_ZN3std2rt19lang_start_internal17h43324a075da6e95fE+0x221>
    7d8c:	c6 44 24 08 01       	movb   $0x1,0x8(%rsp)
    7d91:	4c 89 74 24 30       	mov    %r14,0x30(%rsp)
    7d96:	48 8d 3d f3 73 22 00 	lea    0x2273f3(%rip),%rdi        # 22f190 <_ZN3std10sys_common7cleanup7CLEANUP17h05cb7f5773faa7b2E.llvm.12046821098248573319>
    7d9d:	48 8d 0d 9c 5c 22 00 	lea    0x225c9c(%rip),%rcx        # 22da40 <anon.d8be94b5c152b0adf4252738cd31682b.44.llvm.12046821098248573319>
    7da4:	48 8d 54 24 30       	lea    0x30(%rsp),%rdx
    7da9:	31 f6                	xor    %esi,%esi
    7dab:	ff 15 2f 71 22 00    	callq  *0x22712f(%rip)        # 22eee0 <_GLOBAL_OFFSET_TABLE_+0x450>
    7db1:	8b 44 24 10          	mov    0x10(%rsp),%eax
    7db5:	4c 8b 7c 24 18       	mov    0x18(%rsp),%r15
    7dba:	48 8b 5c 24 20       	mov    0x20(%rsp),%rbx
    7dbf:	bd 65 00 00 00       	mov    $0x65,%ebp
    7dc4:	83 f8 01             	cmp    $0x1,%eax
    7dc7:	74 04                	je     7dcd <_ZN3std2rt19lang_start_internal17h43324a075da6e95fE+0x23d>
    7dc9:	8b 6c 24 14          	mov    0x14(%rsp),%ebp
    7dcd:	85 c0                	test   %eax,%eax
    7dcf:	74 1b                	je     7dec <_ZN3std2rt19lang_start_internal17h43324a075da6e95fE+0x25c>
    7dd1:	4c 89 ff             	mov    %r15,%rdi
    7dd4:	ff 13                	callq  *(%rbx)
    7dd6:	48 8b 73 08          	mov    0x8(%rbx),%rsi
    7dda:	48 85 f6             	test   %rsi,%rsi
    7ddd:	74 0d                	je     7dec <_ZN3std2rt19lang_start_internal17h43324a075da6e95fE+0x25c>
    7ddf:	48 8b 53 10          	mov    0x10(%rbx),%rdx
    7de3:	4c 89 ff             	mov    %r15,%rdi
    7de6:	ff 15 8c 6e 22 00    	callq  *0x226e8c(%rip)        # 22ec78 <_GLOBAL_OFFSET_TABLE_+0x1e8>
    7dec:	48 63 c5             	movslq %ebp,%rax
    7def:	48 83 c4 78          	add    $0x78,%rsp
    7df3:	5b                   	pop    %rbx
    7df4:	41 5e                	pop    %r14
    7df6:	41 5f                	pop    %r15
    7df8:	5d                   	pop    %rbp
    7df9:	c3                   	retq   
    7dfa:	48 8d 3d c0 ac 01 00 	lea    0x1acc0(%rip),%rdi        # 22ac1 <anon.ff2dd124ec5e25f1c1e32fbc2f3b208a.37.llvm.9634770799887424769+0x39>
    7e01:	48 8d 15 60 52 22 00 	lea    0x225260(%rip),%rdx        # 22d068 <anon.ff2dd124ec5e25f1c1e32fbc2f3b208a.38.llvm.9634770799887424769+0x10>
    7e08:	be 47 00 00 00       	mov    $0x47,%esi
    7e0d:	e8 8e 52 00 00       	callq  d0a0 <_ZN3std9panicking11begin_panic17h81010564e9ebbbe1E>
    7e12:	0f 0b                	ud2    
    7e14:	bf 04 00 00 00       	mov    $0x4,%edi
    7e19:	be 01 00 00 00       	mov    $0x1,%esi
    7e1e:	ff 15 0c 71 22 00    	callq  *0x22710c(%rip)        # 22ef30 <_GLOBAL_OFFSET_TABLE_+0x4a0>
    7e24:	0f 0b                	ud2    
    7e26:	a8 01                	test   $0x1,%al
    7e28:	75 1b                	jne    7e45 <_ZN3std2rt19lang_start_internal17h43324a075da6e95fE+0x2b5>
    7e2a:	ff 15 a0 6e 22 00    	callq  *0x226ea0(%rip)        # 22ecd0 <_GLOBAL_OFFSET_TABLE_+0x240>
    7e30:	eb 20                	jmp    7e52 <_ZN3std2rt19lang_start_internal17h43324a075da6e95fE+0x2c2>
    7e32:	48 8d 3d 82 af 01 00 	lea    0x1af82(%rip),%rdi        # 22dbb <anon.9aff47cfc7bc0ab43bec4bdb2a8d583b.12.llvm.10827810749348899414>
    7e39:	be 39 00 00 00       	mov    $0x39,%esi
    7e3e:	e8 fd ef ff ff       	callq  6e40 <_ZN4core6result13unwrap_failed17h8dea4bb8d8776a71E>
    7e43:	0f 0b                	ud2    
    7e45:	48 8d 3d ec 55 22 00 	lea    0x2255ec(%rip),%rdi        # 22d438 <anon.b162a46f5f2358d27c8857f2f13f63d3.5.llvm.9576729369901318767>
    7e4c:	ff 15 56 6e 22 00    	callq  *0x226e56(%rip)        # 22eca8 <_GLOBAL_OFFSET_TABLE_+0x218>
    7e52:	0f 0b                	ud2    
    7e54:	49 89 c6             	mov    %rax,%r14
    7e57:	48 8d 7c 24 10       	lea    0x10(%rsp),%rdi
    7e5c:	e8 ff e9 ff ff       	callq  6860 <_ZN4core3ptr18real_drop_in_place17h13b3d2149581e24eE>
    7e61:	eb 2c                	jmp    7e8f <_ZN3std2rt19lang_start_internal17h43324a075da6e95fE+0x2ff>
    7e63:	49 89 c6             	mov    %rax,%r14
    7e66:	4c 89 ff             	mov    %r15,%rdi
    7e69:	48 89 de             	mov    %rbx,%rsi
    7e6c:	e8 7f f3 ff ff       	callq  71f0 <_ZN5alloc5alloc8box_free17habb2f4e088dcf1b4E.llvm.9634770799887424769>
    7e71:	eb 1c                	jmp    7e8f <_ZN3std2rt19lang_start_internal17h43324a075da6e95fE+0x2ff>
    7e73:	49 89 c6             	mov    %rax,%r14
    7e76:	48 8d 7c 24 08       	lea    0x8(%rsp),%rdi
    7e7b:	e8 20 ec ff ff       	callq  6aa0 <_ZN4core3ptr18real_drop_in_place17h617852494a707b8bE>
    7e80:	eb 0d                	jmp    7e8f <_ZN3std2rt19lang_start_internal17h43324a075da6e95fE+0x2ff>
    7e82:	49 89 c6             	mov    %rax,%r14
    7e85:	48 8d 7c 24 10       	lea    0x10(%rsp),%rdi
    7e8a:	e8 31 ec ff ff       	callq  6ac0 <_ZN4core3ptr18real_drop_in_place17h70005d6db3a49856E.llvm.9634770799887424769>
    7e8f:	4c 89 f7             	mov    %r14,%rdi
    7e92:	e8 a1 e2 ff ff       	callq  6138 <_init+0xf0>
    7e97:	0f 0b                	ud2    
    7e99:	0f 1f 80 00 00 00 00 	nopl   0x0(%rax)

0000000000007ea0 <_ZN3std10sys_common11thread_info11THREAD_INFO6__init17h0a3a501f82dc9435E>:
    7ea0:	48 89 f8             	mov    %rdi,%rax
    7ea3:	48 c7 07 00 00 00 00 	movq   $0x0,(%rdi)
    7eaa:	48 c7 47 08 02 00 00 	movq   $0x2,0x8(%rdi)
    7eb1:	00 
    7eb2:	c3                   	retq   
    7eb3:	66 2e 0f 1f 84 00 00 	nopw   %cs:0x0(%rax,%rax,1)
    7eba:	00 00 00 
    7ebd:	0f 1f 00             	nopl   (%rax)

0000000000007ec0 <_ZN3std10sys_common11thread_info11THREAD_INFO7__getit17h6749dbb0e3e86c26E>:
    7ec0:	53                   	push   %rbx
    7ec1:	66 66 66 64 48 8b 04 	data16 data16 data16 mov %fs:0x0,%rax
    7ec8:	25 00 00 00 00 
    7ecd:	80 b8 91 ff ff ff 00 	cmpb   $0x0,-0x6f(%rax)
    7ed4:	74 04                	je     7eda <_ZN3std10sys_common11thread_info11THREAD_INFO7__getit17h6749dbb0e3e86c26E+0x1a>
    7ed6:	31 c0                	xor    %eax,%eax
    7ed8:	5b                   	pop    %rbx
    7ed9:	c3                   	retq   
    7eda:	48 89 c3             	mov    %rax,%rbx
    7edd:	80 bb 90 ff ff ff 00 	cmpb   $0x0,-0x70(%rbx)
    7ee4:	74 09                	je     7eef <_ZN3std10sys_common11thread_info11THREAD_INFO7__getit17h6749dbb0e3e86c26E+0x2f>
    7ee6:	48 8d 80 68 ff ff ff 	lea    -0x98(%rax),%rax
    7eed:	5b                   	pop    %rbx
    7eee:	c3                   	retq   
    7eef:	48 83 3d 71 6c 22 00 	cmpq   $0x0,0x226c71(%rip)        # 22eb68 <_GLOBAL_OFFSET_TABLE_+0xd8>
    7ef6:	00 
    7ef7:	74 1d                	je     7f16 <_ZN3std10sys_common11thread_info11THREAD_INFO7__getit17h6749dbb0e3e86c26E+0x56>
    7ef9:	48 8d b3 68 ff ff ff 	lea    -0x98(%rbx),%rsi
    7f00:	48 8d 3d 69 42 00 00 	lea    0x4269(%rip),%rdi        # c170 <_ZN3std6thread5local4fast13destroy_value17hc60044c4e9fb2c7eE.llvm.2675274726128530079>
    7f07:	48 8d 15 1a 71 22 00 	lea    0x22711a(%rip),%rdx        # 22f028 <_rust_extern_with_linkage___dso_handle.llvm.3637670619784138920>
    7f0e:	ff 15 54 6c 22 00    	callq  *0x226c54(%rip)        # 22eb68 <_GLOBAL_OFFSET_TABLE_+0xd8>
    7f14:	eb 13                	jmp    7f29 <_ZN3std10sys_common11thread_info11THREAD_INFO7__getit17h6749dbb0e3e86c26E+0x69>
    7f16:	48 8d bb 68 ff ff ff 	lea    -0x98(%rbx),%rdi
    7f1d:	48 8d 35 4c 42 00 00 	lea    0x424c(%rip),%rsi        # c170 <_ZN3std6thread5local4fast13destroy_value17hc60044c4e9fb2c7eE.llvm.2675274726128530079>
    7f24:	e8 37 35 00 00       	callq  b460 <_ZN3std10sys_common12thread_local22register_dtor_fallback17h404bb0bb720f8640E>
    7f29:	c6 83 90 ff ff ff 01 	movb   $0x1,-0x70(%rbx)
    7f30:	48 8d 83 68 ff ff ff 	lea    -0x98(%rbx),%rax
    7f37:	5b                   	pop    %rbx
    7f38:	c3                   	retq   
    7f39:	0f 1f 80 00 00 00 00 	nopl   0x0(%rax)

0000000000007f40 <_ZN3std3sys4unix17decode_error_kind17h0a2b52578105e158E>:
    7f40:	b0 10                	mov    $0x10,%al
    7f42:	83 c7 ff             	add    $0xffffffff,%edi
    7f45:	83 ff 6e             	cmp    $0x6e,%edi
    7f48:	77 23                	ja     7f6d <_ZN3std3sys4unix17decode_error_kind17h0a2b52578105e158E+0x2d>
    7f4a:	b1 02                	mov    $0x2,%cl
    7f4c:	48 8d 15 dd a8 01 00 	lea    0x1a8dd(%rip),%rdx        # 22830 <_fini+0x2c>
    7f53:	48 63 34 ba          	movslq (%rdx,%rdi,4),%rsi
    7f57:	48 01 d6             	add    %rdx,%rsi
    7f5a:	ff e6                	jmpq   *%rsi
    7f5c:	b1 01                	mov    $0x1,%cl
    7f5e:	89 c8                	mov    %ecx,%eax
    7f60:	c3                   	retq   
    7f61:	31 c9                	xor    %ecx,%ecx
    7f63:	89 c8                	mov    %ecx,%eax
    7f65:	c3                   	retq   
    7f66:	b1 0f                	mov    $0xf,%cl
    7f68:	89 c8                	mov    %ecx,%eax
    7f6a:	c3                   	retq   
    7f6b:	b0 0a                	mov    $0xa,%al
    7f6d:	c3                   	retq   
    7f6e:	b1 09                	mov    $0x9,%cl
    7f70:	89 c8                	mov    %ecx,%eax
    7f72:	c3                   	retq   
    7f73:	b1 0b                	mov    $0xb,%cl
    7f75:	89 c8                	mov    %ecx,%eax
    7f77:	c3                   	retq   
    7f78:	b1 08                	mov    $0x8,%cl
    7f7a:	89 c8                	mov    %ecx,%eax
    7f7c:	c3                   	retq   
    7f7d:	b1 07                	mov    $0x7,%cl
    7f7f:	89 c8                	mov    %ecx,%eax
    7f81:	c3                   	retq   
    7f82:	b1 04                	mov    $0x4,%cl
    7f84:	89 c8                	mov    %ecx,%eax
    7f86:	c3                   	retq   
    7f87:	b1 03                	mov    $0x3,%cl
    7f89:	89 c8                	mov    %ecx,%eax
    7f8b:	c3                   	retq   
    7f8c:	b1 05                	mov    $0x5,%cl
    7f8e:	89 c8                	mov    %ecx,%eax
    7f90:	c3                   	retq   
    7f91:	b1 0d                	mov    $0xd,%cl
    7f93:	89 c8                	mov    %ecx,%eax
    7f95:	c3                   	retq   
    7f96:	b1 06                	mov    $0x6,%cl
    7f98:	89 c8                	mov    %ecx,%eax
    7f9a:	c3                   	retq   
    7f9b:	0f 1f 44 00 00       	nopl   0x0(%rax,%rax,1)

0000000000007fa0 <_ZN3std3sys4unix14abort_internal17h8b1abca998a8c7fcE>:
    7fa0:	50                   	push   %rax
    7fa1:	ff 15 69 6b 22 00    	callq  *0x226b69(%rip)        # 22eb10 <_GLOBAL_OFFSET_TABLE_+0x80>
    7fa7:	0f 0b                	ud2    
    7fa9:	0f 1f 80 00 00 00 00 	nopl   0x0(%rax)

0000000000007fb0 <_ZN4core3ptr18real_drop_in_place17h27d0fd17d65341eeE.llvm.10308064416274954687>:
    7fb0:	41 57                	push   %r15
    7fb2:	41 56                	push   %r14
    7fb4:	53                   	push   %rbx
    7fb5:	80 3f 02             	cmpb   $0x2,(%rdi)
    7fb8:	73 06                	jae    7fc0 <_ZN4core3ptr18real_drop_in_place17h27d0fd17d65341eeE.llvm.10308064416274954687+0x10>
    7fba:	5b                   	pop    %rbx
    7fbb:	41 5e                	pop    %r14
    7fbd:	41 5f                	pop    %r15
    7fbf:	c3                   	retq   
    7fc0:	49 89 ff             	mov    %rdi,%r15
    7fc3:	48 8b 5f 08          	mov    0x8(%rdi),%rbx
    7fc7:	48 8b 3b             	mov    (%rbx),%rdi
    7fca:	48 8b 43 08          	mov    0x8(%rbx),%rax
    7fce:	ff 10                	callq  *(%rax)
    7fd0:	48 8b 43 08          	mov    0x8(%rbx),%rax
    7fd4:	48 8b 70 08          	mov    0x8(%rax),%rsi
    7fd8:	48 85 f6             	test   %rsi,%rsi
    7fdb:	74 0d                	je     7fea <_ZN4core3ptr18real_drop_in_place17h27d0fd17d65341eeE.llvm.10308064416274954687+0x3a>
    7fdd:	48 8b 3b             	mov    (%rbx),%rdi
    7fe0:	48 8b 50 10          	mov    0x10(%rax),%rdx
    7fe4:	ff 15 8e 6c 22 00    	callq  *0x226c8e(%rip)        # 22ec78 <_GLOBAL_OFFSET_TABLE_+0x1e8>
    7fea:	49 8b 7f 08          	mov    0x8(%r15),%rdi
    7fee:	be 18 00 00 00       	mov    $0x18,%esi
    7ff3:	ba 08 00 00 00       	mov    $0x8,%edx
    7ff8:	5b                   	pop    %rbx
    7ff9:	41 5e                	pop    %r14
    7ffb:	41 5f                	pop    %r15
    7ffd:	ff 25 75 6c 22 00    	jmpq   *0x226c75(%rip)        # 22ec78 <_GLOBAL_OFFSET_TABLE_+0x1e8>
    8003:	49 89 c6             	mov    %rax,%r14
    8006:	48 8b 3b             	mov    (%rbx),%rdi
    8009:	48 8b 73 08          	mov    0x8(%rbx),%rsi
    800d:	e8 ce 01 00 00       	callq  81e0 <_ZN5alloc5alloc8box_free17habb2f4e088dcf1b4E.llvm.10308064416274954687>
    8012:	49 8b 7f 08          	mov    0x8(%r15),%rdi
    8016:	e8 e5 01 00 00       	callq  8200 <_ZN5alloc5alloc8box_free17hd88e60c97e400217E.llvm.10308064416274954687>
    801b:	4c 89 f7             	mov    %r14,%rdi
    801e:	e8 15 e1 ff ff       	callq  6138 <_init+0xf0>
    8023:	0f 0b                	ud2    
    8025:	66 2e 0f 1f 84 00 00 	nopw   %cs:0x0(%rax,%rax,1)
    802c:	00 00 00 
    802f:	90                   	nop

0000000000008030 <_ZN4core3ptr18real_drop_in_place17h9e29df6e5531c870E.llvm.10308064416274954687>:
    8030:	48 8b 47 08          	mov    0x8(%rdi),%rax
    8034:	48 83 00 01          	addq   $0x1,(%rax)
    8038:	c3                   	retq   
    8039:	0f 1f 80 00 00 00 00 	nopl   0x0(%rax)

0000000000008040 <_ZN4core3ptr18real_drop_in_place17h31b1ca6258a70af8E>:
    8040:	48 8b 07             	mov    (%rdi),%rax
    8043:	48 85 c0             	test   %rax,%rax
    8046:	74 0f                	je     8057 <_ZN4core3ptr18real_drop_in_place17h31b1ca6258a70af8E+0x17>
    8048:	f0 48 81 28 01 00 00 	lock subq $0x1,(%rax)
    804f:	00 
    8050:	75 05                	jne    8057 <_ZN4core3ptr18real_drop_in_place17h31b1ca6258a70af8E+0x17>
    8052:	e9 49 e5 ff ff       	jmpq   65a0 <_ZN34_$LT$alloc..sync..Arc$LT$T$GT$$GT$9drop_slow17h609eaa68712ad880E>
    8057:	c3                   	retq   
    8058:	0f 1f 84 00 00 00 00 	nopl   0x0(%rax,%rax,1)
    805f:	00 

0000000000008060 <_ZN4core3ptr18real_drop_in_place17h33634558f62e5499E>:
    8060:	53                   	push   %rbx
    8061:	48 89 fb             	mov    %rdi,%rbx
    8064:	48 8b 3f             	mov    (%rdi),%rdi
    8067:	ff 15 53 6e 22 00    	callq  *0x226e53(%rip)        # 22eec0 <_GLOBAL_OFFSET_TABLE_+0x430>
    806d:	48 8b 3b             	mov    (%rbx),%rdi
    8070:	be 30 00 00 00       	mov    $0x30,%esi
    8075:	ba 08 00 00 00       	mov    $0x8,%edx
    807a:	5b                   	pop    %rbx
    807b:	ff 25 f7 6b 22 00    	jmpq   *0x226bf7(%rip)        # 22ec78 <_GLOBAL_OFFSET_TABLE_+0x1e8>
    8081:	66 2e 0f 1f 84 00 00 	nopw   %cs:0x0(%rax,%rax,1)
    8088:	00 00 00 
    808b:	0f 1f 44 00 00       	nopl   0x0(%rax,%rax,1)

0000000000008090 <_ZN4core3ptr18real_drop_in_place17h4be1707f76cfefeeE.llvm.10308064416274954687>:
    8090:	41 57                	push   %r15
    8092:	41 56                	push   %r14
    8094:	53                   	push   %rbx
    8095:	48 89 fb             	mov    %rdi,%rbx
    8098:	80 7f 08 00          	cmpb   $0x0,0x8(%rdi)
    809c:	75 49                	jne    80e7 <_ZN4core3ptr18real_drop_in_place17h4be1707f76cfefeeE.llvm.10308064416274954687+0x57>
    809e:	4c 8b 3b             	mov    (%rbx),%r15
    80a1:	ff 15 31 55 22 00    	callq  *0x225531(%rip)        # 22d5d8 <anon.cb107c2d85549501cc25b5e94e33ad5a.49.llvm.5822095925024908728>
    80a7:	48 85 c0             	test   %rax,%rax
    80aa:	74 4c                	je     80f8 <_ZN4core3ptr18real_drop_in_place17h4be1707f76cfefeeE.llvm.10308064416274954687+0x68>
    80ac:	49 89 c6             	mov    %rax,%r14
    80af:	48 83 38 01          	cmpq   $0x1,(%rax)
    80b3:	75 0d                	jne    80c2 <_ZN4core3ptr18real_drop_in_place17h4be1707f76cfefeeE.llvm.10308064416274954687+0x32>
    80b5:	4c 89 f1             	mov    %r14,%rcx
    80b8:	48 83 c1 08          	add    $0x8,%rcx
    80bc:	49 8b 46 08          	mov    0x8(%r14),%rax
    80c0:	eb 18                	jmp    80da <_ZN4core3ptr18real_drop_in_place17h4be1707f76cfefeeE.llvm.10308064416274954687+0x4a>
    80c2:	ff 15 18 55 22 00    	callq  *0x225518(%rip)        # 22d5e0 <anon.cb107c2d85549501cc25b5e94e33ad5a.49.llvm.5822095925024908728+0x8>
    80c8:	4c 89 f1             	mov    %r14,%rcx
    80cb:	48 83 c1 08          	add    $0x8,%rcx
    80cf:	49 c7 06 01 00 00 00 	movq   $0x1,(%r14)
    80d6:	49 89 46 08          	mov    %rax,0x8(%r14)
    80da:	48 89 01             	mov    %rax,(%rcx)
    80dd:	48 85 c0             	test   %rax,%rax
    80e0:	74 05                	je     80e7 <_ZN4core3ptr18real_drop_in_place17h4be1707f76cfefeeE.llvm.10308064416274954687+0x57>
    80e2:	41 c6 47 38 01       	movb   $0x1,0x38(%r15)
    80e7:	48 8b 03             	mov    (%rbx),%rax
    80ea:	48 8b 38             	mov    (%rax),%rdi
    80ed:	5b                   	pop    %rbx
    80ee:	41 5e                	pop    %r14
    80f0:	41 5f                	pop    %r15
    80f2:	ff 25 18 6d 22 00    	jmpq   *0x226d18(%rip)        # 22ee10 <_GLOBAL_OFFSET_TABLE_+0x380>
    80f8:	48 8d 3d bc ac 01 00 	lea    0x1acbc(%rip),%rdi        # 22dbb <anon.9aff47cfc7bc0ab43bec4bdb2a8d583b.12.llvm.10827810749348899414>
    80ff:	be 39 00 00 00       	mov    $0x39,%esi
    8104:	e8 37 ed ff ff       	callq  6e40 <_ZN4core6result13unwrap_failed17h8dea4bb8d8776a71E>
    8109:	0f 0b                	ud2    
    810b:	0f 1f 44 00 00       	nopl   0x0(%rax,%rax,1)

0000000000008110 <_ZN4core3ptr18real_drop_in_place17h5edc1a783cdf630cE.llvm.10308064416274954687>:
    8110:	41 57                	push   %r15
    8112:	41 56                	push   %r14
    8114:	53                   	push   %rbx
    8115:	48 89 fb             	mov    %rdi,%rbx
    8118:	80 7f 08 00          	cmpb   $0x0,0x8(%rdi)
    811c:	75 49                	jne    8167 <_ZN4core3ptr18real_drop_in_place17h5edc1a783cdf630cE.llvm.10308064416274954687+0x57>
    811e:	4c 8b 3b             	mov    (%rbx),%r15
    8121:	ff 15 b1 54 22 00    	callq  *0x2254b1(%rip)        # 22d5d8 <anon.cb107c2d85549501cc25b5e94e33ad5a.49.llvm.5822095925024908728>
    8127:	48 85 c0             	test   %rax,%rax
    812a:	74 4c                	je     8178 <_ZN4core3ptr18real_drop_in_place17h5edc1a783cdf630cE.llvm.10308064416274954687+0x68>
    812c:	49 89 c6             	mov    %rax,%r14
    812f:	48 83 38 01          	cmpq   $0x1,(%rax)
    8133:	75 0d                	jne    8142 <_ZN4core3ptr18real_drop_in_place17h5edc1a783cdf630cE.llvm.10308064416274954687+0x32>
    8135:	4c 89 f1             	mov    %r14,%rcx
    8138:	48 83 c1 08          	add    $0x8,%rcx
    813c:	49 8b 46 08          	mov    0x8(%r14),%rax
    8140:	eb 18                	jmp    815a <_ZN4core3ptr18real_drop_in_place17h5edc1a783cdf630cE.llvm.10308064416274954687+0x4a>
    8142:	ff 15 98 54 22 00    	callq  *0x225498(%rip)        # 22d5e0 <anon.cb107c2d85549501cc25b5e94e33ad5a.49.llvm.5822095925024908728+0x8>
    8148:	4c 89 f1             	mov    %r14,%rcx
    814b:	48 83 c1 08          	add    $0x8,%rcx
    814f:	49 c7 06 01 00 00 00 	movq   $0x1,(%r14)
    8156:	49 89 46 08          	mov    %rax,0x8(%r14)
    815a:	48 89 01             	mov    %rax,(%rcx)
    815d:	48 85 c0             	test   %rax,%rax
    8160:	74 05                	je     8167 <_ZN4core3ptr18real_drop_in_place17h5edc1a783cdf630cE.llvm.10308064416274954687+0x57>
    8162:	41 c6 47 08 01       	movb   $0x1,0x8(%r15)
    8167:	48 8b 03             	mov    (%rbx),%rax
    816a:	48 8b 38             	mov    (%rax),%rdi
    816d:	5b                   	pop    %rbx
    816e:	41 5e                	pop    %r14
    8170:	41 5f                	pop    %r15
    8172:	ff 25 98 6c 22 00    	jmpq   *0x226c98(%rip)        # 22ee10 <_GLOBAL_OFFSET_TABLE_+0x380>
    8178:	48 8d 3d 3c ac 01 00 	lea    0x1ac3c(%rip),%rdi        # 22dbb <anon.9aff47cfc7bc0ab43bec4bdb2a8d583b.12.llvm.10827810749348899414>
    817f:	be 39 00 00 00       	mov    $0x39,%esi
    8184:	e8 b7 ec ff ff       	callq  6e40 <_ZN4core6result13unwrap_failed17h8dea4bb8d8776a71E>
    8189:	0f 0b                	ud2    
    818b:	0f 1f 44 00 00       	nopl   0x0(%rax,%rax,1)

0000000000008190 <_ZN4core3ptr18real_drop_in_place17hb62a41ec9c655748E.llvm.10308064416274954687>:
    8190:	80 7f 08 03          	cmpb   $0x3,0x8(%rdi)
    8194:	75 01                	jne    8197 <_ZN4core3ptr18real_drop_in_place17hb62a41ec9c655748E.llvm.10308064416274954687+0x7>
    8196:	c3                   	retq   
    8197:	48 83 c7 08          	add    $0x8,%rdi
    819b:	e9 10 fe ff ff       	jmpq   7fb0 <_ZN4core3ptr18real_drop_in_place17h27d0fd17d65341eeE.llvm.10308064416274954687>

00000000000081a0 <_ZN4core3ptr18real_drop_in_place17hacc9873e04d4ffe9E.llvm.10308064416274954687>:
    81a0:	48 83 3f 00          	cmpq   $0x0,(%rdi)
    81a4:	74 09                	je     81af <_ZN4core3ptr18real_drop_in_place17hacc9873e04d4ffe9E.llvm.10308064416274954687+0xf>
    81a6:	48 83 c7 08          	add    $0x8,%rdi
    81aa:	e9 01 fe ff ff       	jmpq   7fb0 <_ZN4core3ptr18real_drop_in_place17h27d0fd17d65341eeE.llvm.10308064416274954687>
    81af:	c3                   	retq   

00000000000081b0 <_ZN4core3ptr18real_drop_in_place17hb1c70549fdd5687bE.llvm.10308064416274954687>:
    81b0:	80 3f 03             	cmpb   $0x3,(%rdi)
    81b3:	75 01                	jne    81b6 <_ZN4core3ptr18real_drop_in_place17hb1c70549fdd5687bE.llvm.10308064416274954687+0x6>
    81b5:	c3                   	retq   
    81b6:	e9 f5 fd ff ff       	jmpq   7fb0 <_ZN4core3ptr18real_drop_in_place17h27d0fd17d65341eeE.llvm.10308064416274954687>
    81bb:	0f 1f 44 00 00       	nopl   0x0(%rax,%rax,1)

00000000000081c0 <_ZN4core3ptr18real_drop_in_place17hbd48d90a87573caaE>:
    81c0:	48 8b 07             	mov    (%rdi),%rax
    81c3:	f0 48 81 28 01 00 00 	lock subq $0x1,(%rax)
    81ca:	00 
    81cb:	75 05                	jne    81d2 <_ZN4core3ptr18real_drop_in_place17hbd48d90a87573caaE+0x12>
    81cd:	e9 ce e3 ff ff       	jmpq   65a0 <_ZN34_$LT$alloc..sync..Arc$LT$T$GT$$GT$9drop_slow17h609eaa68712ad880E>
    81d2:	c3                   	retq   
    81d3:	66 2e 0f 1f 84 00 00 	nopw   %cs:0x0(%rax,%rax,1)
    81da:	00 00 00 
    81dd:	0f 1f 00             	nopl   (%rax)

00000000000081e0 <_ZN5alloc5alloc8box_free17habb2f4e088dcf1b4E.llvm.10308064416274954687>:
    81e0:	48 89 f0             	mov    %rsi,%rax
    81e3:	48 8b 76 08          	mov    0x8(%rsi),%rsi
    81e7:	48 85 f6             	test   %rsi,%rsi
    81ea:	74 0a                	je     81f6 <_ZN5alloc5alloc8box_free17habb2f4e088dcf1b4E.llvm.10308064416274954687+0x16>
    81ec:	48 8b 50 10          	mov    0x10(%rax),%rdx
    81f0:	ff 25 82 6a 22 00    	jmpq   *0x226a82(%rip)        # 22ec78 <_GLOBAL_OFFSET_TABLE_+0x1e8>
    81f6:	c3                   	retq   
    81f7:	66 0f 1f 84 00 00 00 	nopw   0x0(%rax,%rax,1)
    81fe:	00 00 

0000000000008200 <_ZN5alloc5alloc8box_free17hd88e60c97e400217E.llvm.10308064416274954687>:
    8200:	be 18 00 00 00       	mov    $0x18,%esi
    8205:	ba 08 00 00 00       	mov    $0x8,%edx
    820a:	ff 25 68 6a 22 00    	jmpq   *0x226a68(%rip)        # 22ec78 <_GLOBAL_OFFSET_TABLE_+0x1e8>

0000000000008210 <_ZN3std2io5stdio6stdout17h82b3a0ff78ccc5c4E>:
    8210:	53                   	push   %rbx
    8211:	48 83 ec 10          	sub    $0x10,%rsp
    8215:	48 8d 3d 4c 6e 22 00 	lea    0x226e4c(%rip),%rdi        # 22f068 <_ZN3std2io5stdio6stdout8INSTANCE17h3a548474fedc8117E>
    821c:	48 8d 35 4d 00 00 00 	lea    0x4d(%rip),%rsi        # 8270 <_ZN3std2io5stdio6stdout11stdout_init17hc7a38451007cae0eE>
    8223:	e8 b8 8c 00 00       	callq  10ee0 <_ZN37_$LT$std..io..lazy..Lazy$LT$T$GT$$GT$3get17h5e38f91f87468fbcE>
    8228:	48 89 44 24 08       	mov    %rax,0x8(%rsp)
    822d:	48 85 c0             	test   %rax,%rax
    8230:	74 06                	je     8238 <_ZN3std2io5stdio6stdout17h82b3a0ff78ccc5c4E+0x28>
    8232:	48 83 c4 10          	add    $0x10,%rsp
    8236:	5b                   	pop    %rbx
    8237:	c3                   	retq   
    8238:	48 8d 3d 9e a9 01 00 	lea    0x1a99e(%rip),%rdi        # 22bdd <anon.9aff47cfc7bc0ab43bec4bdb2a8d583b.0.llvm.10827810749348899414+0x59>
    823f:	be 24 00 00 00       	mov    $0x24,%esi
    8244:	ff 15 3e 6b 22 00    	callq  *0x226b3e(%rip)        # 22ed88 <_GLOBAL_OFFSET_TABLE_+0x2f8>
    824a:	0f 0b                	ud2    
    824c:	48 89 c3             	mov    %rax,%rbx
    824f:	48 8d 7c 24 08       	lea    0x8(%rsp),%rdi
    8254:	e8 e7 fd ff ff       	callq  8040 <_ZN4core3ptr18real_drop_in_place17h31b1ca6258a70af8E>
    8259:	48 89 df             	mov    %rbx,%rdi
    825c:	e8 d7 de ff ff       	callq  6138 <_init+0xf0>
    8261:	0f 0b                	ud2    
    8263:	66 2e 0f 1f 84 00 00 	nopw   %cs:0x0(%rax,%rax,1)
    826a:	00 00 00 
    826d:	0f 1f 00             	nopl   (%rax)

0000000000008270 <_ZN3std2io5stdio6stdout11stdout_init17hc7a38451007cae0eE>:
    8270:	41 57                	push   %r15
    8272:	41 56                	push   %r14
    8274:	53                   	push   %rbx
    8275:	48 83 ec 30          	sub    $0x30,%rsp
    8279:	bf 00 04 00 00       	mov    $0x400,%edi
    827e:	be 01 00 00 00       	mov    $0x1,%esi
    8283:	ff 15 7f 69 22 00    	callq  *0x22697f(%rip)        # 22ec08 <_GLOBAL_OFFSET_TABLE_+0x178>
    8289:	48 85 c0             	test   %rax,%rax
    828c:	0f 84 2d 01 00 00    	je     83bf <_ZN3std2io5stdio6stdout11stdout_init17hc7a38451007cae0eE+0x14f>
    8292:	49 89 c6             	mov    %rax,%r14
    8295:	0f b7 44 24 04       	movzwl 0x4(%rsp),%eax
    829a:	66 89 44 24 1c       	mov    %ax,0x1c(%rsp)
    829f:	8b 04 24             	mov    (%rsp),%eax
    82a2:	89 44 24 18          	mov    %eax,0x18(%rsp)
    82a6:	8b 44 24 08          	mov    0x8(%rsp),%eax
    82aa:	8b 4c 24 0b          	mov    0xb(%rsp),%ecx
    82ae:	89 44 24 28          	mov    %eax,0x28(%rsp)
    82b2:	89 4c 24 2b          	mov    %ecx,0x2b(%rsp)
    82b6:	bf 28 00 00 00       	mov    $0x28,%edi
    82bb:	be 08 00 00 00       	mov    $0x8,%esi
    82c0:	ff 15 42 69 22 00    	callq  *0x226942(%rip)        # 22ec08 <_GLOBAL_OFFSET_TABLE_+0x178>
    82c6:	48 85 c0             	test   %rax,%rax
    82c9:	0f 84 02 01 00 00    	je     83d1 <_ZN3std2io5stdio6stdout11stdout_init17hc7a38451007cae0eE+0x161>
    82cf:	49 89 c7             	mov    %rax,%r15
    82d2:	48 8d 5c 24 08       	lea    0x8(%rsp),%rbx
    82d7:	48 89 df             	mov    %rbx,%rdi
    82da:	ff 15 48 69 22 00    	callq  *0x226948(%rip)        # 22ec28 <_GLOBAL_OFFSET_TABLE_+0x198>
    82e0:	48 89 df             	mov    %rbx,%rdi
    82e3:	be 01 00 00 00       	mov    $0x1,%esi
    82e8:	ff 15 2a 6b 22 00    	callq  *0x226b2a(%rip)        # 22ee18 <_GLOBAL_OFFSET_TABLE_+0x388>
    82ee:	4c 89 ff             	mov    %r15,%rdi
    82f1:	48 89 de             	mov    %rbx,%rsi
    82f4:	ff 15 b6 6c 22 00    	callq  *0x226cb6(%rip)        # 22efb0 <_GLOBAL_OFFSET_TABLE_+0x520>
    82fa:	48 89 df             	mov    %rbx,%rdi
    82fd:	ff 15 e5 68 22 00    	callq  *0x2268e5(%rip)        # 22ebe8 <_GLOBAL_OFFSET_TABLE_+0x158>
    8303:	0f b7 44 24 1c       	movzwl 0x1c(%rsp),%eax
    8308:	66 89 44 24 14       	mov    %ax,0x14(%rsp)
    830d:	8b 44 24 18          	mov    0x18(%rsp),%eax
    8311:	89 44 24 10          	mov    %eax,0x10(%rsp)
    8315:	8b 44 24 28          	mov    0x28(%rsp),%eax
    8319:	8b 4c 24 2b          	mov    0x2b(%rsp),%ecx
    831d:	89 04 24             	mov    %eax,(%rsp)
    8320:	89 4c 24 03          	mov    %ecx,0x3(%rsp)
    8324:	8b 44 24 08          	mov    0x8(%rsp),%eax
    8328:	8b 4c 24 0b          	mov    0xb(%rsp),%ecx
    832c:	89 44 24 20          	mov    %eax,0x20(%rsp)
    8330:	89 4c 24 23          	mov    %ecx,0x23(%rsp)
    8334:	bf 50 00 00 00       	mov    $0x50,%edi
    8339:	be 08 00 00 00       	mov    $0x8,%esi
    833e:	ff 15 c4 68 22 00    	callq  *0x2268c4(%rip)        # 22ec08 <_GLOBAL_OFFSET_TABLE_+0x178>
    8344:	48 85 c0             	test   %rax,%rax
    8347:	0f 84 8b 00 00 00    	je     83d8 <_ZN3std2io5stdio6stdout11stdout_init17hc7a38451007cae0eE+0x168>
    834d:	48 c7 00 01 00 00 00 	movq   $0x1,(%rax)
    8354:	48 c7 40 08 01 00 00 	movq   $0x1,0x8(%rax)
    835b:	00 
    835c:	4c 89 78 10          	mov    %r15,0x10(%rax)
    8360:	48 c7 40 18 00 00 00 	movq   $0x0,0x18(%rax)
    8367:	00 
    8368:	4c 89 70 20          	mov    %r14,0x20(%rax)
    836c:	48 c7 40 28 00 04 00 	movq   $0x400,0x28(%rax)
    8373:	00 
    8374:	48 c7 40 30 00 00 00 	movq   $0x0,0x30(%rax)
    837b:	00 
    837c:	66 c7 40 38 00 00    	movw   $0x0,0x38(%rax)
    8382:	0f b7 4c 24 14       	movzwl 0x14(%rsp),%ecx
    8387:	66 89 48 3e          	mov    %cx,0x3e(%rax)
    838b:	8b 4c 24 10          	mov    0x10(%rsp),%ecx
    838f:	89 48 3a             	mov    %ecx,0x3a(%rax)
    8392:	c6 40 40 00          	movb   $0x0,0x40(%rax)
    8396:	8b 0c 24             	mov    (%rsp),%ecx
    8399:	8b 54 24 03          	mov    0x3(%rsp),%edx
    839d:	89 50 44             	mov    %edx,0x44(%rax)
    83a0:	89 48 41             	mov    %ecx,0x41(%rax)
    83a3:	c6 40 48 00          	movb   $0x0,0x48(%rax)
    83a7:	8b 4c 24 20          	mov    0x20(%rsp),%ecx
    83ab:	8b 54 24 23          	mov    0x23(%rsp),%edx
    83af:	89 50 4c             	mov    %edx,0x4c(%rax)
    83b2:	89 48 49             	mov    %ecx,0x49(%rax)
    83b5:	48 83 c4 30          	add    $0x30,%rsp
    83b9:	5b                   	pop    %rbx
    83ba:	41 5e                	pop    %r14
    83bc:	41 5f                	pop    %r15
    83be:	c3                   	retq   
    83bf:	bf 00 04 00 00       	mov    $0x400,%edi
    83c4:	be 01 00 00 00       	mov    $0x1,%esi
    83c9:	ff 15 61 6b 22 00    	callq  *0x226b61(%rip)        # 22ef30 <_GLOBAL_OFFSET_TABLE_+0x4a0>
    83cf:	0f 0b                	ud2    
    83d1:	bf 28 00 00 00       	mov    $0x28,%edi
    83d6:	eb 05                	jmp    83dd <_ZN3std2io5stdio6stdout11stdout_init17hc7a38451007cae0eE+0x16d>
    83d8:	bf 50 00 00 00       	mov    $0x50,%edi
    83dd:	be 08 00 00 00       	mov    $0x8,%esi
    83e2:	ff 15 48 6b 22 00    	callq  *0x226b48(%rip)        # 22ef30 <_GLOBAL_OFFSET_TABLE_+0x4a0>
    83e8:	0f 0b                	ud2    
    83ea:	66 0f 1f 44 00 00    	nopw   0x0(%rax,%rax,1)

00000000000083f0 <_ZN57_$LT$std..io..stdio..Stdout$u20$as$u20$std..io..Write$GT$9write_fmt17h210172f4990b19bfE>:
    83f0:	55                   	push   %rbp
    83f1:	41 57                	push   %r15
    83f3:	41 56                	push   %r14
    83f5:	41 55                	push   %r13
    83f7:	41 54                	push   %r12
    83f9:	53                   	push   %rbx
    83fa:	48 83 ec 68          	sub    $0x68,%rsp
    83fe:	49 89 d7             	mov    %rdx,%r15
    8401:	49 89 fe             	mov    %rdi,%r14
    8404:	4c 8b 2e             	mov    (%rsi),%r13
    8407:	49 8b 7d 10          	mov    0x10(%r13),%rdi
    840b:	ff 15 bf 6b 22 00    	callq  *0x226bbf(%rip)        # 22efd0 <_GLOBAL_OFFSET_TABLE_+0x540>
    8411:	4c 8b 25 c0 51 22 00 	mov    0x2251c0(%rip),%r12        # 22d5d8 <anon.cb107c2d85549501cc25b5e94e33ad5a.49.llvm.5822095925024908728>
    8418:	41 ff d4             	callq  *%r12
    841b:	48 85 c0             	test   %rax,%rax
    841e:	0f 84 ee 01 00 00    	je     8612 <_ZN57_$LT$std..io..stdio..Stdout$u20$as$u20$std..io..Write$GT$9write_fmt17h210172f4990b19bfE+0x222>
    8424:	48 89 c3             	mov    %rax,%rbx
    8427:	49 8d 6d 10          	lea    0x10(%r13),%rbp
    842b:	48 83 38 01          	cmpq   $0x1,(%rax)
    842f:	75 0d                	jne    843e <_ZN57_$LT$std..io..stdio..Stdout$u20$as$u20$std..io..Write$GT$9write_fmt17h210172f4990b19bfE+0x4e>
    8431:	48 89 d9             	mov    %rbx,%rcx
    8434:	48 83 c1 08          	add    $0x8,%rcx
    8438:	48 8b 43 08          	mov    0x8(%rbx),%rax
    843c:	eb 18                	jmp    8456 <_ZN57_$LT$std..io..stdio..Stdout$u20$as$u20$std..io..Write$GT$9write_fmt17h210172f4990b19bfE+0x66>
    843e:	ff 15 9c 51 22 00    	callq  *0x22519c(%rip)        # 22d5e0 <anon.cb107c2d85549501cc25b5e94e33ad5a.49.llvm.5822095925024908728+0x8>
    8444:	48 89 d9             	mov    %rbx,%rcx
    8447:	48 83 c1 08          	add    $0x8,%rcx
    844b:	48 c7 03 01 00 00 00 	movq   $0x1,(%rbx)
    8452:	48 89 43 08          	mov    %rax,0x8(%rbx)
    8456:	48 89 01             	mov    %rax,(%rcx)
    8459:	48 85 c0             	test   %rax,%rax
    845c:	41 8a 45 48          	mov    0x48(%r13),%al
    8460:	48 89 6c 24 08       	mov    %rbp,0x8(%rsp)
    8465:	0f 95 44 24 10       	setne  0x10(%rsp)
    846a:	48 8d 44 24 08       	lea    0x8(%rsp),%rax
    846f:	48 89 44 24 18       	mov    %rax,0x18(%rsp)
    8474:	c6 44 24 20 03       	movb   $0x3,0x20(%rsp)
    8479:	41 0f 10 07          	movups (%r15),%xmm0
    847d:	41 0f 10 4f 10       	movups 0x10(%r15),%xmm1
    8482:	41 0f 10 57 20       	movups 0x20(%r15),%xmm2
    8487:	0f 29 54 24 50       	movaps %xmm2,0x50(%rsp)
    848c:	0f 29 4c 24 40       	movaps %xmm1,0x40(%rsp)
    8491:	0f 29 44 24 30       	movaps %xmm0,0x30(%rsp)
    8496:	48 8d 35 2b 4c 22 00 	lea    0x224c2b(%rip),%rsi        # 22d0c8 <anon.d71f1804726653ea8be9c8cf63aeda24.34.llvm.10308064416274954687>
    849d:	48 8d 7c 24 18       	lea    0x18(%rsp),%rdi
    84a2:	48 8d 54 24 30       	lea    0x30(%rsp),%rdx
    84a7:	ff 15 fb 65 22 00    	callq  *0x2265fb(%rip)        # 22eaa8 <_GLOBAL_OFFSET_TABLE_+0x18>
    84ad:	84 c0                	test   %al,%al
    84af:	74 7d                	je     852e <_ZN57_$LT$std..io..stdio..Stdout$u20$as$u20$std..io..Write$GT$9write_fmt17h210172f4990b19bfE+0x13e>
    84b1:	80 7c 24 20 03       	cmpb   $0x3,0x20(%rsp)
    84b6:	0f 85 8f 00 00 00    	jne    854b <_ZN57_$LT$std..io..stdio..Stdout$u20$as$u20$std..io..Write$GT$9write_fmt17h210172f4990b19bfE+0x15b>
    84bc:	48 8d 3d 8b a7 01 00 	lea    0x1a78b(%rip),%rdi        # 22c4e <anon.d71f1804726653ea8be9c8cf63aeda24.33.llvm.10308064416274954687>
    84c3:	be 0f 00 00 00       	mov    $0xf,%esi
    84c8:	ff 15 32 6a 22 00    	callq  *0x226a32(%rip)        # 22ef00 <_GLOBAL_OFFSET_TABLE_+0x470>
    84ce:	48 89 c3             	mov    %rax,%rbx
    84d1:	49 89 d7             	mov    %rdx,%r15
    84d4:	bf 18 00 00 00       	mov    $0x18,%edi
    84d9:	be 08 00 00 00       	mov    $0x8,%esi
    84de:	ff 15 24 67 22 00    	callq  *0x226724(%rip)        # 22ec08 <_GLOBAL_OFFSET_TABLE_+0x178>
    84e4:	48 85 c0             	test   %rax,%rax
    84e7:	0f 84 38 01 00 00    	je     8625 <_ZN57_$LT$std..io..stdio..Stdout$u20$as$u20$std..io..Write$GT$9write_fmt17h210172f4990b19bfE+0x235>
    84ed:	48 89 18             	mov    %rbx,(%rax)
    84f0:	4c 89 78 08          	mov    %r15,0x8(%rax)
    84f4:	c6 40 10 10          	movb   $0x10,0x10(%rax)
    84f8:	8b 4c 24 30          	mov    0x30(%rsp),%ecx
    84fc:	8b 54 24 33          	mov    0x33(%rsp),%edx
    8500:	89 50 14             	mov    %edx,0x14(%rax)
    8503:	89 48 11             	mov    %ecx,0x11(%rax)
    8506:	8b 4c 24 30          	mov    0x30(%rsp),%ecx
    850a:	8b 54 24 33          	mov    0x33(%rsp),%edx
    850e:	89 54 24 03          	mov    %edx,0x3(%rsp)
    8512:	89 0c 24             	mov    %ecx,(%rsp)
    8515:	41 c6 06 02          	movb   $0x2,(%r14)
    8519:	8b 0c 24             	mov    (%rsp),%ecx
    851c:	8b 54 24 03          	mov    0x3(%rsp),%edx
    8520:	41 89 56 04          	mov    %edx,0x4(%r14)
    8524:	41 89 4e 01          	mov    %ecx,0x1(%r14)
    8528:	49 89 46 08          	mov    %rax,0x8(%r14)
    852c:	eb 04                	jmp    8532 <_ZN57_$LT$std..io..stdio..Stdout$u20$as$u20$std..io..Write$GT$9write_fmt17h210172f4990b19bfE+0x142>
    852e:	41 c6 06 03          	movb   $0x3,(%r14)
    8532:	8a 44 24 20          	mov    0x20(%rsp),%al
    8536:	3c 03                	cmp    $0x3,%al
    8538:	77 2a                	ja     8564 <_ZN57_$LT$std..io..stdio..Stdout$u20$as$u20$std..io..Write$GT$9write_fmt17h210172f4990b19bfE+0x174>
    853a:	3c 02                	cmp    $0x2,%al
    853c:	74 26                	je     8564 <_ZN57_$LT$std..io..stdio..Stdout$u20$as$u20$std..io..Write$GT$9write_fmt17h210172f4990b19bfE+0x174>
    853e:	80 7c 24 10 00       	cmpb   $0x0,0x10(%rsp)
    8543:	0f 85 a9 00 00 00    	jne    85f2 <_ZN57_$LT$std..io..stdio..Stdout$u20$as$u20$std..io..Write$GT$9write_fmt17h210172f4990b19bfE+0x202>
    8549:	eb 5f                	jmp    85aa <_ZN57_$LT$std..io..stdio..Stdout$u20$as$u20$std..io..Write$GT$9write_fmt17h210172f4990b19bfE+0x1ba>
    854b:	48 8d 44 24 20       	lea    0x20(%rsp),%rax
    8550:	0f 10 00             	movups (%rax),%xmm0
    8553:	41 0f 11 06          	movups %xmm0,(%r14)
    8557:	80 7c 24 10 00       	cmpb   $0x0,0x10(%rsp)
    855c:	0f 85 90 00 00 00    	jne    85f2 <_ZN57_$LT$std..io..stdio..Stdout$u20$as$u20$std..io..Write$GT$9write_fmt17h210172f4990b19bfE+0x202>
    8562:	eb 46                	jmp    85aa <_ZN57_$LT$std..io..stdio..Stdout$u20$as$u20$std..io..Write$GT$9write_fmt17h210172f4990b19bfE+0x1ba>
    8564:	48 8b 6c 24 28       	mov    0x28(%rsp),%rbp
    8569:	48 8b 7d 00          	mov    0x0(%rbp),%rdi
    856d:	48 8b 45 08          	mov    0x8(%rbp),%rax
    8571:	ff 10                	callq  *(%rax)
    8573:	48 8b 45 08          	mov    0x8(%rbp),%rax
    8577:	48 8b 70 08          	mov    0x8(%rax),%rsi
    857b:	48 85 f6             	test   %rsi,%rsi
    857e:	74 0e                	je     858e <_ZN57_$LT$std..io..stdio..Stdout$u20$as$u20$std..io..Write$GT$9write_fmt17h210172f4990b19bfE+0x19e>
    8580:	48 8b 7d 00          	mov    0x0(%rbp),%rdi
    8584:	48 8b 50 10          	mov    0x10(%rax),%rdx
    8588:	ff 15 ea 66 22 00    	callq  *0x2266ea(%rip)        # 22ec78 <_GLOBAL_OFFSET_TABLE_+0x1e8>
    858e:	48 8b 7c 24 28       	mov    0x28(%rsp),%rdi
    8593:	be 18 00 00 00       	mov    $0x18,%esi
    8598:	ba 08 00 00 00       	mov    $0x8,%edx
    859d:	ff 15 d5 66 22 00    	callq  *0x2266d5(%rip)        # 22ec78 <_GLOBAL_OFFSET_TABLE_+0x1e8>
    85a3:	80 7c 24 10 00       	cmpb   $0x0,0x10(%rsp)
    85a8:	75 48                	jne    85f2 <_ZN57_$LT$std..io..stdio..Stdout$u20$as$u20$std..io..Write$GT$9write_fmt17h210172f4990b19bfE+0x202>
    85aa:	4c 8b 7c 24 08       	mov    0x8(%rsp),%r15
    85af:	41 ff d4             	callq  *%r12
    85b2:	48 85 c0             	test   %rax,%rax
    85b5:	74 5b                	je     8612 <_ZN57_$LT$std..io..stdio..Stdout$u20$as$u20$std..io..Write$GT$9write_fmt17h210172f4990b19bfE+0x222>
    85b7:	48 89 c3             	mov    %rax,%rbx
    85ba:	48 83 38 01          	cmpq   $0x1,(%rax)
    85be:	75 0d                	jne    85cd <_ZN57_$LT$std..io..stdio..Stdout$u20$as$u20$std..io..Write$GT$9write_fmt17h210172f4990b19bfE+0x1dd>
    85c0:	48 89 d9             	mov    %rbx,%rcx
    85c3:	48 83 c1 08          	add    $0x8,%rcx
    85c7:	48 8b 43 08          	mov    0x8(%rbx),%rax
    85cb:	eb 18                	jmp    85e5 <_ZN57_$LT$std..io..stdio..Stdout$u20$as$u20$std..io..Write$GT$9write_fmt17h210172f4990b19bfE+0x1f5>
    85cd:	ff 15 0d 50 22 00    	callq  *0x22500d(%rip)        # 22d5e0 <anon.cb107c2d85549501cc25b5e94e33ad5a.49.llvm.5822095925024908728+0x8>
    85d3:	48 89 d9             	mov    %rbx,%rcx
    85d6:	48 83 c1 08          	add    $0x8,%rcx
    85da:	48 c7 03 01 00 00 00 	movq   $0x1,(%rbx)
    85e1:	48 89 43 08          	mov    %rax,0x8(%rbx)
    85e5:	48 89 01             	mov    %rax,(%rcx)
    85e8:	48 85 c0             	test   %rax,%rax
    85eb:	74 05                	je     85f2 <_ZN57_$LT$std..io..stdio..Stdout$u20$as$u20$std..io..Write$GT$9write_fmt17h210172f4990b19bfE+0x202>
    85ed:	41 c6 47 38 01       	movb   $0x1,0x38(%r15)
    85f2:	48 8b 44 24 08       	mov    0x8(%rsp),%rax
    85f7:	48 8b 38             	mov    (%rax),%rdi
    85fa:	ff 15 10 68 22 00    	callq  *0x226810(%rip)        # 22ee10 <_GLOBAL_OFFSET_TABLE_+0x380>
    8600:	4c 89 f0             	mov    %r14,%rax
    8603:	48 83 c4 68          	add    $0x68,%rsp
    8607:	5b                   	pop    %rbx
    8608:	41 5c                	pop    %r12
    860a:	41 5d                	pop    %r13
    860c:	41 5e                	pop    %r14
    860e:	41 5f                	pop    %r15
    8610:	5d                   	pop    %rbp
    8611:	c3                   	retq   
    8612:	48 8d 3d a2 a7 01 00 	lea    0x1a7a2(%rip),%rdi        # 22dbb <anon.9aff47cfc7bc0ab43bec4bdb2a8d583b.12.llvm.10827810749348899414>
    8619:	be 39 00 00 00       	mov    $0x39,%esi
    861e:	e8 1d e8 ff ff       	callq  6e40 <_ZN4core6result13unwrap_failed17h8dea4bb8d8776a71E>
    8623:	0f 0b                	ud2    
    8625:	bf 18 00 00 00       	mov    $0x18,%edi
    862a:	be 08 00 00 00       	mov    $0x8,%esi
    862f:	ff 15 fb 68 22 00    	callq  *0x2268fb(%rip)        # 22ef30 <_GLOBAL_OFFSET_TABLE_+0x4a0>
    8635:	0f 0b                	ud2    
    8637:	48 89 c3             	mov    %rax,%rbx
    863a:	48 8b 7d 00          	mov    0x0(%rbp),%rdi
    863e:	48 8b 75 08          	mov    0x8(%rbp),%rsi
    8642:	e8 99 fb ff ff       	callq  81e0 <_ZN5alloc5alloc8box_free17habb2f4e088dcf1b4E.llvm.10308064416274954687>
    8647:	48 8b 7c 24 28       	mov    0x28(%rsp),%rdi
    864c:	e8 af fb ff ff       	callq  8200 <_ZN5alloc5alloc8box_free17hd88e60c97e400217E.llvm.10308064416274954687>
    8651:	eb 0d                	jmp    8660 <_ZN57_$LT$std..io..stdio..Stdout$u20$as$u20$std..io..Write$GT$9write_fmt17h210172f4990b19bfE+0x270>
    8653:	48 89 c3             	mov    %rax,%rbx
    8656:	48 8d 7c 24 18       	lea    0x18(%rsp),%rdi
    865b:	e8 30 fb ff ff       	callq  8190 <_ZN4core3ptr18real_drop_in_place17hb62a41ec9c655748E.llvm.10308064416274954687>
    8660:	48 8d 7c 24 08       	lea    0x8(%rsp),%rdi
    8665:	e8 26 fa ff ff       	callq  8090 <_ZN4core3ptr18real_drop_in_place17h4be1707f76cfefeeE.llvm.10308064416274954687>
    866a:	48 89 df             	mov    %rbx,%rdi
    866d:	e8 c6 da ff ff       	callq  6138 <_init+0xf0>
    8672:	0f 0b                	ud2    
    8674:	48 89 c3             	mov    %rax,%rbx
    8677:	eb e7                	jmp    8660 <_ZN57_$LT$std..io..stdio..Stdout$u20$as$u20$std..io..Write$GT$9write_fmt17h210172f4990b19bfE+0x270>
    8679:	0f 1f 80 00 00 00 00 	nopl   0x0(%rax)

0000000000008680 <_ZN3std2io5stdio6_print17h931abde4300c0641E>:
    8680:	41 56                	push   %r14
    8682:	53                   	push   %rbx
    8683:	48 81 ec c8 00 00 00 	sub    $0xc8,%rsp
    868a:	0f 10 07             	movups (%rdi),%xmm0
    868d:	0f 10 4f 10          	movups 0x10(%rdi),%xmm1
    8691:	0f 10 57 20          	movups 0x20(%rdi),%xmm2
    8695:	0f 29 94 24 b0 00 00 	movaps %xmm2,0xb0(%rsp)
    869c:	00 
    869d:	0f 29 8c 24 a0 00 00 	movaps %xmm1,0xa0(%rsp)
    86a4:	00 
    86a5:	0f 29 84 24 90 00 00 	movaps %xmm0,0x90(%rsp)
    86ac:	00 
    86ad:	48 8d 05 5c fb ff ff 	lea    -0x4a4(%rip),%rax        # 8210 <_ZN3std2io5stdio6stdout17h82b3a0ff78ccc5c4E>
    86b4:	48 89 44 24 18       	mov    %rax,0x18(%rsp)
    86b9:	48 8d 05 6c a5 01 00 	lea    0x1a56c(%rip),%rax        # 22c2c <anon.9aff47cfc7bc0ab43bec4bdb2a8d583b.0.llvm.10827810749348899414+0xa8>
    86c0:	48 89 84 24 80 00 00 	mov    %rax,0x80(%rsp)
    86c7:	00 
    86c8:	48 c7 84 24 88 00 00 	movq   $0x6,0x88(%rsp)
    86cf:	00 06 00 00 00 
    86d4:	48 8d 35 a5 49 22 00 	lea    0x2249a5(%rip),%rsi        # 22d080 <anon.ff2dd124ec5e25f1c1e32fbc2f3b208a.38.llvm.9634770799887424769+0x28>
    86db:	4c 8d 74 24 20       	lea    0x20(%rsp),%r14
    86e0:	48 8d 94 24 90 00 00 	lea    0x90(%rsp),%rdx
    86e7:	00 
    86e8:	48 8d 4c 24 18       	lea    0x18(%rsp),%rcx
    86ed:	4c 89 f7             	mov    %r14,%rdi
    86f0:	e8 2b 16 00 00       	callq  9d20 <_ZN46_$LT$std..thread..local..LocalKey$LT$T$GT$$GT$8try_with17h942a00161dd7c481E>
    86f5:	80 7c 24 20 04       	cmpb   $0x4,0x20(%rsp)
    86fa:	0f 85 a8 00 00 00    	jne    87a8 <_ZN3std2io5stdio6_print17h931abde4300c0641E+0x128>
    8700:	ff 54 24 18          	callq  *0x18(%rsp)
    8704:	48 89 04 24          	mov    %rax,(%rsp)
    8708:	0f 28 84 24 90 00 00 	movaps 0x90(%rsp),%xmm0
    870f:	00 
    8710:	0f 28 8c 24 a0 00 00 	movaps 0xa0(%rsp),%xmm1
    8717:	00 
    8718:	0f 28 94 24 b0 00 00 	movaps 0xb0(%rsp),%xmm2
    871f:	00 
    8720:	0f 29 54 24 70       	movaps %xmm2,0x70(%rsp)
    8725:	0f 29 4c 24 60       	movaps %xmm1,0x60(%rsp)
    872a:	0f 29 44 24 50       	movaps %xmm0,0x50(%rsp)
    872f:	48 8d 7c 24 40       	lea    0x40(%rsp),%rdi
    8734:	48 89 e6             	mov    %rsp,%rsi
    8737:	48 8d 54 24 50       	lea    0x50(%rsp),%rdx
    873c:	ff 15 96 66 22 00    	callq  *0x226696(%rip)        # 22edd8 <_GLOBAL_OFFSET_TABLE_+0x348>
    8742:	48 8b 04 24          	mov    (%rsp),%rax
    8746:	f0 48 81 28 01 00 00 	lock subq $0x1,(%rax)
    874d:	00 
    874e:	75 08                	jne    8758 <_ZN3std2io5stdio6_print17h931abde4300c0641E+0xd8>
    8750:	48 89 e7             	mov    %rsp,%rdi
    8753:	e8 48 de ff ff       	callq  65a0 <_ZN34_$LT$alloc..sync..Arc$LT$T$GT$$GT$9drop_slow17h609eaa68712ad880E>
    8758:	8a 44 24 20          	mov    0x20(%rsp),%al
    875c:	3c 04                	cmp    $0x4,%al
    875e:	77 04                	ja     8764 <_ZN3std2io5stdio6_print17h931abde4300c0641E+0xe4>
    8760:	3c 02                	cmp    $0x2,%al
    8762:	75 4e                	jne    87b2 <_ZN3std2io5stdio6_print17h931abde4300c0641E+0x132>
    8764:	48 8b 5c 24 28       	mov    0x28(%rsp),%rbx
    8769:	48 8b 3b             	mov    (%rbx),%rdi
    876c:	48 8b 43 08          	mov    0x8(%rbx),%rax
    8770:	ff 10                	callq  *(%rax)
    8772:	48 8b 43 08          	mov    0x8(%rbx),%rax
    8776:	48 8b 70 08          	mov    0x8(%rax),%rsi
    877a:	48 85 f6             	test   %rsi,%rsi
    877d:	74 0d                	je     878c <_ZN3std2io5stdio6_print17h931abde4300c0641E+0x10c>
    877f:	48 8b 3b             	mov    (%rbx),%rdi
    8782:	48 8b 50 10          	mov    0x10(%rax),%rdx
    8786:	ff 15 ec 64 22 00    	callq  *0x2264ec(%rip)        # 22ec78 <_GLOBAL_OFFSET_TABLE_+0x1e8>
    878c:	be 18 00 00 00       	mov    $0x18,%esi
    8791:	ba 08 00 00 00       	mov    $0x8,%edx
    8796:	48 89 df             	mov    %rbx,%rdi
    8799:	ff 15 d9 64 22 00    	callq  *0x2264d9(%rip)        # 22ec78 <_GLOBAL_OFFSET_TABLE_+0x1e8>
    879f:	80 7c 24 40 03       	cmpb   $0x3,0x40(%rsp)
    87a4:	74 13                	je     87b9 <_ZN3std2io5stdio6_print17h931abde4300c0641E+0x139>
    87a6:	eb 1c                	jmp    87c4 <_ZN3std2io5stdio6_print17h931abde4300c0641E+0x144>
    87a8:	0f 10 44 24 20       	movups 0x20(%rsp),%xmm0
    87ad:	0f 29 44 24 40       	movaps %xmm0,0x40(%rsp)
    87b2:	80 7c 24 40 03       	cmpb   $0x3,0x40(%rsp)
    87b7:	75 0b                	jne    87c4 <_ZN3std2io5stdio6_print17h931abde4300c0641E+0x144>
    87b9:	48 81 c4 c8 00 00 00 	add    $0xc8,%rsp
    87c0:	5b                   	pop    %rbx
    87c1:	41 5e                	pop    %r14
    87c3:	c3                   	retq   
    87c4:	0f 28 44 24 40       	movaps 0x40(%rsp),%xmm0
    87c9:	0f 29 04 24          	movaps %xmm0,(%rsp)
    87cd:	48 8d 84 24 80 00 00 	lea    0x80(%rsp),%rax
    87d4:	00 
    87d5:	48 89 44 24 20       	mov    %rax,0x20(%rsp)
    87da:	48 8d 05 3f e0 ff ff 	lea    -0x1fc1(%rip),%rax        # 6820 <_ZN44_$LT$$RF$T$u20$as$u20$core..fmt..Display$GT$3fmt17h262045c00756d9b4E>
    87e1:	48 89 44 24 28       	mov    %rax,0x28(%rsp)
    87e6:	48 89 e0             	mov    %rsp,%rax
    87e9:	48 89 44 24 30       	mov    %rax,0x30(%rsp)
    87ee:	48 8d 05 3b 99 00 00 	lea    0x993b(%rip),%rax        # 12130 <_ZN60_$LT$std..io..error..Error$u20$as$u20$core..fmt..Display$GT$3fmt17hc0e7e71def5cda2cE>
    87f5:	48 89 44 24 38       	mov    %rax,0x38(%rsp)
    87fa:	48 8d 05 8f 48 22 00 	lea    0x22488f(%rip),%rax        # 22d090 <anon.ff2dd124ec5e25f1c1e32fbc2f3b208a.38.llvm.9634770799887424769+0x38>
    8801:	48 89 44 24 50       	mov    %rax,0x50(%rsp)
    8806:	48 c7 44 24 58 02 00 	movq   $0x2,0x58(%rsp)
    880d:	00 00 
    880f:	48 c7 44 24 60 00 00 	movq   $0x0,0x60(%rsp)
    8816:	00 00 
    8818:	4c 89 74 24 70       	mov    %r14,0x70(%rsp)
    881d:	48 c7 44 24 78 02 00 	movq   $0x2,0x78(%rsp)
    8824:	00 00 
    8826:	48 8d 35 83 48 22 00 	lea    0x224883(%rip),%rsi        # 22d0b0 <anon.ff2dd124ec5e25f1c1e32fbc2f3b208a.38.llvm.9634770799887424769+0x58>
    882d:	48 8d 7c 24 50       	lea    0x50(%rsp),%rdi
    8832:	ff 15 08 63 22 00    	callq  *0x226308(%rip)        # 22eb40 <_GLOBAL_OFFSET_TABLE_+0xb0>
    8838:	0f 0b                	ud2    
    883a:	49 89 c6             	mov    %rax,%r14
    883d:	48 89 e7             	mov    %rsp,%rdi
    8840:	e8 6b f7 ff ff       	callq  7fb0 <_ZN4core3ptr18real_drop_in_place17h27d0fd17d65341eeE.llvm.10308064416274954687>
    8845:	eb 3a                	jmp    8881 <_ZN3std2io5stdio6_print17h931abde4300c0641E+0x201>
    8847:	49 89 c6             	mov    %rax,%r14
    884a:	48 8b 3b             	mov    (%rbx),%rdi
    884d:	48 8b 73 08          	mov    0x8(%rbx),%rsi
    8851:	e8 8a f9 ff ff       	callq  81e0 <_ZN5alloc5alloc8box_free17habb2f4e088dcf1b4E.llvm.10308064416274954687>
    8856:	48 89 df             	mov    %rbx,%rdi
    8859:	e8 a2 f9 ff ff       	callq  8200 <_ZN5alloc5alloc8box_free17hd88e60c97e400217E.llvm.10308064416274954687>
    885e:	eb 21                	jmp    8881 <_ZN3std2io5stdio6_print17h931abde4300c0641E+0x201>
    8860:	49 89 c6             	mov    %rax,%r14
    8863:	48 89 e7             	mov    %rsp,%rdi
    8866:	e8 55 f9 ff ff       	callq  81c0 <_ZN4core3ptr18real_drop_in_place17hbd48d90a87573caaE>
    886b:	eb 14                	jmp    8881 <_ZN3std2io5stdio6_print17h931abde4300c0641E+0x201>
    886d:	49 89 c6             	mov    %rax,%r14
    8870:	80 7c 24 20 04       	cmpb   $0x4,0x20(%rsp)
    8875:	74 0a                	je     8881 <_ZN3std2io5stdio6_print17h931abde4300c0641E+0x201>
    8877:	48 8d 7c 24 20       	lea    0x20(%rsp),%rdi
    887c:	e8 2f f9 ff ff       	callq  81b0 <_ZN4core3ptr18real_drop_in_place17hb1c70549fdd5687bE.llvm.10308064416274954687>
    8881:	4c 89 f7             	mov    %r14,%rdi
    8884:	e8 af d8 ff ff       	callq  6138 <_init+0xf0>
    8889:	0f 0b                	ud2    
    888b:	0f 1f 44 00 00       	nopl   0x0(%rax,%rax,1)

0000000000008890 <_ZN3std2io5Write9write_all17hb497998d555c2bf9E>:
    8890:	55                   	push   %rbp
    8891:	41 57                	push   %r15
    8893:	41 56                	push   %r14
    8895:	41 55                	push   %r13
    8897:	41 54                	push   %r12
    8899:	53                   	push   %rbx
    889a:	48 83 ec 38          	sub    $0x38,%rsp
    889e:	48 89 7c 24 08       	mov    %rdi,0x8(%rsp)
    88a3:	48 85 c9             	test   %rcx,%rcx
    88a6:	0f 84 3d 01 00 00    	je     89e9 <_ZN3std2io5Write9write_all17hb497998d555c2bf9E+0x159>
    88ac:	48 89 cb             	mov    %rcx,%rbx
    88af:	49 89 d7             	mov    %rdx,%r15
    88b2:	49 89 f4             	mov    %rsi,%r12
    88b5:	4c 8d 6c 24 20       	lea    0x20(%rsp),%r13
    88ba:	4c 8d 35 bf dc ff ff 	lea    -0x2341(%rip),%r14        # 6580 <__rust_dealloc>
    88c1:	66 2e 0f 1f 84 00 00 	nopw   %cs:0x0(%rax,%rax,1)
    88c8:	00 00 00 
    88cb:	0f 1f 44 00 00       	nopl   0x0(%rax,%rax,1)
    88d0:	49 8b 34 24          	mov    (%r12),%rsi
    88d4:	48 83 7e 08 00       	cmpq   $0x0,0x8(%rsi)
    88d9:	0f 85 97 01 00 00    	jne    8a76 <_ZN3std2io5Write9write_all17hb497998d555c2bf9E+0x1e6>
    88df:	48 c7 46 08 ff ff ff 	movq   $0xffffffffffffffff,0x8(%rsi)
    88e6:	ff 
    88e7:	48 8d 6e 08          	lea    0x8(%rsi),%rbp
    88eb:	48 83 c6 10          	add    $0x10,%rsi
    88ef:	48 89 74 24 10       	mov    %rsi,0x10(%rsp)
    88f4:	48 89 6c 24 18       	mov    %rbp,0x18(%rsp)
    88f9:	4c 89 ef             	mov    %r13,%rdi
    88fc:	4c 89 fa             	mov    %r15,%rdx
    88ff:	48 89 d9             	mov    %rbx,%rcx
    8902:	e8 19 ed ff ff       	callq  7620 <_ZN73_$LT$std..io..buffered..LineWriter$LT$W$GT$$u20$as$u20$std..io..Write$GT$5write17h6b181302de405c4aE>
    8907:	48 83 45 00 01       	addq   $0x1,0x0(%rbp)
    890c:	48 83 7c 24 20 01    	cmpq   $0x1,0x20(%rsp)
    8912:	75 7c                	jne    8990 <_ZN3std2io5Write9write_all17hb497998d555c2bf9E+0x100>
    8914:	0f b6 6c 24 28       	movzbl 0x28(%rsp),%ebp
    8919:	48 83 fd 01          	cmp    $0x1,%rbp
    891d:	0f 84 94 00 00 00    	je     89b7 <_ZN3std2io5Write9write_all17hb497998d555c2bf9E+0x127>
    8923:	48 83 fd 02          	cmp    $0x2,%rbp
    8927:	0f 85 99 00 00 00    	jne    89c6 <_ZN3std2io5Write9write_all17hb497998d555c2bf9E+0x136>
    892d:	48 8b 44 24 30       	mov    0x30(%rsp),%rax
    8932:	0f b6 40 10          	movzbl 0x10(%rax),%eax
    8936:	3c 0f                	cmp    $0xf,%al
    8938:	0f 85 99 00 00 00    	jne    89d7 <_ZN3std2io5Write9write_all17hb497998d555c2bf9E+0x147>
    893e:	40 80 fd 02          	cmp    $0x2,%bpl
    8942:	72 37                	jb     897b <_ZN3std2io5Write9write_all17hb497998d555c2bf9E+0xeb>
    8944:	48 8b 6c 24 30       	mov    0x30(%rsp),%rbp
    8949:	48 8b 7d 00          	mov    0x0(%rbp),%rdi
    894d:	48 8b 45 08          	mov    0x8(%rbp),%rax
    8951:	ff 10                	callq  *(%rax)
    8953:	48 8b 45 08          	mov    0x8(%rbp),%rax
    8957:	48 8b 70 08          	mov    0x8(%rax),%rsi
    895b:	48 85 f6             	test   %rsi,%rsi
    895e:	74 0b                	je     896b <_ZN3std2io5Write9write_all17hb497998d555c2bf9E+0xdb>
    8960:	48 8b 7d 00          	mov    0x0(%rbp),%rdi
    8964:	48 8b 50 10          	mov    0x10(%rax),%rdx
    8968:	41 ff d6             	callq  *%r14
    896b:	be 18 00 00 00       	mov    $0x18,%esi
    8970:	ba 08 00 00 00       	mov    $0x8,%edx
    8975:	48 89 ef             	mov    %rbp,%rdi
    8978:	41 ff d6             	callq  *%r14
    897b:	48 85 db             	test   %rbx,%rbx
    897e:	0f 85 4c ff ff ff    	jne    88d0 <_ZN3std2io5Write9write_all17hb497998d555c2bf9E+0x40>
    8984:	eb 63                	jmp    89e9 <_ZN3std2io5Write9write_all17hb497998d555c2bf9E+0x159>
    8986:	66 2e 0f 1f 84 00 00 	nopw   %cs:0x0(%rax,%rax,1)
    898d:	00 00 00 
    8990:	48 8b 7c 24 28       	mov    0x28(%rsp),%rdi
    8995:	48 85 ff             	test   %rdi,%rdi
    8998:	74 69                	je     8a03 <_ZN3std2io5Write9write_all17hb497998d555c2bf9E+0x173>
    899a:	48 89 d8             	mov    %rbx,%rax
    899d:	48 29 f8             	sub    %rdi,%rax
    89a0:	0f 82 e3 00 00 00    	jb     8a89 <_ZN3std2io5Write9write_all17hb497998d555c2bf9E+0x1f9>
    89a6:	49 01 ff             	add    %rdi,%r15
    89a9:	48 89 c3             	mov    %rax,%rbx
    89ac:	48 85 db             	test   %rbx,%rbx
    89af:	0f 85 1b ff ff ff    	jne    88d0 <_ZN3std2io5Write9write_all17hb497998d555c2bf9E+0x40>
    89b5:	eb 32                	jmp    89e9 <_ZN3std2io5Write9write_all17hb497998d555c2bf9E+0x159>
    89b7:	0f b6 44 24 29       	movzbl 0x29(%rsp),%eax
    89bc:	3c 0f                	cmp    $0xf,%al
    89be:	0f 84 7a ff ff ff    	je     893e <_ZN3std2io5Write9write_all17hb497998d555c2bf9E+0xae>
    89c4:	eb 11                	jmp    89d7 <_ZN3std2io5Write9write_all17hb497998d555c2bf9E+0x147>
    89c6:	8b 7c 24 2c          	mov    0x2c(%rsp),%edi
    89ca:	e8 71 f5 ff ff       	callq  7f40 <_ZN3std3sys4unix17decode_error_kind17h0a2b52578105e158E>
    89cf:	3c 0f                	cmp    $0xf,%al
    89d1:	0f 84 67 ff ff ff    	je     893e <_ZN3std2io5Write9write_all17hb497998d555c2bf9E+0xae>
    89d7:	48 8d 44 24 28       	lea    0x28(%rsp),%rax
    89dc:	0f 10 00             	movups (%rax),%xmm0
    89df:	48 8b 74 24 08       	mov    0x8(%rsp),%rsi
    89e4:	0f 11 06             	movups %xmm0,(%rsi)
    89e7:	eb 08                	jmp    89f1 <_ZN3std2io5Write9write_all17hb497998d555c2bf9E+0x161>
    89e9:	48 8b 74 24 08       	mov    0x8(%rsp),%rsi
    89ee:	c6 06 03             	movb   $0x3,(%rsi)
    89f1:	48 89 f0             	mov    %rsi,%rax
    89f4:	48 83 c4 38          	add    $0x38,%rsp
    89f8:	5b                   	pop    %rbx
    89f9:	41 5c                	pop    %r12
    89fb:	41 5d                	pop    %r13
    89fd:	41 5e                	pop    %r14
    89ff:	41 5f                	pop    %r15
    8a01:	5d                   	pop    %rbp
    8a02:	c3                   	retq   
    8a03:	48 8d 3d 28 a2 01 00 	lea    0x1a228(%rip),%rdi        # 22c32 <anon.d71f1804726653ea8be9c8cf63aeda24.31.llvm.10308064416274954687>
    8a0a:	be 1c 00 00 00       	mov    $0x1c,%esi
    8a0f:	ff 15 eb 64 22 00    	callq  *0x2264eb(%rip)        # 22ef00 <_GLOBAL_OFFSET_TABLE_+0x470>
    8a15:	48 89 c3             	mov    %rax,%rbx
    8a18:	48 89 d5             	mov    %rdx,%rbp
    8a1b:	bf 18 00 00 00       	mov    $0x18,%edi
    8a20:	be 08 00 00 00       	mov    $0x8,%esi
    8a25:	ff 15 dd 61 22 00    	callq  *0x2261dd(%rip)        # 22ec08 <_GLOBAL_OFFSET_TABLE_+0x178>
    8a2b:	48 85 c0             	test   %rax,%rax
    8a2e:	74 64                	je     8a94 <_ZN3std2io5Write9write_all17hb497998d555c2bf9E+0x204>
    8a30:	48 89 18             	mov    %rbx,(%rax)
    8a33:	48 89 68 08          	mov    %rbp,0x8(%rax)
    8a37:	c6 40 10 0e          	movb   $0xe,0x10(%rax)
    8a3b:	8b 4c 24 10          	mov    0x10(%rsp),%ecx
    8a3f:	8b 54 24 13          	mov    0x13(%rsp),%edx
    8a43:	89 50 14             	mov    %edx,0x14(%rax)
    8a46:	89 48 11             	mov    %ecx,0x11(%rax)
    8a49:	8b 4c 24 10          	mov    0x10(%rsp),%ecx
    8a4d:	8b 54 24 13          	mov    0x13(%rsp),%edx
    8a51:	89 54 24 03          	mov    %edx,0x3(%rsp)
    8a55:	89 0c 24             	mov    %ecx,(%rsp)
    8a58:	48 8b 74 24 08       	mov    0x8(%rsp),%rsi
    8a5d:	c6 06 02             	movb   $0x2,(%rsi)
    8a60:	8b 0c 24             	mov    (%rsp),%ecx
    8a63:	8b 54 24 03          	mov    0x3(%rsp),%edx
    8a67:	89 56 04             	mov    %edx,0x4(%rsi)
    8a6a:	89 4e 01             	mov    %ecx,0x1(%rsi)
    8a6d:	48 89 46 08          	mov    %rax,0x8(%rsi)
    8a71:	e9 7b ff ff ff       	jmpq   89f1 <_ZN3std2io5Write9write_all17hb497998d555c2bf9E+0x161>
    8a76:	48 8d 3d 07 a1 01 00 	lea    0x1a107(%rip),%rdi        # 22b84 <anon.9aff47cfc7bc0ab43bec4bdb2a8d583b.0.llvm.10827810749348899414>
    8a7d:	be 10 00 00 00       	mov    $0x10,%esi
    8a82:	e8 39 e3 ff ff       	callq  6dc0 <_ZN4core6result13unwrap_failed17h7a6b485e230bad45E>
    8a87:	0f 0b                	ud2    
    8a89:	48 89 de             	mov    %rbx,%rsi
    8a8c:	ff 15 ae 64 22 00    	callq  *0x2264ae(%rip)        # 22ef40 <_GLOBAL_OFFSET_TABLE_+0x4b0>
    8a92:	0f 0b                	ud2    
    8a94:	bf 18 00 00 00       	mov    $0x18,%edi
    8a99:	be 08 00 00 00       	mov    $0x8,%esi
    8a9e:	ff 15 8c 64 22 00    	callq  *0x22648c(%rip)        # 22ef30 <_GLOBAL_OFFSET_TABLE_+0x4a0>
    8aa4:	0f 0b                	ud2    
    8aa6:	48 89 c3             	mov    %rax,%rbx
    8aa9:	48 8d 7c 24 20       	lea    0x20(%rsp),%rdi
    8aae:	e8 ed f6 ff ff       	callq  81a0 <_ZN4core3ptr18real_drop_in_place17hacc9873e04d4ffe9E.llvm.10308064416274954687>
    8ab3:	eb 27                	jmp    8adc <_ZN3std2io5Write9write_all17hb497998d555c2bf9E+0x24c>
    8ab5:	48 89 c3             	mov    %rax,%rbx
    8ab8:	48 8b 7d 00          	mov    0x0(%rbp),%rdi
    8abc:	48 8b 75 08          	mov    0x8(%rbp),%rsi
    8ac0:	e8 1b f7 ff ff       	callq  81e0 <_ZN5alloc5alloc8box_free17habb2f4e088dcf1b4E.llvm.10308064416274954687>
    8ac5:	48 89 ef             	mov    %rbp,%rdi
    8ac8:	e8 33 f7 ff ff       	callq  8200 <_ZN5alloc5alloc8box_free17hd88e60c97e400217E.llvm.10308064416274954687>
    8acd:	eb 0d                	jmp    8adc <_ZN3std2io5Write9write_all17hb497998d555c2bf9E+0x24c>
    8acf:	48 89 c3             	mov    %rax,%rbx
    8ad2:	48 8d 7c 24 10       	lea    0x10(%rsp),%rdi
    8ad7:	e8 54 f5 ff ff       	callq  8030 <_ZN4core3ptr18real_drop_in_place17h9e29df6e5531c870E.llvm.10308064416274954687>
    8adc:	48 89 df             	mov    %rbx,%rdi
    8adf:	e8 54 d6 ff ff       	callq  6138 <_init+0xf0>
    8ae4:	0f 0b                	ud2    
    8ae6:	66 2e 0f 1f 84 00 00 	nopw   %cs:0x0(%rax,%rax,1)
    8aed:	00 00 00 

0000000000008af0 <_ZN3std4sync7condvar7Condvar3new17h3a6a4caf364bad14E>:
    8af0:	41 56                	push   %r14
    8af2:	53                   	push   %rbx
    8af3:	48 81 ec 88 00 00 00 	sub    $0x88,%rsp
    8afa:	49 89 fe             	mov    %rdi,%r14
    8afd:	bf 30 00 00 00       	mov    $0x30,%edi
    8b02:	be 08 00 00 00       	mov    $0x8,%esi
    8b07:	ff 15 fb 60 22 00    	callq  *0x2260fb(%rip)        # 22ec08 <_GLOBAL_OFFSET_TABLE_+0x178>
    8b0d:	48 85 c0             	test   %rax,%rax
    8b10:	0f 84 99 00 00 00    	je     8baf <_ZN3std4sync7condvar7Condvar3new17h3a6a4caf364bad14E+0xbf>
    8b16:	48 89 c3             	mov    %rax,%rbx
    8b19:	0f 57 c0             	xorps  %xmm0,%xmm0
    8b1c:	0f 11 40 20          	movups %xmm0,0x20(%rax)
    8b20:	0f 11 40 10          	movups %xmm0,0x10(%rax)
    8b24:	0f 11 00             	movups %xmm0,(%rax)
    8b27:	48 89 44 24 78       	mov    %rax,0x78(%rsp)
    8b2c:	48 c7 84 24 80 00 00 	movq   $0x0,0x80(%rsp)
    8b33:	00 00 00 00 00 
    8b38:	48 8d 7c 24 14       	lea    0x14(%rsp),%rdi
    8b3d:	ff 15 45 63 22 00    	callq  *0x226345(%rip)        # 22ee88 <_GLOBAL_OFFSET_TABLE_+0x3f8>
    8b43:	89 44 24 68          	mov    %eax,0x68(%rsp)
    8b47:	85 c0                	test   %eax,%eax
    8b49:	75 76                	jne    8bc1 <_ZN3std4sync7condvar7Condvar3new17h3a6a4caf364bad14E+0xd1>
    8b4b:	48 8d 7c 24 14       	lea    0x14(%rsp),%rdi
    8b50:	be 01 00 00 00       	mov    $0x1,%esi
    8b55:	ff 15 e5 62 22 00    	callq  *0x2262e5(%rip)        # 22ee40 <_GLOBAL_OFFSET_TABLE_+0x3b0>
    8b5b:	89 44 24 6c          	mov    %eax,0x6c(%rsp)
    8b5f:	85 c0                	test   %eax,%eax
    8b61:	0f 85 da 00 00 00    	jne    8c41 <_ZN3std4sync7condvar7Condvar3new17h3a6a4caf364bad14E+0x151>
    8b67:	48 8d 74 24 14       	lea    0x14(%rsp),%rsi
    8b6c:	48 89 df             	mov    %rbx,%rdi
    8b6f:	ff 15 7b 62 22 00    	callq  *0x22627b(%rip)        # 22edf0 <_GLOBAL_OFFSET_TABLE_+0x360>
    8b75:	89 44 24 70          	mov    %eax,0x70(%rsp)
    8b79:	85 c0                	test   %eax,%eax
    8b7b:	0f 85 40 01 00 00    	jne    8cc1 <_ZN3std4sync7condvar7Condvar3new17h3a6a4caf364bad14E+0x1d1>
    8b81:	48 8d 7c 24 14       	lea    0x14(%rsp),%rdi
    8b86:	ff 15 04 61 22 00    	callq  *0x226104(%rip)        # 22ec90 <_GLOBAL_OFFSET_TABLE_+0x200>
    8b8c:	89 44 24 74          	mov    %eax,0x74(%rsp)
    8b90:	85 c0                	test   %eax,%eax
    8b92:	0f 85 a6 01 00 00    	jne    8d3e <_ZN3std4sync7condvar7Condvar3new17h3a6a4caf364bad14E+0x24e>
    8b98:	0f 10 44 24 78       	movups 0x78(%rsp),%xmm0
    8b9d:	41 0f 11 06          	movups %xmm0,(%r14)
    8ba1:	4c 89 f0             	mov    %r14,%rax
    8ba4:	48 81 c4 88 00 00 00 	add    $0x88,%rsp
    8bab:	5b                   	pop    %rbx
    8bac:	41 5e                	pop    %r14
    8bae:	c3                   	retq   
    8baf:	bf 30 00 00 00       	mov    $0x30,%edi
    8bb4:	be 08 00 00 00       	mov    $0x8,%esi
    8bb9:	ff 15 71 63 22 00    	callq  *0x226371(%rip)        # 22ef30 <_GLOBAL_OFFSET_TABLE_+0x4a0>
    8bbf:	0f 0b                	ud2    
    8bc1:	48 8d 44 24 68       	lea    0x68(%rsp),%rax
    8bc6:	48 89 04 24          	mov    %rax,(%rsp)
    8bca:	48 8d 05 1f a1 01 00 	lea    0x1a11f(%rip),%rax        # 22cf0 <anon.d71f1804726653ea8be9c8cf63aeda24.41.llvm.10308064416274954687+0x79>
    8bd1:	48 89 44 24 08       	mov    %rax,0x8(%rsp)
    8bd6:	48 89 e0             	mov    %rsp,%rax
    8bd9:	48 89 44 24 18       	mov    %rax,0x18(%rsp)
    8bde:	48 8d 05 fb da ff ff 	lea    -0x2505(%rip),%rax        # 66e0 <_ZN42_$LT$$RF$T$u20$as$u20$core..fmt..Debug$GT$3fmt17h0ef4ec544343468cE>
    8be5:	48 89 44 24 20       	mov    %rax,0x20(%rsp)
    8bea:	48 8d 4c 24 08       	lea    0x8(%rsp),%rcx
    8bef:	48 89 4c 24 28       	mov    %rcx,0x28(%rsp)
    8bf4:	48 89 44 24 30       	mov    %rax,0x30(%rsp)
    8bf9:	48 8d 05 20 45 22 00 	lea    0x224520(%rip),%rax        # 22d120 <anon.d71f1804726653ea8be9c8cf63aeda24.40.llvm.10308064416274954687+0x28>
    8c00:	48 89 44 24 38       	mov    %rax,0x38(%rsp)
    8c05:	48 c7 44 24 40 03 00 	movq   $0x3,0x40(%rsp)
    8c0c:	00 00 
    8c0e:	48 c7 44 24 48 00 00 	movq   $0x0,0x48(%rsp)
    8c15:	00 00 
    8c17:	48 8d 44 24 18       	lea    0x18(%rsp),%rax
    8c1c:	48 89 44 24 58       	mov    %rax,0x58(%rsp)
    8c21:	48 c7 44 24 60 02 00 	movq   $0x2,0x60(%rsp)
    8c28:	00 00 
    8c2a:	48 8d 35 1f 45 22 00 	lea    0x22451f(%rip),%rsi        # 22d150 <anon.d71f1804726653ea8be9c8cf63aeda24.40.llvm.10308064416274954687+0x58>
    8c31:	48 8d 7c 24 38       	lea    0x38(%rsp),%rdi
    8c36:	ff 15 04 5f 22 00    	callq  *0x225f04(%rip)        # 22eb40 <_GLOBAL_OFFSET_TABLE_+0xb0>
    8c3c:	e9 78 01 00 00       	jmpq   8db9 <_ZN3std4sync7condvar7Condvar3new17h3a6a4caf364bad14E+0x2c9>
    8c41:	48 8d 44 24 6c       	lea    0x6c(%rsp),%rax
    8c46:	48 89 04 24          	mov    %rax,(%rsp)
    8c4a:	48 8d 05 9f a0 01 00 	lea    0x1a09f(%rip),%rax        # 22cf0 <anon.d71f1804726653ea8be9c8cf63aeda24.41.llvm.10308064416274954687+0x79>
    8c51:	48 89 44 24 08       	mov    %rax,0x8(%rsp)
    8c56:	48 89 e0             	mov    %rsp,%rax
    8c59:	48 89 44 24 18       	mov    %rax,0x18(%rsp)
    8c5e:	48 8d 05 7b da ff ff 	lea    -0x2585(%rip),%rax        # 66e0 <_ZN42_$LT$$RF$T$u20$as$u20$core..fmt..Debug$GT$3fmt17h0ef4ec544343468cE>
    8c65:	48 89 44 24 20       	mov    %rax,0x20(%rsp)
    8c6a:	48 8d 4c 24 08       	lea    0x8(%rsp),%rcx
    8c6f:	48 89 4c 24 28       	mov    %rcx,0x28(%rsp)
    8c74:	48 89 44 24 30       	mov    %rax,0x30(%rsp)
    8c79:	48 8d 05 a0 44 22 00 	lea    0x2244a0(%rip),%rax        # 22d120 <anon.d71f1804726653ea8be9c8cf63aeda24.40.llvm.10308064416274954687+0x28>
    8c80:	48 89 44 24 38       	mov    %rax,0x38(%rsp)
    8c85:	48 c7 44 24 40 03 00 	movq   $0x3,0x40(%rsp)
    8c8c:	00 00 
    8c8e:	48 c7 44 24 48 00 00 	movq   $0x0,0x48(%rsp)
    8c95:	00 00 
    8c97:	48 8d 44 24 18       	lea    0x18(%rsp),%rax
    8c9c:	48 89 44 24 58       	mov    %rax,0x58(%rsp)
    8ca1:	48 c7 44 24 60 02 00 	movq   $0x2,0x60(%rsp)
    8ca8:	00 00 
    8caa:	48 8d 35 b7 44 22 00 	lea    0x2244b7(%rip),%rsi        # 22d168 <anon.d71f1804726653ea8be9c8cf63aeda24.40.llvm.10308064416274954687+0x70>
    8cb1:	48 8d 7c 24 38       	lea    0x38(%rsp),%rdi
    8cb6:	ff 15 84 5e 22 00    	callq  *0x225e84(%rip)        # 22eb40 <_GLOBAL_OFFSET_TABLE_+0xb0>
    8cbc:	e9 f8 00 00 00       	jmpq   8db9 <_ZN3std4sync7condvar7Condvar3new17h3a6a4caf364bad14E+0x2c9>
    8cc1:	48 8d 44 24 70       	lea    0x70(%rsp),%rax
    8cc6:	48 89 04 24          	mov    %rax,(%rsp)
    8cca:	48 8d 05 1f a0 01 00 	lea    0x1a01f(%rip),%rax        # 22cf0 <anon.d71f1804726653ea8be9c8cf63aeda24.41.llvm.10308064416274954687+0x79>
    8cd1:	48 89 44 24 08       	mov    %rax,0x8(%rsp)
    8cd6:	48 89 e0             	mov    %rsp,%rax
    8cd9:	48 89 44 24 18       	mov    %rax,0x18(%rsp)
    8cde:	48 8d 05 fb d9 ff ff 	lea    -0x2605(%rip),%rax        # 66e0 <_ZN42_$LT$$RF$T$u20$as$u20$core..fmt..Debug$GT$3fmt17h0ef4ec544343468cE>
    8ce5:	48 89 44 24 20       	mov    %rax,0x20(%rsp)
    8cea:	48 8d 4c 24 08       	lea    0x8(%rsp),%rcx
    8cef:	48 89 4c 24 28       	mov    %rcx,0x28(%rsp)
    8cf4:	48 89 44 24 30       	mov    %rax,0x30(%rsp)
    8cf9:	48 8d 05 20 44 22 00 	lea    0x224420(%rip),%rax        # 22d120 <anon.d71f1804726653ea8be9c8cf63aeda24.40.llvm.10308064416274954687+0x28>
    8d00:	48 89 44 24 38       	mov    %rax,0x38(%rsp)
    8d05:	48 c7 44 24 40 03 00 	movq   $0x3,0x40(%rsp)
    8d0c:	00 00 
    8d0e:	48 c7 44 24 48 00 00 	movq   $0x0,0x48(%rsp)
    8d15:	00 00 
    8d17:	48 8d 44 24 18       	lea    0x18(%rsp),%rax
    8d1c:	48 89 44 24 58       	mov    %rax,0x58(%rsp)
    8d21:	48 c7 44 24 60 02 00 	movq   $0x2,0x60(%rsp)
    8d28:	00 00 
    8d2a:	48 8d 35 4f 44 22 00 	lea    0x22444f(%rip),%rsi        # 22d180 <anon.d71f1804726653ea8be9c8cf63aeda24.40.llvm.10308064416274954687+0x88>
    8d31:	48 8d 7c 24 38       	lea    0x38(%rsp),%rdi
    8d36:	ff 15 04 5e 22 00    	callq  *0x225e04(%rip)        # 22eb40 <_GLOBAL_OFFSET_TABLE_+0xb0>
    8d3c:	eb 7b                	jmp    8db9 <_ZN3std4sync7condvar7Condvar3new17h3a6a4caf364bad14E+0x2c9>
    8d3e:	48 8d 44 24 74       	lea    0x74(%rsp),%rax
    8d43:	48 89 04 24          	mov    %rax,(%rsp)
    8d47:	48 8d 05 a2 9f 01 00 	lea    0x19fa2(%rip),%rax        # 22cf0 <anon.d71f1804726653ea8be9c8cf63aeda24.41.llvm.10308064416274954687+0x79>
    8d4e:	48 89 44 24 08       	mov    %rax,0x8(%rsp)
    8d53:	48 89 e0             	mov    %rsp,%rax
    8d56:	48 89 44 24 18       	mov    %rax,0x18(%rsp)
    8d5b:	48 8d 05 7e d9 ff ff 	lea    -0x2682(%rip),%rax        # 66e0 <_ZN42_$LT$$RF$T$u20$as$u20$core..fmt..Debug$GT$3fmt17h0ef4ec544343468cE>
    8d62:	48 89 44 24 20       	mov    %rax,0x20(%rsp)
    8d67:	48 8d 4c 24 08       	lea    0x8(%rsp),%rcx
    8d6c:	48 89 4c 24 28       	mov    %rcx,0x28(%rsp)
    8d71:	48 89 44 24 30       	mov    %rax,0x30(%rsp)
    8d76:	48 8d 05 a3 43 22 00 	lea    0x2243a3(%rip),%rax        # 22d120 <anon.d71f1804726653ea8be9c8cf63aeda24.40.llvm.10308064416274954687+0x28>
    8d7d:	48 89 44 24 38       	mov    %rax,0x38(%rsp)
    8d82:	48 c7 44 24 40 03 00 	movq   $0x3,0x40(%rsp)
    8d89:	00 00 
    8d8b:	48 c7 44 24 48 00 00 	movq   $0x0,0x48(%rsp)
    8d92:	00 00 
    8d94:	48 8d 44 24 18       	lea    0x18(%rsp),%rax
    8d99:	48 89 44 24 58       	mov    %rax,0x58(%rsp)
    8d9e:	48 c7 44 24 60 02 00 	movq   $0x2,0x60(%rsp)
    8da5:	00 00 
    8da7:	48 8d 35 ea 43 22 00 	lea    0x2243ea(%rip),%rsi        # 22d198 <anon.d71f1804726653ea8be9c8cf63aeda24.40.llvm.10308064416274954687+0xa0>
    8dae:	48 8d 7c 24 38       	lea    0x38(%rsp),%rdi
    8db3:	ff 15 87 5d 22 00    	callq  *0x225d87(%rip)        # 22eb40 <_GLOBAL_OFFSET_TABLE_+0xb0>
    8db9:	0f 0b                	ud2    
    8dbb:	48 89 c3             	mov    %rax,%rbx
    8dbe:	48 8d 7c 24 78       	lea    0x78(%rsp),%rdi
    8dc3:	e8 98 f2 ff ff       	callq  8060 <_ZN4core3ptr18real_drop_in_place17h33634558f62e5499E>
    8dc8:	48 89 df             	mov    %rbx,%rdi
    8dcb:	e8 68 d3 ff ff       	callq  6138 <_init+0xf0>
    8dd0:	0f 0b                	ud2    
    8dd2:	66 2e 0f 1f 84 00 00 	nopw   %cs:0x0(%rax,%rax,1)
    8dd9:	00 00 00 
    8ddc:	0f 1f 40 00          	nopl   0x0(%rax)

0000000000008de0 <_ZN3std10sys_common10bytestring20debug_fmt_bytestring17h0f6e572be9ba4b4dE>:
    8de0:	55                   	push   %rbp
    8de1:	41 57                	push   %r15
    8de3:	41 56                	push   %r14
    8de5:	41 55                	push   %r13
    8de7:	41 54                	push   %r12
    8de9:	53                   	push   %rbx
    8dea:	48 83 ec 68          	sub    $0x68,%rsp
    8dee:	49 89 d4             	mov    %rdx,%r12
    8df1:	48 89 f5             	mov    %rsi,%rbp
    8df4:	48 89 fb             	mov    %rdi,%rbx
    8df7:	48 8d 35 af 9e 01 00 	lea    0x19eaf(%rip),%rsi        # 22cad <anon.d71f1804726653ea8be9c8cf63aeda24.41.llvm.10308064416274954687+0x36>
    8dfe:	ba 01 00 00 00       	mov    $0x1,%edx
    8e03:	4c 89 e7             	mov    %r12,%rdi
    8e06:	ff 15 8c 60 22 00    	callq  *0x22608c(%rip)        # 22ee98 <_GLOBAL_OFFSET_TABLE_+0x408>
    8e0c:	b1 01                	mov    $0x1,%cl
    8e0e:	84 c0                	test   %al,%al
    8e10:	0f 85 14 03 00 00    	jne    912a <_ZN3std10sys_common10bytestring20debug_fmt_bytestring17h0f6e572be9ba4b4dE+0x34a>
    8e16:	48 89 df             	mov    %rbx,%rdi
    8e19:	48 89 ee             	mov    %rbp,%rsi
    8e1c:	ff 15 66 5e 22 00    	callq  *0x225e66(%rip)        # 22ec88 <_GLOBAL_OFFSET_TABLE_+0x1f8>
    8e22:	48 89 c7             	mov    %rax,%rdi
    8e25:	48 89 d6             	mov    %rdx,%rsi
    8e28:	ff 15 2a 60 22 00    	callq  *0x22602a(%rip)        # 22ee58 <_GLOBAL_OFFSET_TABLE_+0x3c8>
    8e2e:	48 89 44 24 58       	mov    %rax,0x58(%rsp)
    8e33:	48 89 54 24 60       	mov    %rdx,0x60(%rsp)
    8e38:	48 8d 7c 24 08       	lea    0x8(%rsp),%rdi
    8e3d:	48 8d 74 24 58       	lea    0x58(%rsp),%rsi
    8e42:	ff 15 b0 5c 22 00    	callq  *0x225cb0(%rip)        # 22eaf8 <_GLOBAL_OFFSET_TABLE_+0x68>
    8e48:	48 8b 44 24 08       	mov    0x8(%rsp),%rax
    8e4d:	48 85 c0             	test   %rax,%rax
    8e50:	0f 84 b9 02 00 00    	je     910f <_ZN3std10sys_common10bytestring20debug_fmt_bytestring17h0f6e572be9ba4b4dE+0x32f>
    8e56:	48 8d 6c 24 18       	lea    0x18(%rsp),%rbp
    8e5b:	48 8d 1d ee 93 01 00 	lea    0x193ee(%rip),%rbx        # 22250 <_ZN82_$LT$core..char..EscapeDebug$u20$as$u20$core..iter..traits..iterator..Iterator$GT$4next17hd2637d4fdbc2a52dE>
    8e62:	4c 8b 7c 24 18       	mov    0x18(%rsp),%r15
    8e67:	4c 8b 74 24 20       	mov    0x20(%rsp),%r14
    8e6c:	48 8b 4c 24 10       	mov    0x10(%rsp),%rcx
    8e71:	48 01 c1             	add    %rax,%rcx
    8e74:	48 89 44 24 08       	mov    %rax,0x8(%rsp)
    8e79:	48 89 4c 24 10       	mov    %rcx,0x10(%rsp)
    8e7e:	c7 44 24 18 04 00 00 	movl   $0x4,0x18(%rsp)
    8e85:	00 
    8e86:	c7 44 24 30 04 00 00 	movl   $0x4,0x30(%rsp)
    8e8d:	00 
    8e8e:	b9 04 00 00 00       	mov    $0x4,%ecx
    8e93:	83 f9 04             	cmp    $0x4,%ecx
    8e96:	74 31                	je     8ec9 <_ZN3std10sys_common10bytestring20debug_fmt_bytestring17h0f6e572be9ba4b4dE+0xe9>
    8e98:	0f 1f 84 00 00 00 00 	nopl   0x0(%rax,%rax,1)
    8e9f:	00 
    8ea0:	48 89 ef             	mov    %rbp,%rdi
    8ea3:	ff d3                	callq  *%rbx
    8ea5:	3d 00 00 11 00       	cmp    $0x110000,%eax
    8eaa:	0f 85 a5 01 00 00    	jne    9055 <_ZN3std10sys_common10bytestring20debug_fmt_bytestring17h0f6e572be9ba4b4dE+0x275>
    8eb0:	eb 17                	jmp    8ec9 <_ZN3std10sys_common10bytestring20debug_fmt_bytestring17h0f6e572be9ba4b4dE+0xe9>
    8eb2:	66 2e 0f 1f 84 00 00 	nopw   %cs:0x0(%rax,%rax,1)
    8eb9:	00 00 00 
    8ebc:	0f 1f 40 00          	nopl   0x0(%rax)
    8ec0:	8b 4c 24 18          	mov    0x18(%rsp),%ecx
    8ec4:	83 f9 04             	cmp    $0x4,%ecx
    8ec7:	75 d7                	jne    8ea0 <_ZN3std10sys_common10bytestring20debug_fmt_bytestring17h0f6e572be9ba4b4dE+0xc0>
    8ec9:	48 8b 44 24 08       	mov    0x8(%rsp),%rax
    8ece:	48 8b 4c 24 10       	mov    0x10(%rsp),%rcx
    8ed3:	48 39 c8             	cmp    %rcx,%rax
    8ed6:	0f 84 64 01 00 00    	je     9040 <_ZN3std10sys_common10bytestring20debug_fmt_bytestring17h0f6e572be9ba4b4dE+0x260>
    8edc:	48 8d 50 01          	lea    0x1(%rax),%rdx
    8ee0:	48 89 54 24 08       	mov    %rdx,0x8(%rsp)
    8ee5:	44 0f b6 28          	movzbl (%rax),%r13d
    8ee9:	45 84 ed             	test   %r13b,%r13b
    8eec:	79 78                	jns    8f66 <_ZN3std10sys_common10bytestring20debug_fmt_bytestring17h0f6e572be9ba4b4dE+0x186>
    8eee:	48 39 ca             	cmp    %rcx,%rdx
    8ef1:	74 12                	je     8f05 <_ZN3std10sys_common10bytestring20debug_fmt_bytestring17h0f6e572be9ba4b4dE+0x125>
    8ef3:	48 8d 78 02          	lea    0x2(%rax),%rdi
    8ef7:	48 89 7c 24 08       	mov    %rdi,0x8(%rsp)
    8efc:	0f b6 40 01          	movzbl 0x1(%rax),%eax
    8f00:	83 e0 3f             	and    $0x3f,%eax
    8f03:	eb 05                	jmp    8f0a <_ZN3std10sys_common10bytestring20debug_fmt_bytestring17h0f6e572be9ba4b4dE+0x12a>
    8f05:	31 c0                	xor    %eax,%eax
    8f07:	48 89 cf             	mov    %rcx,%rdi
    8f0a:	44 89 ea             	mov    %r13d,%edx
    8f0d:	83 e2 1f             	and    $0x1f,%edx
    8f10:	41 80 fd e0          	cmp    $0xe0,%r13b
    8f14:	72 16                	jb     8f2c <_ZN3std10sys_common10bytestring20debug_fmt_bytestring17h0f6e572be9ba4b4dE+0x14c>
    8f16:	48 39 cf             	cmp    %rcx,%rdi
    8f19:	74 16                	je     8f31 <_ZN3std10sys_common10bytestring20debug_fmt_bytestring17h0f6e572be9ba4b4dE+0x151>
    8f1b:	48 8d 77 01          	lea    0x1(%rdi),%rsi
    8f1f:	48 89 74 24 08       	mov    %rsi,0x8(%rsp)
    8f24:	0f b6 3f             	movzbl (%rdi),%edi
    8f27:	83 e7 3f             	and    $0x3f,%edi
    8f2a:	eb 0a                	jmp    8f36 <_ZN3std10sys_common10bytestring20debug_fmt_bytestring17h0f6e572be9ba4b4dE+0x156>
    8f2c:	c1 e2 06             	shl    $0x6,%edx
    8f2f:	eb 30                	jmp    8f61 <_ZN3std10sys_common10bytestring20debug_fmt_bytestring17h0f6e572be9ba4b4dE+0x181>
    8f31:	31 ff                	xor    %edi,%edi
    8f33:	48 89 ce             	mov    %rcx,%rsi
    8f36:	c1 e0 06             	shl    $0x6,%eax
    8f39:	09 f8                	or     %edi,%eax
    8f3b:	41 80 fd f0          	cmp    $0xf0,%r13b
    8f3f:	72 1d                	jb     8f5e <_ZN3std10sys_common10bytestring20debug_fmt_bytestring17h0f6e572be9ba4b4dE+0x17e>
    8f41:	48 39 ce             	cmp    %rcx,%rsi
    8f44:	0f 84 d8 00 00 00    	je     9022 <_ZN3std10sys_common10bytestring20debug_fmt_bytestring17h0f6e572be9ba4b4dE+0x242>
    8f4a:	48 8d 4e 01          	lea    0x1(%rsi),%rcx
    8f4e:	48 89 4c 24 08       	mov    %rcx,0x8(%rsp)
    8f53:	0f b6 0e             	movzbl (%rsi),%ecx
    8f56:	83 e1 3f             	and    $0x3f,%ecx
    8f59:	e9 c6 00 00 00       	jmpq   9024 <_ZN3std10sys_common10bytestring20debug_fmt_bytestring17h0f6e572be9ba4b4dE+0x244>
    8f5e:	c1 e2 0c             	shl    $0xc,%edx
    8f61:	09 d0                	or     %edx,%eax
    8f63:	41 89 c5             	mov    %eax,%r13d
    8f66:	b9 02 00 00 00       	mov    $0x2,%ecx
    8f6b:	41 8d 45 f7          	lea    -0x9(%r13),%eax
    8f6f:	83 f8 1e             	cmp    $0x1e,%eax
    8f72:	77 1c                	ja     8f90 <_ZN3std10sys_common10bytestring20debug_fmt_bytestring17h0f6e572be9ba4b4dE+0x1b0>
    8f74:	be 74 00 00 00       	mov    $0x74,%esi
    8f79:	48 8d 15 88 9b 01 00 	lea    0x19b88(%rip),%rdx        # 22b08 <anon.ff2dd124ec5e25f1c1e32fbc2f3b208a.37.llvm.9634770799887424769+0x80>
    8f80:	48 63 04 82          	movslq (%rdx,%rax,4),%rax
    8f84:	48 01 d0             	add    %rdx,%rax
    8f87:	ff e0                	jmpq   *%rax
    8f89:	be 6e 00 00 00       	mov    $0x6e,%esi
    8f8e:	eb 4b                	jmp    8fdb <_ZN3std10sys_common10bytestring20debug_fmt_bytestring17h0f6e572be9ba4b4dE+0x1fb>
    8f90:	41 83 fd 5c          	cmp    $0x5c,%r13d
    8f94:	75 05                	jne    8f9b <_ZN3std10sys_common10bytestring20debug_fmt_bytestring17h0f6e572be9ba4b4dE+0x1bb>
    8f96:	44 89 ee             	mov    %r13d,%esi
    8f99:	eb 40                	jmp    8fdb <_ZN3std10sys_common10bytestring20debug_fmt_bytestring17h0f6e572be9ba4b4dE+0x1fb>
    8f9b:	44 89 ef             	mov    %r13d,%edi
    8f9e:	ff 15 34 5f 22 00    	callq  *0x225f34(%rip)        # 22eed8 <_GLOBAL_OFFSET_TABLE_+0x448>
    8fa4:	84 c0                	test   %al,%al
    8fa6:	75 15                	jne    8fbd <_ZN3std10sys_common10bytestring20debug_fmt_bytestring17h0f6e572be9ba4b4dE+0x1dd>
    8fa8:	44 89 ef             	mov    %r13d,%edi
    8fab:	ff 15 2f 5c 22 00    	callq  *0x225c2f(%rip)        # 22ebe0 <_GLOBAL_OFFSET_TABLE_+0x150>
    8fb1:	b9 01 00 00 00       	mov    $0x1,%ecx
    8fb6:	44 89 ee             	mov    %r13d,%esi
    8fb9:	84 c0                	test   %al,%al
    8fbb:	75 1e                	jne    8fdb <_ZN3std10sys_common10bytestring20debug_fmt_bytestring17h0f6e572be9ba4b4dE+0x1fb>
    8fbd:	44 89 e8             	mov    %r13d,%eax
    8fc0:	83 c8 01             	or     $0x1,%eax
    8fc3:	0f bd d0             	bsr    %eax,%edx
    8fc6:	83 f2 1c             	xor    $0x1c,%edx
    8fc9:	c1 ea 02             	shr    $0x2,%edx
    8fcc:	83 f2 07             	xor    $0x7,%edx
    8fcf:	b9 03 00 00 00       	mov    $0x3,%ecx
    8fd4:	eb 05                	jmp    8fdb <_ZN3std10sys_common10bytestring20debug_fmt_bytestring17h0f6e572be9ba4b4dE+0x1fb>
    8fd6:	be 72 00 00 00       	mov    $0x72,%esi
    8fdb:	0f b6 44 24 4a       	movzbl 0x4a(%rsp),%eax
    8fe0:	88 44 24 02          	mov    %al,0x2(%rsp)
    8fe4:	0f b7 44 24 48       	movzwl 0x48(%rsp),%eax
    8fe9:	66 89 04 24          	mov    %ax,(%rsp)
    8fed:	89 4c 24 18          	mov    %ecx,0x18(%rsp)
    8ff1:	89 74 24 1c          	mov    %esi,0x1c(%rsp)
    8ff5:	48 89 54 24 20       	mov    %rdx,0x20(%rsp)
    8ffa:	44 89 6c 24 28       	mov    %r13d,0x28(%rsp)
    8fff:	c6 44 24 2c 05       	movb   $0x5,0x2c(%rsp)
    9004:	0f b6 44 24 02       	movzbl 0x2(%rsp),%eax
    9009:	88 45 17             	mov    %al,0x17(%rbp)
    900c:	0f b7 04 24          	movzwl (%rsp),%eax
    9010:	66 89 45 15          	mov    %ax,0x15(%rbp)
    9014:	83 f9 04             	cmp    $0x4,%ecx
    9017:	0f 85 83 fe ff ff    	jne    8ea0 <_ZN3std10sys_common10bytestring20debug_fmt_bytestring17h0f6e572be9ba4b4dE+0xc0>
    901d:	e9 a7 fe ff ff       	jmpq   8ec9 <_ZN3std10sys_common10bytestring20debug_fmt_bytestring17h0f6e572be9ba4b4dE+0xe9>
    9022:	31 c9                	xor    %ecx,%ecx
    9024:	83 e2 07             	and    $0x7,%edx
    9027:	c1 e2 12             	shl    $0x12,%edx
    902a:	c1 e0 06             	shl    $0x6,%eax
    902d:	09 d0                	or     %edx,%eax
    902f:	09 c8                	or     %ecx,%eax
    9031:	41 89 c5             	mov    %eax,%r13d
    9034:	3d 00 00 11 00       	cmp    $0x110000,%eax
    9039:	0f 85 27 ff ff ff    	jne    8f66 <_ZN3std10sys_common10bytestring20debug_fmt_bytestring17h0f6e572be9ba4b4dE+0x186>
    903f:	90                   	nop
    9040:	83 7c 24 30 04       	cmpl   $0x4,0x30(%rsp)
    9045:	74 29                	je     9070 <_ZN3std10sys_common10bytestring20debug_fmt_bytestring17h0f6e572be9ba4b4dE+0x290>
    9047:	48 8d 7c 24 30       	lea    0x30(%rsp),%rdi
    904c:	ff d3                	callq  *%rbx
    904e:	3d 00 00 11 00       	cmp    $0x110000,%eax
    9053:	74 1b                	je     9070 <_ZN3std10sys_common10bytestring20debug_fmt_bytestring17h0f6e572be9ba4b4dE+0x290>
    9055:	4c 89 e7             	mov    %r12,%rdi
    9058:	89 c6                	mov    %eax,%esi
    905a:	ff 15 00 5f 22 00    	callq  *0x225f00(%rip)        # 22ef60 <_GLOBAL_OFFSET_TABLE_+0x4d0>
    9060:	84 c0                	test   %al,%al
    9062:	0f 84 58 fe ff ff    	je     8ec0 <_ZN3std10sys_common10bytestring20debug_fmt_bytestring17h0f6e572be9ba4b4dE+0xe0>
    9068:	e9 bb 00 00 00       	jmpq   9128 <_ZN3std10sys_common10bytestring20debug_fmt_bytestring17h0f6e572be9ba4b4dE+0x348>
    906d:	0f 1f 00             	nopl   (%rax)
    9070:	4d 85 f6             	test   %r14,%r14
    9073:	74 7c                	je     90f1 <_ZN3std10sys_common10bytestring20debug_fmt_bytestring17h0f6e572be9ba4b4dE+0x311>
    9075:	66 2e 0f 1f 84 00 00 	nopw   %cs:0x0(%rax,%rax,1)
    907c:	00 00 00 
    907f:	90                   	nop
    9080:	4c 89 3c 24          	mov    %r15,(%rsp)
    9084:	48 89 e0             	mov    %rsp,%rax
    9087:	48 89 44 24 48       	mov    %rax,0x48(%rsp)
    908c:	48 8d 05 ad d7 ff ff 	lea    -0x2853(%rip),%rax        # 6840 <_ZN45_$LT$$RF$T$u20$as$u20$core..fmt..UpperHex$GT$3fmt17h7e34c2613621e4f4E>
    9093:	48 89 44 24 50       	mov    %rax,0x50(%rsp)
    9098:	48 8d 05 71 40 22 00 	lea    0x224071(%rip),%rax        # 22d110 <anon.d71f1804726653ea8be9c8cf63aeda24.40.llvm.10308064416274954687+0x18>
    909f:	48 89 44 24 08       	mov    %rax,0x8(%rsp)
    90a4:	48 c7 44 24 10 01 00 	movq   $0x1,0x10(%rsp)
    90ab:	00 00 
    90ad:	48 8d 05 fc 9b 01 00 	lea    0x19bfc(%rip),%rax        # 22cb0 <anon.d71f1804726653ea8be9c8cf63aeda24.41.llvm.10308064416274954687+0x39>
    90b4:	48 89 44 24 18       	mov    %rax,0x18(%rsp)
    90b9:	48 c7 44 24 20 01 00 	movq   $0x1,0x20(%rsp)
    90c0:	00 00 
    90c2:	48 8d 44 24 48       	lea    0x48(%rsp),%rax
    90c7:	48 89 44 24 28       	mov    %rax,0x28(%rsp)
    90cc:	48 c7 44 24 30 01 00 	movq   $0x1,0x30(%rsp)
    90d3:	00 00 
    90d5:	4c 89 e7             	mov    %r12,%rdi
    90d8:	48 8d 74 24 08       	lea    0x8(%rsp),%rsi
    90dd:	ff 15 15 5d 22 00    	callq  *0x225d15(%rip)        # 22edf8 <_GLOBAL_OFFSET_TABLE_+0x368>
    90e3:	84 c0                	test   %al,%al
    90e5:	75 41                	jne    9128 <_ZN3std10sys_common10bytestring20debug_fmt_bytestring17h0f6e572be9ba4b4dE+0x348>
    90e7:	49 83 c7 01          	add    $0x1,%r15
    90eb:	49 83 c6 ff          	add    $0xffffffffffffffff,%r14
    90ef:	75 8f                	jne    9080 <_ZN3std10sys_common10bytestring20debug_fmt_bytestring17h0f6e572be9ba4b4dE+0x2a0>
    90f1:	48 8d 7c 24 08       	lea    0x8(%rsp),%rdi
    90f6:	48 8d 74 24 58       	lea    0x58(%rsp),%rsi
    90fb:	ff 15 f7 59 22 00    	callq  *0x2259f7(%rip)        # 22eaf8 <_GLOBAL_OFFSET_TABLE_+0x68>
    9101:	48 8b 44 24 08       	mov    0x8(%rsp),%rax
    9106:	48 85 c0             	test   %rax,%rax
    9109:	0f 85 53 fd ff ff    	jne    8e62 <_ZN3std10sys_common10bytestring20debug_fmt_bytestring17h0f6e572be9ba4b4dE+0x82>
    910f:	48 8d 35 97 9b 01 00 	lea    0x19b97(%rip),%rsi        # 22cad <anon.d71f1804726653ea8be9c8cf63aeda24.41.llvm.10308064416274954687+0x36>
    9116:	ba 01 00 00 00       	mov    $0x1,%edx
    911b:	4c 89 e7             	mov    %r12,%rdi
    911e:	ff 15 74 5d 22 00    	callq  *0x225d74(%rip)        # 22ee98 <_GLOBAL_OFFSET_TABLE_+0x408>
    9124:	89 c1                	mov    %eax,%ecx
    9126:	eb 02                	jmp    912a <_ZN3std10sys_common10bytestring20debug_fmt_bytestring17h0f6e572be9ba4b4dE+0x34a>
    9128:	b1 01                	mov    $0x1,%cl
    912a:	89 c8                	mov    %ecx,%eax
    912c:	48 83 c4 68          	add    $0x68,%rsp
    9130:	5b                   	pop    %rbx
    9131:	41 5c                	pop    %r12
    9133:	41 5d                	pop    %r13
    9135:	41 5e                	pop    %r14
    9137:	41 5f                	pop    %r15
    9139:	5d                   	pop    %rbp
    913a:	c3                   	retq   
    913b:	0f 1f 44 00 00       	nopl   0x0(%rax,%rax,1)

0000000000009140 <_ZN3std2io5stdio12LOCAL_STDOUT6__init17h7f8432ce85b1a509E>:
    9140:	48 89 f8             	mov    %rdi,%rax
    9143:	0f 57 c0             	xorps  %xmm0,%xmm0
    9146:	0f 11 07             	movups %xmm0,(%rdi)
    9149:	c3                   	retq   
    914a:	66 0f 1f 44 00 00    	nopw   0x0(%rax,%rax,1)

0000000000009150 <_ZN3std2io5stdio12LOCAL_STDOUT7__getit17h7e09955db203c583E>:
    9150:	53                   	push   %rbx
    9151:	66 66 66 64 48 8b 04 	data16 data16 data16 mov %fs:0x0,%rax
    9158:	25 00 00 00 00 
    915d:	80 b8 b9 ff ff ff 00 	cmpb   $0x0,-0x47(%rax)
    9164:	74 04                	je     916a <_ZN3std2io5stdio12LOCAL_STDOUT7__getit17h7e09955db203c583E+0x1a>
    9166:	31 c0                	xor    %eax,%eax
    9168:	5b                   	pop    %rbx
    9169:	c3                   	retq   
    916a:	48 89 c3             	mov    %rax,%rbx
    916d:	80 bb b8 ff ff ff 00 	cmpb   $0x0,-0x48(%rbx)
    9174:	74 09                	je     917f <_ZN3std2io5stdio12LOCAL_STDOUT7__getit17h7e09955db203c583E+0x2f>
    9176:	48 8d 80 98 ff ff ff 	lea    -0x68(%rax),%rax
    917d:	5b                   	pop    %rbx
    917e:	c3                   	retq   
    917f:	48 83 3d e1 59 22 00 	cmpq   $0x0,0x2259e1(%rip)        # 22eb68 <_GLOBAL_OFFSET_TABLE_+0xd8>
    9186:	00 
    9187:	74 1d                	je     91a6 <_ZN3std2io5stdio12LOCAL_STDOUT7__getit17h7e09955db203c583E+0x56>
    9189:	48 8d b3 98 ff ff ff 	lea    -0x68(%rbx),%rsi
    9190:	48 8d 3d 69 2f 00 00 	lea    0x2f69(%rip),%rdi        # c100 <_ZN3std6thread5local4fast13destroy_value17h8e7ff5dbe9468278E.llvm.2675274726128530079>
    9197:	48 8d 15 8a 5e 22 00 	lea    0x225e8a(%rip),%rdx        # 22f028 <_rust_extern_with_linkage___dso_handle.llvm.3637670619784138920>
    919e:	ff 15 c4 59 22 00    	callq  *0x2259c4(%rip)        # 22eb68 <_GLOBAL_OFFSET_TABLE_+0xd8>
    91a4:	eb 13                	jmp    91b9 <_ZN3std2io5stdio12LOCAL_STDOUT7__getit17h7e09955db203c583E+0x69>
    91a6:	48 8d bb 98 ff ff ff 	lea    -0x68(%rbx),%rdi
    91ad:	48 8d 35 4c 2f 00 00 	lea    0x2f4c(%rip),%rsi        # c100 <_ZN3std6thread5local4fast13destroy_value17h8e7ff5dbe9468278E.llvm.2675274726128530079>
    91b4:	e8 a7 22 00 00       	callq  b460 <_ZN3std10sys_common12thread_local22register_dtor_fallback17h404bb0bb720f8640E>
    91b9:	c6 83 b8 ff ff ff 01 	movb   $0x1,-0x48(%rbx)
    91c0:	48 8d 83 98 ff ff ff 	lea    -0x68(%rbx),%rax
    91c7:	5b                   	pop    %rbx
    91c8:	c3                   	retq   
    91c9:	0f 1f 80 00 00 00 00 	nopl   0x0(%rax)

00000000000091d0 <_ZN36_$LT$T$u20$as$u20$core..any..Any$GT$7type_id17hfab5f59e6d6b7392E>:
    91d0:	48 b8 91 5d ce aa 1d 	movabs $0xd41b091daace5d91,%rax
    91d7:	09 1b d4 
    91da:	c3                   	retq   
    91db:	0f 1f 44 00 00       	nopl   0x0(%rax,%rax,1)

00000000000091e0 <_ZN42_$LT$$RF$T$u20$as$u20$core..fmt..Debug$GT$3fmt17hd54f5da17bec3d9cE>:
    91e0:	48 8b 3f             	mov    (%rdi),%rdi
    91e3:	ff 25 b7 5a 22 00    	jmpq   *0x225ab7(%rip)        # 22eca0 <_GLOBAL_OFFSET_TABLE_+0x210>
    91e9:	0f 1f 80 00 00 00 00 	nopl   0x0(%rax)

00000000000091f0 <_ZN44_$LT$$RF$T$u20$as$u20$core..fmt..Display$GT$3fmt17hae3a129108001c32E>:
    91f0:	48 8b 3f             	mov    (%rdi),%rdi
    91f3:	ff 25 0f 5d 22 00    	jmpq   *0x225d0f(%rip)        # 22ef08 <_GLOBAL_OFFSET_TABLE_+0x478>
    91f9:	0f 1f 80 00 00 00 00 	nopl   0x0(%rax)

0000000000009200 <_ZN4core3ptr18real_drop_in_place17h0d235f72f1c4048aE>:
    9200:	48 83 3f 02          	cmpq   $0x2,(%rdi)
    9204:	74 17                	je     921d <_ZN4core3ptr18real_drop_in_place17h0d235f72f1c4048aE+0x1d>
    9206:	48 8b 47 18          	mov    0x18(%rdi),%rax
    920a:	f0 48 81 28 01 00 00 	lock subq $0x1,(%rax)
    9211:	00 
    9212:	75 09                	jne    921d <_ZN4core3ptr18real_drop_in_place17h0d235f72f1c4048aE+0x1d>
    9214:	48 83 c7 18          	add    $0x18,%rdi
    9218:	e9 f3 d3 ff ff       	jmpq   6610 <_ZN34_$LT$alloc..sync..Arc$LT$T$GT$$GT$9drop_slow17hf6e1f74c90802e9aE>
    921d:	c3                   	retq   
    921e:	66 90                	xchg   %ax,%ax

0000000000009220 <_ZN4core3ptr18real_drop_in_place17h2137e9549e69b85cE>:
    9220:	c3                   	retq   
    9221:	66 2e 0f 1f 84 00 00 	nopw   %cs:0x0(%rax,%rax,1)
    9228:	00 00 00 
    922b:	0f 1f 44 00 00       	nopl   0x0(%rax,%rax,1)

0000000000009230 <_ZN4core3ptr18real_drop_in_place17h6e316c41c85f80c0E>:
    9230:	48 8b 47 08          	mov    0x8(%rdi),%rax
    9234:	48 83 00 01          	addq   $0x1,(%rax)
    9238:	c3                   	retq   
    9239:	0f 1f 80 00 00 00 00 	nopl   0x0(%rax)

0000000000009240 <_ZN4core3ptr18real_drop_in_place17h95680b2c2553060aE>:
    9240:	48 8b 47 18          	mov    0x18(%rdi),%rax
    9244:	f0 48 81 28 01 00 00 	lock subq $0x1,(%rax)
    924b:	00 
    924c:	75 09                	jne    9257 <_ZN4core3ptr18real_drop_in_place17h95680b2c2553060aE+0x17>
    924e:	48 83 c7 18          	add    $0x18,%rdi
    9252:	e9 b9 d3 ff ff       	jmpq   6610 <_ZN34_$LT$alloc..sync..Arc$LT$T$GT$$GT$9drop_slow17hf6e1f74c90802e9aE>
    9257:	c3                   	retq   
    9258:	0f 1f 84 00 00 00 00 	nopl   0x0(%rax,%rax,1)
    925f:	00 

0000000000009260 <_ZN4core3ptr18real_drop_in_place17hbd48d90a87573caaE>:
    9260:	48 8b 07             	mov    (%rdi),%rax
    9263:	f0 48 81 28 01 00 00 	lock subq $0x1,(%rax)
    926a:	00 
    926b:	75 05                	jne    9272 <_ZN4core3ptr18real_drop_in_place17hbd48d90a87573caaE+0x12>
    926d:	e9 2e d3 ff ff       	jmpq   65a0 <_ZN34_$LT$alloc..sync..Arc$LT$T$GT$$GT$9drop_slow17h609eaa68712ad880E>
    9272:	c3                   	retq   
    9273:	66 2e 0f 1f 84 00 00 	nopw   %cs:0x0(%rax,%rax,1)
    927a:	00 00 00 
    927d:	0f 1f 00             	nopl   (%rax)

0000000000009280 <_ZN4core3ptr18real_drop_in_place17hd3f6b0f1b67c4e85E>:
    9280:	41 56                	push   %r14
    9282:	53                   	push   %rbx
    9283:	50                   	push   %rax
    9284:	48 89 fb             	mov    %rdi,%rbx
    9287:	48 8b 3f             	mov    (%rdi),%rdi
    928a:	48 85 ff             	test   %rdi,%rdi
    928d:	74 27                	je     92b6 <_ZN4core3ptr18real_drop_in_place17hd3f6b0f1b67c4e85E+0x36>
    928f:	48 8b 43 08          	mov    0x8(%rbx),%rax
    9293:	ff 10                	callq  *(%rax)
    9295:	48 8b 43 08          	mov    0x8(%rbx),%rax
    9299:	48 8b 70 08          	mov    0x8(%rax),%rsi
    929d:	48 85 f6             	test   %rsi,%rsi
    92a0:	74 14                	je     92b6 <_ZN4core3ptr18real_drop_in_place17hd3f6b0f1b67c4e85E+0x36>
    92a2:	48 8b 3b             	mov    (%rbx),%rdi
    92a5:	48 8b 50 10          	mov    0x10(%rax),%rdx
    92a9:	48 83 c4 08          	add    $0x8,%rsp
    92ad:	5b                   	pop    %rbx
    92ae:	41 5e                	pop    %r14
    92b0:	ff 25 c2 59 22 00    	jmpq   *0x2259c2(%rip)        # 22ec78 <_GLOBAL_OFFSET_TABLE_+0x1e8>
    92b6:	48 83 c4 08          	add    $0x8,%rsp
    92ba:	5b                   	pop    %rbx
    92bb:	41 5e                	pop    %r14
    92bd:	c3                   	retq   
    92be:	49 89 c6             	mov    %rax,%r14
    92c1:	48 8b 3b             	mov    (%rbx),%rdi
    92c4:	48 8b 73 08          	mov    0x8(%rbx),%rsi
    92c8:	e8 53 00 00 00       	callq  9320 <_ZN5alloc5alloc8box_free17hf162164fbcae5c55E.llvm.10827810749348899414>
    92cd:	4c 89 f7             	mov    %r14,%rdi
    92d0:	e8 63 ce ff ff       	callq  6138 <_init+0xf0>
    92d5:	0f 0b                	ud2    
    92d7:	66 0f 1f 84 00 00 00 	nopw   0x0(%rax,%rax,1)
    92de:	00 00 

00000000000092e0 <_ZN4core3str6traits105_$LT$impl$u20$core..slice..SliceIndex$LT$str$GT$$u20$for$u20$core..ops..range..RangeFrom$LT$usize$GT$$GT$5index28_$u7b$$u7b$closure$u7d$$u7d$17h4053690797f7f676E>:
    92e0:	50                   	push   %rax
    92e1:	48 8b 0f             	mov    (%rdi),%rcx
    92e4:	48 8b 57 08          	mov    0x8(%rdi),%rdx
    92e8:	48 8b 01             	mov    (%rcx),%rax
    92eb:	48 8b 71 08          	mov    0x8(%rcx),%rsi
    92ef:	48 8b 12             	mov    (%rdx),%rdx
    92f2:	48 8b 4f 10          	mov    0x10(%rdi),%rcx
    92f6:	48 8b 09             	mov    (%rcx),%rcx
    92f9:	48 89 c7             	mov    %rax,%rdi
    92fc:	ff 15 be 58 22 00    	callq  *0x2258be(%rip)        # 22ebc0 <_GLOBAL_OFFSET_TABLE_+0x130>
    9302:	0f 0b                	ud2    
    9304:	66 2e 0f 1f 84 00 00 	nopw   %cs:0x0(%rax,%rax,1)
    930b:	00 00 00 
    930e:	66 90                	xchg   %ax,%ax

0000000000009310 <_ZN5alloc5alloc8box_free17hd88e60c97e400217E>:
    9310:	be 18 00 00 00       	mov    $0x18,%esi
    9315:	ba 08 00 00 00       	mov    $0x8,%edx
    931a:	ff 25 58 59 22 00    	jmpq   *0x225958(%rip)        # 22ec78 <_GLOBAL_OFFSET_TABLE_+0x1e8>

0000000000009320 <_ZN5alloc5alloc8box_free17hf162164fbcae5c55E.llvm.10827810749348899414>:
    9320:	48 89 f0             	mov    %rsi,%rax
    9323:	48 8b 76 08          	mov    0x8(%rsi),%rsi
    9327:	48 85 f6             	test   %rsi,%rsi
    932a:	74 0a                	je     9336 <_ZN5alloc5alloc8box_free17hf162164fbcae5c55E.llvm.10827810749348899414+0x16>
    932c:	48 8b 50 10          	mov    0x10(%rax),%rdx
    9330:	ff 25 42 59 22 00    	jmpq   *0x225942(%rip)        # 22ec78 <_GLOBAL_OFFSET_TABLE_+0x1e8>
    9336:	c3                   	retq   
    9337:	66 0f 1f 84 00 00 00 	nopw   0x0(%rax,%rax,1)
    933e:	00 00 

0000000000009340 <_ZN68_$LT$std..thread..local..AccessError$u20$as$u20$core..fmt..Debug$GT$3fmt17hae34e16181521489E>:
    9340:	53                   	push   %rbx
    9341:	48 83 ec 10          	sub    $0x10,%rsp
    9345:	48 8d 15 64 9a 01 00 	lea    0x19a64(%rip),%rdx        # 22db0 <str.0+0x30>
    934c:	48 89 e3             	mov    %rsp,%rbx
    934f:	b9 0b 00 00 00       	mov    $0xb,%ecx
    9354:	48 89 df             	mov    %rbx,%rdi
    9357:	ff 15 13 5a 22 00    	callq  *0x225a13(%rip)        # 22ed70 <_GLOBAL_OFFSET_TABLE_+0x2e0>
    935d:	48 89 df             	mov    %rbx,%rdi
    9360:	ff 15 9a 5a 22 00    	callq  *0x225a9a(%rip)        # 22ee00 <_GLOBAL_OFFSET_TABLE_+0x370>
    9366:	48 83 c4 10          	add    $0x10,%rsp
    936a:	5b                   	pop    %rbx
    936b:	c3                   	retq   
    936c:	0f 1f 40 00          	nopl   0x0(%rax)

0000000000009370 <_ZN46_$LT$std..thread..local..LocalKey$LT$T$GT$$GT$4with17hc2d6bfcbec85772eE>:
    9370:	41 56                	push   %r14
    9372:	53                   	push   %rbx
    9373:	48 81 ec a8 00 00 00 	sub    $0xa8,%rsp
    937a:	49 89 fe             	mov    %rdi,%r14
    937d:	f3 0f 6f 06          	movdqu (%rsi),%xmm0
    9381:	0f 10 4e 10          	movups 0x10(%rsi),%xmm1
    9385:	0f 29 4c 24 40       	movaps %xmm1,0x40(%rsp)
    938a:	66 0f 7f 44 24 30    	movdqa %xmm0,0x30(%rsp)
    9390:	ff 17                	callq  *(%rdi)
    9392:	48 89 c3             	mov    %rax,%rbx
    9395:	48 85 c0             	test   %rax,%rax
    9398:	0f 84 05 01 00 00    	je     94a3 <_ZN46_$LT$std..thread..local..LocalKey$LT$T$GT$$GT$4with17hc2d6bfcbec85772eE+0x133>
    939e:	66 0f 6f 44 24 30    	movdqa 0x30(%rsp),%xmm0
    93a4:	0f 28 4c 24 40       	movaps 0x40(%rsp),%xmm1
    93a9:	0f 29 8c 24 90 00 00 	movaps %xmm1,0x90(%rsp)
    93b0:	00 
    93b1:	66 0f 7f 84 24 80 00 	movdqa %xmm0,0x80(%rsp)
    93b8:	00 00 
    93ba:	48 83 7b 08 03       	cmpq   $0x3,0x8(%rbx)
    93bf:	75 61                	jne    9422 <_ZN46_$LT$std..thread..local..LocalKey$LT$T$GT$$GT$4with17hc2d6bfcbec85772eE+0xb2>
    93c1:	48 8d 7c 24 58       	lea    0x58(%rsp),%rdi
    93c6:	41 ff 56 08          	callq  *0x8(%r14)
    93ca:	0f 10 44 24 58       	movups 0x58(%rsp),%xmm0
    93cf:	0f 10 4c 24 68       	movups 0x68(%rsp),%xmm1
    93d4:	48 8b 4c 24 78       	mov    0x78(%rsp),%rcx
    93d9:	f3 0f 6f 13          	movdqu (%rbx),%xmm2
    93dd:	0f 10 5b 10          	movups 0x10(%rbx),%xmm3
    93e1:	0f 11 4b 10          	movups %xmm1,0x10(%rbx)
    93e5:	0f 11 03             	movups %xmm0,(%rbx)
    93e8:	48 8b 43 20          	mov    0x20(%rbx),%rax
    93ec:	48 89 4b 20          	mov    %rcx,0x20(%rbx)
    93f0:	0f 11 5c 24 10       	movups %xmm3,0x10(%rsp)
    93f5:	f3 0f 7f 14 24       	movdqu %xmm2,(%rsp)
    93fa:	48 89 44 24 20       	mov    %rax,0x20(%rsp)
    93ff:	66 0f 70 c2 4e       	pshufd $0x4e,%xmm2,%xmm0
    9404:	66 48 0f 7e c1       	movq   %xmm0,%rcx
    9409:	f6 c1 02             	test   $0x2,%cl
    940c:	75 14                	jne    9422 <_ZN46_$LT$std..thread..local..LocalKey$LT$T$GT$$GT$4with17hc2d6bfcbec85772eE+0xb2>
    940e:	f0 48 81 28 01 00 00 	lock subq $0x1,(%rax)
    9415:	00 
    9416:	75 0a                	jne    9422 <_ZN46_$LT$std..thread..local..LocalKey$LT$T$GT$$GT$4with17hc2d6bfcbec85772eE+0xb2>
    9418:	48 8d 7c 24 20       	lea    0x20(%rsp),%rdi
    941d:	e8 ee d1 ff ff       	callq  6610 <_ZN34_$LT$alloc..sync..Arc$LT$T$GT$$GT$9drop_slow17hf6e1f74c90802e9aE>
    9422:	66 0f 6f 84 24 80 00 	movdqa 0x80(%rsp),%xmm0
    9429:	00 00 
    942b:	0f 28 8c 24 90 00 00 	movaps 0x90(%rsp),%xmm1
    9432:	00 
    9433:	66 0f 7f 04 24       	movdqa %xmm0,(%rsp)
    9438:	0f 29 4c 24 10       	movaps %xmm1,0x10(%rsp)
    943d:	48 83 3b 00          	cmpq   $0x0,(%rbx)
    9441:	0f 85 88 00 00 00    	jne    94cf <_ZN46_$LT$std..thread..local..LocalKey$LT$T$GT$$GT$4with17hc2d6bfcbec85772eE+0x15f>
    9447:	4c 8d 73 08          	lea    0x8(%rbx),%r14
    944b:	48 c7 03 ff ff ff ff 	movq   $0xffffffffffffffff,(%rbx)
    9452:	4c 89 74 24 58       	mov    %r14,0x58(%rsp)
    9457:	48 89 5c 24 60       	mov    %rbx,0x60(%rsp)
    945c:	48 83 7b 08 02       	cmpq   $0x2,0x8(%rbx)
    9461:	74 1a                	je     947d <_ZN46_$LT$std..thread..local..LocalKey$LT$T$GT$$GT$4with17hc2d6bfcbec85772eE+0x10d>
    9463:	48 8b 43 20          	mov    0x20(%rbx),%rax
    9467:	f0 48 81 28 01 00 00 	lock subq $0x1,(%rax)
    946e:	00 
    946f:	75 0c                	jne    947d <_ZN46_$LT$std..thread..local..LocalKey$LT$T$GT$$GT$4with17hc2d6bfcbec85772eE+0x10d>
    9471:	48 83 c3 20          	add    $0x20,%rbx
    9475:	48 89 df             	mov    %rbx,%rdi
    9478:	e8 93 d1 ff ff       	callq  6610 <_ZN34_$LT$alloc..sync..Arc$LT$T$GT$$GT$9drop_slow17hf6e1f74c90802e9aE>
    947d:	0f 28 04 24          	movaps (%rsp),%xmm0
    9481:	0f 28 4c 24 10       	movaps 0x10(%rsp),%xmm1
    9486:	41 0f 11 4e 10       	movups %xmm1,0x10(%r14)
    948b:	41 0f 11 06          	movups %xmm0,(%r14)
    948f:	48 8b 44 24 60       	mov    0x60(%rsp),%rax
    9494:	48 83 00 01          	addq   $0x1,(%rax)
    9498:	48 81 c4 a8 00 00 00 	add    $0xa8,%rsp
    949f:	5b                   	pop    %rbx
    94a0:	41 5e                	pop    %r14
    94a2:	c3                   	retq   
    94a3:	48 8b 44 24 48       	mov    0x48(%rsp),%rax
    94a8:	f0 48 81 28 01 00 00 	lock subq $0x1,(%rax)
    94af:	00 
    94b0:	75 0a                	jne    94bc <_ZN46_$LT$std..thread..local..LocalKey$LT$T$GT$$GT$4with17hc2d6bfcbec85772eE+0x14c>
    94b2:	48 8d 7c 24 48       	lea    0x48(%rsp),%rdi
    94b7:	e8 54 d1 ff ff       	callq  6610 <_ZN34_$LT$alloc..sync..Arc$LT$T$GT$$GT$9drop_slow17hf6e1f74c90802e9aE>
    94bc:	48 8d 3d f8 98 01 00 	lea    0x198f8(%rip),%rdi        # 22dbb <anon.9aff47cfc7bc0ab43bec4bdb2a8d583b.12.llvm.10827810749348899414>
    94c3:	be 39 00 00 00       	mov    $0x39,%esi
    94c8:	e8 73 d9 ff ff       	callq  6e40 <_ZN4core6result13unwrap_failed17h8dea4bb8d8776a71E>
    94cd:	0f 0b                	ud2    
    94cf:	48 8d 3d ae 96 01 00 	lea    0x196ae(%rip),%rdi        # 22b84 <anon.9aff47cfc7bc0ab43bec4bdb2a8d583b.0.llvm.10827810749348899414>
    94d6:	be 10 00 00 00       	mov    $0x10,%esi
    94db:	e8 e0 d8 ff ff       	callq  6dc0 <_ZN4core6result13unwrap_failed17h7a6b485e230bad45E>
    94e0:	0f 0b                	ud2    
    94e2:	48 89 c3             	mov    %rax,%rbx
    94e5:	48 89 e7             	mov    %rsp,%rdi
    94e8:	e8 13 fd ff ff       	callq  9200 <_ZN4core3ptr18real_drop_in_place17h0d235f72f1c4048aE>
    94ed:	eb 42                	jmp    9531 <_ZN46_$LT$std..thread..local..LocalKey$LT$T$GT$$GT$4with17hc2d6bfcbec85772eE+0x1c1>
    94ef:	48 89 c3             	mov    %rax,%rbx
    94f2:	eb 3d                	jmp    9531 <_ZN46_$LT$std..thread..local..LocalKey$LT$T$GT$$GT$4with17hc2d6bfcbec85772eE+0x1c1>
    94f4:	48 89 c3             	mov    %rax,%rbx
    94f7:	66 0f 6f 04 24       	movdqa (%rsp),%xmm0
    94fc:	0f 28 4c 24 10       	movaps 0x10(%rsp),%xmm1
    9501:	41 0f 11 4e 10       	movups %xmm1,0x10(%r14)
    9506:	f3 41 0f 7f 06       	movdqu %xmm0,(%r14)
    950b:	48 8d 7c 24 58       	lea    0x58(%rsp),%rdi
    9510:	e8 1b fd ff ff       	callq  9230 <_ZN4core3ptr18real_drop_in_place17h6e316c41c85f80c0E>
    9515:	eb 1a                	jmp    9531 <_ZN46_$LT$std..thread..local..LocalKey$LT$T$GT$$GT$4with17hc2d6bfcbec85772eE+0x1c1>
    9517:	48 89 c3             	mov    %rax,%rbx
    951a:	48 8d bc 24 80 00 00 	lea    0x80(%rsp),%rdi
    9521:	00 
    9522:	eb 08                	jmp    952c <_ZN46_$LT$std..thread..local..LocalKey$LT$T$GT$$GT$4with17hc2d6bfcbec85772eE+0x1bc>
    9524:	48 89 c3             	mov    %rax,%rbx
    9527:	48 8d 7c 24 30       	lea    0x30(%rsp),%rdi
    952c:	e8 0f fd ff ff       	callq  9240 <_ZN4core3ptr18real_drop_in_place17h95680b2c2553060aE>
    9531:	48 89 df             	mov    %rbx,%rdi
    9534:	e8 ff cb ff ff       	callq  6138 <_init+0xf0>
    9539:	0f 0b                	ud2    
    953b:	0f 1f 44 00 00       	nopl   0x0(%rax,%rax,1)

0000000000009540 <_ZN46_$LT$std..thread..local..LocalKey$LT$T$GT$$GT$4with17hcf5670c3b4adab13E>:
    9540:	41 57                	push   %r15
    9542:	41 56                	push   %r14
    9544:	53                   	push   %rbx
    9545:	48 83 ec 20          	sub    $0x20,%rsp
    9549:	49 89 fe             	mov    %rdi,%r14
    954c:	ff 17                	callq  *(%rdi)
    954e:	48 85 c0             	test   %rax,%rax
    9551:	0f 84 a3 00 00 00    	je     95fa <_ZN46_$LT$std..thread..local..LocalKey$LT$T$GT$$GT$4with17hcf5670c3b4adab13E+0xba>
    9557:	48 89 c3             	mov    %rax,%rbx
    955a:	48 83 38 01          	cmpq   $0x1,(%rax)
    955e:	74 6a                	je     95ca <_ZN46_$LT$std..thread..local..LocalKey$LT$T$GT$$GT$4with17hcf5670c3b4adab13E+0x8a>
    9560:	48 8d 7c 24 08       	lea    0x8(%rsp),%rdi
    9565:	41 ff 56 08          	callq  *0x8(%r14)
    9569:	f2 0f 10 44 24 18    	movsd  0x18(%rsp),%xmm0
    956f:	66 0f 10 4c 24 08    	movupd 0x8(%rsp),%xmm1
    9575:	f2 0f 10 15 9b 97 01 	movsd  0x1979b(%rip),%xmm2        # 22d18 <anon.d71f1804726653ea8be9c8cf63aeda24.41.llvm.10308064416274954687+0xa1>
    957c:	00 
    957d:	66 0f 14 d1          	unpcklpd %xmm1,%xmm2
    9581:	66 0f c6 c8 01       	shufpd $0x1,%xmm0,%xmm1
    9586:	f3 0f 6f 43 10       	movdqu 0x10(%rbx),%xmm0
    958b:	66 0f 11 4b 10       	movupd %xmm1,0x10(%rbx)
    9590:	48 83 3b 00          	cmpq   $0x0,(%rbx)
    9594:	66 0f 11 13          	movupd %xmm2,(%rbx)
    9598:	74 30                	je     95ca <_ZN46_$LT$std..thread..local..LocalKey$LT$T$GT$$GT$4with17hcf5670c3b4adab13E+0x8a>
    959a:	66 49 0f 7e c6       	movq   %xmm0,%r14
    959f:	4d 85 f6             	test   %r14,%r14
    95a2:	74 26                	je     95ca <_ZN46_$LT$std..thread..local..LocalKey$LT$T$GT$$GT$4with17hcf5670c3b4adab13E+0x8a>
    95a4:	66 0f 70 c0 4e       	pshufd $0x4e,%xmm0,%xmm0
    95a9:	66 49 0f 7e c7       	movq   %xmm0,%r15
    95ae:	4c 89 f7             	mov    %r14,%rdi
    95b1:	41 ff 17             	callq  *(%r15)
    95b4:	49 8b 77 08          	mov    0x8(%r15),%rsi
    95b8:	48 85 f6             	test   %rsi,%rsi
    95bb:	74 0d                	je     95ca <_ZN46_$LT$std..thread..local..LocalKey$LT$T$GT$$GT$4with17hcf5670c3b4adab13E+0x8a>
    95bd:	49 8b 57 10          	mov    0x10(%r15),%rdx
    95c1:	4c 89 f7             	mov    %r14,%rdi
    95c4:	ff 15 ae 56 22 00    	callq  *0x2256ae(%rip)        # 22ec78 <_GLOBAL_OFFSET_TABLE_+0x1e8>
    95ca:	48 83 7b 08 00       	cmpq   $0x0,0x8(%rbx)
    95cf:	75 3c                	jne    960d <_ZN46_$LT$std..thread..local..LocalKey$LT$T$GT$$GT$4with17hcf5670c3b4adab13E+0xcd>
    95d1:	48 89 d9             	mov    %rbx,%rcx
    95d4:	48 83 c1 08          	add    $0x8,%rcx
    95d8:	48 c7 43 08 ff ff ff 	movq   $0xffffffffffffffff,0x8(%rbx)
    95df:	ff 
    95e0:	48 8b 43 10          	mov    0x10(%rbx),%rax
    95e4:	48 8b 53 18          	mov    0x18(%rbx),%rdx
    95e8:	66 0f ef c0          	pxor   %xmm0,%xmm0
    95ec:	f3 0f 7f 01          	movdqu %xmm0,(%rcx)
    95f0:	48 83 c4 20          	add    $0x20,%rsp
    95f4:	5b                   	pop    %rbx
    95f5:	41 5e                	pop    %r14
    95f7:	41 5f                	pop    %r15
    95f9:	c3                   	retq   
    95fa:	48 8d 3d ba 97 01 00 	lea    0x197ba(%rip),%rdi        # 22dbb <anon.9aff47cfc7bc0ab43bec4bdb2a8d583b.12.llvm.10827810749348899414>
    9601:	be 39 00 00 00       	mov    $0x39,%esi
    9606:	e8 35 d8 ff ff       	callq  6e40 <_ZN4core6result13unwrap_failed17h8dea4bb8d8776a71E>
    960b:	0f 0b                	ud2    
    960d:	48 8d 3d 70 95 01 00 	lea    0x19570(%rip),%rdi        # 22b84 <anon.9aff47cfc7bc0ab43bec4bdb2a8d583b.0.llvm.10827810749348899414>
    9614:	be 10 00 00 00       	mov    $0x10,%esi
    9619:	e8 a2 d7 ff ff       	callq  6dc0 <_ZN4core6result13unwrap_failed17h7a6b485e230bad45E>
    961e:	0f 0b                	ud2    
    9620:	48 89 c3             	mov    %rax,%rbx
    9623:	4c 89 f7             	mov    %r14,%rdi
    9626:	4c 89 fe             	mov    %r15,%rsi
    9629:	e8 f2 fc ff ff       	callq  9320 <_ZN5alloc5alloc8box_free17hf162164fbcae5c55E.llvm.10827810749348899414>
    962e:	48 89 df             	mov    %rbx,%rdi
    9631:	e8 02 cb ff ff       	callq  6138 <_init+0xf0>
    9636:	0f 0b                	ud2    
    9638:	0f 1f 84 00 00 00 00 	nopl   0x0(%rax,%rax,1)
    963f:	00 

0000000000009640 <_ZN46_$LT$std..thread..local..LocalKey$LT$T$GT$$GT$4with17he34eca6efb162c78E>:
    9640:	41 56                	push   %r14
    9642:	53                   	push   %rbx
    9643:	48 83 ec 58          	sub    $0x58,%rsp
    9647:	49 89 fe             	mov    %rdi,%r14
    964a:	ff 17                	callq  *(%rdi)
    964c:	48 85 c0             	test   %rax,%rax
    964f:	0f 84 ab 00 00 00    	je     9700 <_ZN46_$LT$std..thread..local..LocalKey$LT$T$GT$$GT$4with17he34eca6efb162c78E+0xc0>
    9655:	48 89 c3             	mov    %rax,%rbx
    9658:	48 83 78 08 03       	cmpq   $0x3,0x8(%rax)
    965d:	75 62                	jne    96c1 <_ZN46_$LT$std..thread..local..LocalKey$LT$T$GT$$GT$4with17he34eca6efb162c78E+0x81>
    965f:	48 8d 7c 24 08       	lea    0x8(%rsp),%rdi
    9664:	41 ff 56 08          	callq  *0x8(%r14)
    9668:	0f 10 44 24 08       	movups 0x8(%rsp),%xmm0
    966d:	0f 10 4c 24 18       	movups 0x18(%rsp),%xmm1
    9672:	48 8b 4c 24 28       	mov    0x28(%rsp),%rcx
    9677:	f3 0f 6f 13          	movdqu (%rbx),%xmm2
    967b:	0f 10 5b 10          	movups 0x10(%rbx),%xmm3
    967f:	0f 11 4b 10          	movups %xmm1,0x10(%rbx)
    9683:	0f 11 03             	movups %xmm0,(%rbx)
    9686:	48 8b 43 20          	mov    0x20(%rbx),%rax
    968a:	48 89 4b 20          	mov    %rcx,0x20(%rbx)
    968e:	0f 11 5c 24 40       	movups %xmm3,0x40(%rsp)
    9693:	f3 0f 7f 54 24 30    	movdqu %xmm2,0x30(%rsp)
    9699:	48 89 44 24 50       	mov    %rax,0x50(%rsp)
    969e:	66 0f 70 c2 4e       	pshufd $0x4e,%xmm2,%xmm0
    96a3:	66 48 0f 7e c1       	movq   %xmm0,%rcx
    96a8:	f6 c1 02             	test   $0x2,%cl
    96ab:	75 14                	jne    96c1 <_ZN46_$LT$std..thread..local..LocalKey$LT$T$GT$$GT$4with17he34eca6efb162c78E+0x81>
    96ad:	f0 48 81 28 01 00 00 	lock subq $0x1,(%rax)
    96b4:	00 
    96b5:	75 0a                	jne    96c1 <_ZN46_$LT$std..thread..local..LocalKey$LT$T$GT$$GT$4with17he34eca6efb162c78E+0x81>
    96b7:	48 8d 7c 24 50       	lea    0x50(%rsp),%rdi
    96bc:	e8 4f cf ff ff       	callq  6610 <_ZN34_$LT$alloc..sync..Arc$LT$T$GT$$GT$9drop_slow17hf6e1f74c90802e9aE>
    96c1:	48 8b 03             	mov    (%rbx),%rax
    96c4:	48 85 c0             	test   %rax,%rax
    96c7:	78 24                	js     96ed <_ZN46_$LT$std..thread..local..LocalKey$LT$T$GT$$GT$4with17he34eca6efb162c78E+0xad>
    96c9:	48 b9 ff ff ff ff ff 	movabs $0x7fffffffffffffff,%rcx
    96d0:	ff ff 7f 
    96d3:	48 39 c8             	cmp    %rcx,%rax
    96d6:	74 15                	je     96ed <_ZN46_$LT$std..thread..local..LocalKey$LT$T$GT$$GT$4with17he34eca6efb162c78E+0xad>
    96d8:	48 8b 4b 08          	mov    0x8(%rbx),%rcx
    96dc:	48 89 03             	mov    %rax,(%rbx)
    96df:	48 83 f9 02          	cmp    $0x2,%rcx
    96e3:	75 2e                	jne    9713 <_ZN46_$LT$std..thread..local..LocalKey$LT$T$GT$$GT$4with17he34eca6efb162c78E+0xd3>
    96e5:	48 83 c4 58          	add    $0x58,%rsp
    96e9:	5b                   	pop    %rbx
    96ea:	41 5e                	pop    %r14
    96ec:	c3                   	retq   
    96ed:	48 8d 3d 34 96 01 00 	lea    0x19634(%rip),%rdi        # 22d28 <anon.9aff47cfc7bc0ab43bec4bdb2a8d583b.1.llvm.10827810749348899414>
    96f4:	be 18 00 00 00       	mov    $0x18,%esi
    96f9:	e8 c2 d5 ff ff       	callq  6cc0 <_ZN4core6result13unwrap_failed17h364b1d28812d893aE>
    96fe:	0f 0b                	ud2    
    9700:	48 8d 3d b4 96 01 00 	lea    0x196b4(%rip),%rdi        # 22dbb <anon.9aff47cfc7bc0ab43bec4bdb2a8d583b.12.llvm.10827810749348899414>
    9707:	be 39 00 00 00       	mov    $0x39,%esi
    970c:	e8 2f d7 ff ff       	callq  6e40 <_ZN4core6result13unwrap_failed17h8dea4bb8d8776a71E>
    9711:	0f 0b                	ud2    
    9713:	48 8d 3d 33 97 01 00 	lea    0x19733(%rip),%rdi        # 22e4d <anon.9aff47cfc7bc0ab43bec4bdb2a8d583b.18.llvm.10827810749348899414>
    971a:	48 8d 15 ff 3a 22 00 	lea    0x223aff(%rip),%rdx        # 22d220 <anon.9aff47cfc7bc0ab43bec4bdb2a8d583b.17.llvm.10827810749348899414>
    9721:	be 26 00 00 00       	mov    $0x26,%esi
    9726:	e8 75 39 00 00       	callq  d0a0 <_ZN3std9panicking11begin_panic17h81010564e9ebbbe1E>
    972b:	0f 0b                	ud2    
    972d:	0f 1f 00             	nopl   (%rax)

0000000000009730 <_ZN46_$LT$std..thread..local..LocalKey$LT$T$GT$$GT$4with17hedcd09da34f05083E>:
    9730:	41 57                	push   %r15
    9732:	41 56                	push   %r14
    9734:	41 54                	push   %r12
    9736:	53                   	push   %rbx
    9737:	48 83 ec 28          	sub    $0x28,%rsp
    973b:	49 89 f6             	mov    %rsi,%r14
    973e:	49 89 ff             	mov    %rdi,%r15
    9741:	ff 17                	callq  *(%rdi)
    9743:	48 85 c0             	test   %rax,%rax
    9746:	0f 84 f0 00 00 00    	je     983c <_ZN46_$LT$std..thread..local..LocalKey$LT$T$GT$$GT$4with17hedcd09da34f05083E+0x10c>
    974c:	48 89 c3             	mov    %rax,%rbx
    974f:	48 83 38 01          	cmpq   $0x1,(%rax)
    9753:	74 6a                	je     97bf <_ZN46_$LT$std..thread..local..LocalKey$LT$T$GT$$GT$4with17hedcd09da34f05083E+0x8f>
    9755:	48 89 e7             	mov    %rsp,%rdi
    9758:	41 ff 57 08          	callq  *0x8(%r15)
    975c:	f2 0f 10 44 24 10    	movsd  0x10(%rsp),%xmm0
    9762:	66 0f 10 0c 24       	movupd (%rsp),%xmm1
    9767:	f2 0f 10 15 a9 95 01 	movsd  0x195a9(%rip),%xmm2        # 22d18 <anon.d71f1804726653ea8be9c8cf63aeda24.41.llvm.10308064416274954687+0xa1>
    976e:	00 
    976f:	66 0f 14 d1          	unpcklpd %xmm1,%xmm2
    9773:	66 0f c6 c8 01       	shufpd $0x1,%xmm0,%xmm1
    9778:	f3 0f 6f 43 10       	movdqu 0x10(%rbx),%xmm0
    977d:	66 0f 11 4b 10       	movupd %xmm1,0x10(%rbx)
    9782:	48 83 3b 00          	cmpq   $0x0,(%rbx)
    9786:	66 0f 11 13          	movupd %xmm2,(%rbx)
    978a:	74 33                	je     97bf <_ZN46_$LT$std..thread..local..LocalKey$LT$T$GT$$GT$4with17hedcd09da34f05083E+0x8f>
    978c:	66 49 0f 7e c7       	movq   %xmm0,%r15
    9791:	4d 85 ff             	test   %r15,%r15
    9794:	74 29                	je     97bf <_ZN46_$LT$std..thread..local..LocalKey$LT$T$GT$$GT$4with17hedcd09da34f05083E+0x8f>
    9796:	66 0f 70 c0 4e       	pshufd $0x4e,%xmm0,%xmm0
    979b:	66 49 0f 7e c4       	movq   %xmm0,%r12
    97a0:	4c 89 ff             	mov    %r15,%rdi
    97a3:	41 ff 14 24          	callq  *(%r12)
    97a7:	49 8b 74 24 08       	mov    0x8(%r12),%rsi
    97ac:	48 85 f6             	test   %rsi,%rsi
    97af:	74 0e                	je     97bf <_ZN46_$LT$std..thread..local..LocalKey$LT$T$GT$$GT$4with17hedcd09da34f05083E+0x8f>
    97b1:	49 8b 54 24 10       	mov    0x10(%r12),%rdx
    97b6:	4c 89 ff             	mov    %r15,%rdi
    97b9:	ff 15 b9 54 22 00    	callq  *0x2254b9(%rip)        # 22ec78 <_GLOBAL_OFFSET_TABLE_+0x1e8>
    97bf:	4d 8b 26             	mov    (%r14),%r12
    97c2:	4d 8b 7e 08          	mov    0x8(%r14),%r15
    97c6:	49 c7 06 00 00 00 00 	movq   $0x0,(%r14)
    97cd:	4c 89 64 24 18       	mov    %r12,0x18(%rsp)
    97d2:	4c 89 7c 24 20       	mov    %r15,0x20(%rsp)
    97d7:	48 83 7b 08 00       	cmpq   $0x0,0x8(%rbx)
    97dc:	75 71                	jne    984f <_ZN46_$LT$std..thread..local..LocalKey$LT$T$GT$$GT$4with17hedcd09da34f05083E+0x11f>
    97de:	48 c7 43 08 ff ff ff 	movq   $0xffffffffffffffff,0x8(%rbx)
    97e5:	ff 
    97e6:	48 8d 43 08          	lea    0x8(%rbx),%rax
    97ea:	49 89 de             	mov    %rbx,%r14
    97ed:	49 83 c6 10          	add    $0x10,%r14
    97f1:	4c 89 34 24          	mov    %r14,(%rsp)
    97f5:	48 89 44 24 08       	mov    %rax,0x8(%rsp)
    97fa:	48 8b 7b 10          	mov    0x10(%rbx),%rdi
    97fe:	48 85 ff             	test   %rdi,%rdi
    9801:	74 20                	je     9823 <_ZN46_$LT$std..thread..local..LocalKey$LT$T$GT$$GT$4with17hedcd09da34f05083E+0xf3>
    9803:	48 8b 43 18          	mov    0x18(%rbx),%rax
    9807:	ff 10                	callq  *(%rax)
    9809:	48 8b 43 18          	mov    0x18(%rbx),%rax
    980d:	48 8b 70 08          	mov    0x8(%rax),%rsi
    9811:	48 85 f6             	test   %rsi,%rsi
    9814:	74 0d                	je     9823 <_ZN46_$LT$std..thread..local..LocalKey$LT$T$GT$$GT$4with17hedcd09da34f05083E+0xf3>
    9816:	49 8b 3e             	mov    (%r14),%rdi
    9819:	48 8b 50 10          	mov    0x10(%rax),%rdx
    981d:	ff 15 55 54 22 00    	callq  *0x225455(%rip)        # 22ec78 <_GLOBAL_OFFSET_TABLE_+0x1e8>
    9823:	4c 89 63 10          	mov    %r12,0x10(%rbx)
    9827:	4c 89 7b 18          	mov    %r15,0x18(%rbx)
    982b:	48 83 43 08 01       	addq   $0x1,0x8(%rbx)
    9830:	48 83 c4 28          	add    $0x28,%rsp
    9834:	5b                   	pop    %rbx
    9835:	41 5c                	pop    %r12
    9837:	41 5e                	pop    %r14
    9839:	41 5f                	pop    %r15
    983b:	c3                   	retq   
    983c:	48 8d 3d 78 95 01 00 	lea    0x19578(%rip),%rdi        # 22dbb <anon.9aff47cfc7bc0ab43bec4bdb2a8d583b.12.llvm.10827810749348899414>
    9843:	be 39 00 00 00       	mov    $0x39,%esi
    9848:	e8 f3 d5 ff ff       	callq  6e40 <_ZN4core6result13unwrap_failed17h8dea4bb8d8776a71E>
    984d:	0f 0b                	ud2    
    984f:	48 8d 3d 2e 93 01 00 	lea    0x1932e(%rip),%rdi        # 22b84 <anon.9aff47cfc7bc0ab43bec4bdb2a8d583b.0.llvm.10827810749348899414>
    9856:	be 10 00 00 00       	mov    $0x10,%esi
    985b:	e8 60 d5 ff ff       	callq  6dc0 <_ZN4core6result13unwrap_failed17h7a6b485e230bad45E>
    9860:	0f 0b                	ud2    
    9862:	49 89 c6             	mov    %rax,%r14
    9865:	48 8d 7c 24 18       	lea    0x18(%rsp),%rdi
    986a:	e8 11 fa ff ff       	callq  9280 <_ZN4core3ptr18real_drop_in_place17hd3f6b0f1b67c4e85E>
